; Listing generated by Microsoft (R) Optimizing Compiler Version 19.00.23506.0 

	TITLE	d:\downloads\tgl-master\tgl-master\zlib\compress.c
	.686P
	.XMM
	include listing.inc
	.model	flat

INCLUDELIB OLDNAMES

PUBLIC	??_C@_05IAIEPMAK@1?42?48?$AA@			; `string'
CONST	ENDS
;	COMDAT ??_C@_05IAIEPMAK@1?42?48?$AA@
CONST	SEGMENT
??_C@_05IAIEPMAK@1?42?48?$AA@ DB '1.2.8', 00H		; `string'
CONST	ENDS
PUBLIC	_compressBound@4
PUBLIC	_compress@16
PUBLIC	_compress2@20
; Function compile flags: /Ogtp
; File d:\downloads\tgl-master\tgl-master\zlib\compress.c
;	COMDAT _compress2@20
_TEXT	SEGMENT
_stream$ = -56						; size = 56
_dest$ = 8						; size = 4
_destLen$ = 12						; size = 4
_source$ = 16						; size = 4
_sourceLen$ = 20					; size = 4
_level$ = 24						; size = 4
_compress2@20 PROC					; COMDAT

; 28   : {

  00000	55		 push	 ebp
  00001	8b ec		 mov	 ebp, esp
  00003	83 e4 f8	 and	 esp, -8			; fffffff8H
  00006	83 ec 38	 sub	 esp, 56			; 00000038H

; 29   :     z_stream stream;
; 30   :     int err;
; 31   : 
; 32   :     stream.next_in = (z_const Bytef *)source;

  00009	8b 45 10	 mov	 eax, DWORD PTR _source$[ebp]
  0000c	56		 push	 esi
  0000d	57		 push	 edi

; 33   :     stream.avail_in = (uInt)sourceLen;
; 34   : #ifdef MAXSEG_64K
; 35   :     /* Check for source > 64K on 16-bit machine: */
; 36   :     if ((uLong)stream.avail_in != sourceLen) return Z_BUF_ERROR;
; 37   : #endif
; 38   :     stream.next_out = dest;
; 39   :     stream.avail_out = (uInt)*destLen;

  0000e	8b 7d 0c	 mov	 edi, DWORD PTR _destLen$[ebp]
  00011	89 44 24 08	 mov	 DWORD PTR _stream$[esp+64], eax
  00015	8b 45 14	 mov	 eax, DWORD PTR _sourceLen$[ebp]
  00018	89 44 24 0c	 mov	 DWORD PTR _stream$[esp+68], eax
  0001c	8b 45 08	 mov	 eax, DWORD PTR _dest$[ebp]

; 40   :     if ((uLong)stream.avail_out != *destLen) return Z_BUF_ERROR;
; 41   : 
; 42   :     stream.zalloc = (alloc_func)0;
; 43   :     stream.zfree = (free_func)0;
; 44   :     stream.opaque = (voidpf)0;
; 45   : 
; 46   :     err = deflateInit(&stream, level);

  0001f	6a 38		 push	 56			; 00000038H
  00021	89 44 24 18	 mov	 DWORD PTR _stream$[esp+80], eax
  00025	8b 07		 mov	 eax, DWORD PTR [edi]
  00027	68 00 00 00 00	 push	 OFFSET ??_C@_05IAIEPMAK@1?42?48?$AA@
  0002c	ff 75 18	 push	 DWORD PTR _level$[ebp]
  0002f	89 44 24 24	 mov	 DWORD PTR _stream$[esp+92], eax
  00033	8d 44 24 14	 lea	 eax, DWORD PTR _stream$[esp+76]
  00037	50		 push	 eax
  00038	c7 44 24 38 00
	00 00 00	 mov	 DWORD PTR _stream$[esp+112], 0
  00040	c7 44 24 3c 00
	00 00 00	 mov	 DWORD PTR _stream$[esp+116], 0
  00048	c7 44 24 40 00
	00 00 00	 mov	 DWORD PTR _stream$[esp+120], 0
  00050	e8 00 00 00 00	 call	 _deflateInit_@16

; 47   :     if (err != Z_OK) return err;

  00055	85 c0		 test	 eax, eax
  00057	75 41		 jne	 SHORT $LN1@compress2

; 48   : 
; 49   :     err = deflate(&stream, Z_FINISH);

  00059	6a 04		 push	 4
  0005b	8d 44 24 0c	 lea	 eax, DWORD PTR _stream$[esp+68]
  0005f	50		 push	 eax
  00060	e8 00 00 00 00	 call	 _deflate@8
  00065	8b f0		 mov	 esi, eax

; 50   :     if (err != Z_STREAM_END) {

  00067	83 fe 01	 cmp	 esi, 1
  0006a	74 1e		 je	 SHORT $LN4@compress2

; 51   :         deflateEnd(&stream);

  0006c	8d 44 24 08	 lea	 eax, DWORD PTR _stream$[esp+64]
  00070	50		 push	 eax
  00071	e8 00 00 00 00	 call	 _deflateEnd@4

; 52   :         return err == Z_OK ? Z_BUF_ERROR : err;

  00076	b8 fb ff ff ff	 mov	 eax, -5			; fffffffbH
  0007b	85 f6		 test	 esi, esi
  0007d	0f 44 f0	 cmove	 esi, eax
  00080	8b c6		 mov	 eax, esi

; 57   :     return err;
; 58   : }

  00082	5f		 pop	 edi
  00083	5e		 pop	 esi
  00084	8b e5		 mov	 esp, ebp
  00086	5d		 pop	 ebp
  00087	c2 14 00	 ret	 20			; 00000014H
$LN4@compress2:

; 53   :     }
; 54   :     *destLen = stream.total_out;

  0008a	8b 44 24 1c	 mov	 eax, DWORD PTR _stream$[esp+84]
  0008e	89 07		 mov	 DWORD PTR [edi], eax

; 55   : 
; 56   :     err = deflateEnd(&stream);

  00090	8d 44 24 08	 lea	 eax, DWORD PTR _stream$[esp+64]
  00094	50		 push	 eax
  00095	e8 00 00 00 00	 call	 _deflateEnd@4
$LN1@compress2:

; 57   :     return err;
; 58   : }

  0009a	5f		 pop	 edi
  0009b	5e		 pop	 esi
  0009c	8b e5		 mov	 esp, ebp
  0009e	5d		 pop	 ebp
  0009f	c2 14 00	 ret	 20			; 00000014H
_compress2@20 ENDP
_TEXT	ENDS
; Function compile flags: /Ogtp
; File d:\downloads\tgl-master\tgl-master\zlib\compress.c
;	COMDAT _compress@16
_TEXT	SEGMENT
_dest$ = 8						; size = 4
_destLen$ = 12						; size = 4
_source$ = 16						; size = 4
_sourceLen$ = 20					; size = 4
_compress@16 PROC					; COMDAT

; 67   : {

  00000	55		 push	 ebp
  00001	8b ec		 mov	 ebp, esp

; 68   :     return compress2(dest, destLen, source, sourceLen, Z_DEFAULT_COMPRESSION);

  00003	6a ff		 push	 -1
  00005	ff 75 14	 push	 DWORD PTR _sourceLen$[ebp]
  00008	ff 75 10	 push	 DWORD PTR _source$[ebp]
  0000b	ff 75 0c	 push	 DWORD PTR _destLen$[ebp]
  0000e	ff 75 08	 push	 DWORD PTR _dest$[ebp]
  00011	e8 00 00 00 00	 call	 _compress2@20

; 69   : }

  00016	5d		 pop	 ebp
  00017	c2 10 00	 ret	 16			; 00000010H
_compress@16 ENDP
_TEXT	ENDS
; Function compile flags: /Ogtp
; File d:\downloads\tgl-master\tgl-master\zlib\compress.c
;	COMDAT _compressBound@4
_TEXT	SEGMENT
_sourceLen$ = 8						; size = 4
_compressBound@4 PROC					; COMDAT

; 77   : {

  00000	55		 push	 ebp
  00001	8b ec		 mov	 ebp, esp

; 78   :     return sourceLen + (sourceLen >> 12) + (sourceLen >> 14) +

  00003	8b 55 08	 mov	 edx, DWORD PTR _sourceLen$[ebp]
  00006	8b c2		 mov	 eax, edx
  00008	c1 e8 0e	 shr	 eax, 14			; 0000000eH
  0000b	8b ca		 mov	 ecx, edx
  0000d	03 c2		 add	 eax, edx
  0000f	c1 e9 19	 shr	 ecx, 25			; 00000019H
  00012	c1 ea 0c	 shr	 edx, 12			; 0000000cH
  00015	03 c1		 add	 eax, ecx
  00017	83 c2 0d	 add	 edx, 13			; 0000000dH
  0001a	03 c2		 add	 eax, edx

; 79   :            (sourceLen >> 25) + 13;
; 80   : }

  0001c	5d		 pop	 ebp
  0001d	c2 04 00	 ret	 4
_compressBound@4 ENDP
_TEXT	ENDS
END
