; Listing generated by Microsoft (R) Optimizing Compiler Version 19.00.23506.0 

	TITLE	d:\downloads\tgl-master\tgl-master\zlib\deflate.c
	.686P
	.XMM
	include listing.inc
	.model	flat

INCLUDELIB OLDNAMES

?my_version@?1??deflateInit2_@@9@9 DB '1.2.8', 00H	; `deflateInit2_'::`2'::my_version
	ORG $+2
_configuration_table DW 00H
	DW	00H
	DW	00H
	DW	00H
	DD	FLAT:_deflate_stored
	DW	04H
	DW	04H
	DW	08H
	DW	04H
	DD	FLAT:_deflate_fast
	DW	04H
	DW	05H
	DW	010H
	DW	08H
	DD	FLAT:_deflate_fast
	DW	04H
	DW	06H
	DW	020H
	DW	020H
	DD	FLAT:_deflate_fast
	DW	04H
	DW	04H
	DW	010H
	DW	010H
	DD	FLAT:_deflate_slow
	DW	08H
	DW	010H
	DW	020H
	DW	020H
	DD	FLAT:_deflate_slow
	DW	08H
	DW	010H
	DW	080H
	DW	080H
	DD	FLAT:_deflate_slow
	DW	08H
	DW	020H
	DW	080H
	DW	0100H
	DD	FLAT:_deflate_slow
	DW	020H
	DW	080H
	DW	0102H
	DW	0400H
	DD	FLAT:_deflate_slow
	DW	020H
	DW	0102H
	DW	0102H
	DW	01000H
	DD	FLAT:_deflate_slow
PUBLIC	_deflateCopy@8
PUBLIC	_deflateBound@8
PUBLIC	_deflateTune@20
PUBLIC	_deflateParams@12
PUBLIC	_deflatePrime@12
PUBLIC	_deflatePending@12
PUBLIC	_deflateSetHeader@8
PUBLIC	_deflateReset@4
PUBLIC	_deflateResetKeep@4
PUBLIC	_deflateSetDictionary@12
PUBLIC	_deflateInit2_@32
PUBLIC	_deflateInit_@16
PUBLIC	_deflateEnd@4
PUBLIC	_deflate@8
; Function compile flags: /Ogtp
; File d:\downloads\tgl-master\tgl-master\zlib\deflate.c
;	COMDAT _deflate@8
_TEXT	SEGMENT
_old_flush$1$ = -4					; size = 4
_val$1$ = 8						; size = 4
_val$1$ = 8						; size = 4
_beg$1$ = 8						; size = 4
_strm$ = 8						; size = 4
_flush$ = 12						; size = 4
_deflate@8 PROC						; COMDAT

; 668  : {

  00000	55		 push	 ebp
  00001	8b ec		 mov	 ebp, esp
  00003	51		 push	 ecx
  00004	56		 push	 esi
  00005	57		 push	 edi

; 669  :     int old_flush; /* value of flush param for previous deflate call */
; 670  :     deflate_state *s;
; 671  : 
; 672  :     if (strm == Z_NULL || strm->state == Z_NULL ||
; 673  :         flush > Z_BLOCK || flush < 0) {

  00006	8b 7d 08	 mov	 edi, DWORD PTR _strm$[ebp]
  00009	85 ff		 test	 edi, edi
  0000b	0f 84 46 08 00
	00		 je	 $LN11@deflate
  00011	8b 77 1c	 mov	 esi, DWORD PTR [edi+28]
  00014	85 f6		 test	 esi, esi
  00016	0f 84 3b 08 00
	00		 je	 $LN11@deflate
  0001c	8b 45 0c	 mov	 eax, DWORD PTR _flush$[ebp]
  0001f	83 f8 05	 cmp	 eax, 5
  00022	0f 87 2f 08 00
	00		 ja	 $LN11@deflate

; 674  :         return Z_STREAM_ERROR;
; 675  :     }
; 676  :     s = strm->state;
; 677  : 
; 678  :     if (strm->next_out == Z_NULL ||
; 679  :         (strm->next_in == Z_NULL && strm->avail_in != 0) ||

  00028	83 7f 0c 00	 cmp	 DWORD PTR [edi+12], 0
  0002c	0f 84 1d 08 00
	00		 je	 $LN13@deflate
  00032	83 3f 00	 cmp	 DWORD PTR [edi], 0
  00035	75 0a		 jne	 SHORT $LN14@deflate
  00037	83 7f 04 00	 cmp	 DWORD PTR [edi+4], 0
  0003b	0f 85 0e 08 00
	00		 jne	 $LN13@deflate
$LN14@deflate:
  00041	8b 4e 04	 mov	 ecx, DWORD PTR [esi+4]
  00044	81 f9 9a 02 00
	00		 cmp	 ecx, 666		; 0000029aH
  0004a	75 09		 jne	 SHORT $LN12@deflate
  0004c	83 f8 04	 cmp	 eax, 4
  0004f	0f 85 fa 07 00
	00		 jne	 $LN13@deflate
$LN12@deflate:

; 682  :     }
; 683  :     if (strm->avail_out == 0) ERR_RETURN(strm, Z_BUF_ERROR);

  00055	83 7f 10 00	 cmp	 DWORD PTR [edi+16], 0
  00059	75 15		 jne	 SHORT $LN15@deflate
  0005b	a1 1c 00 00 00	 mov	 eax, DWORD PTR _z_errmsg+28
  00060	89 47 18	 mov	 DWORD PTR [edi+24], eax
  00063	b8 fb ff ff ff	 mov	 eax, -5			; fffffffbH
  00068	5f		 pop	 edi
  00069	5e		 pop	 esi

; 976  : }

  0006a	8b e5		 mov	 esp, ebp
  0006c	5d		 pop	 ebp
  0006d	c2 08 00	 ret	 8
$LN15@deflate:

; 684  : 
; 685  :     s->strm = strm; /* just in case */
; 686  :     old_flush = s->last_flush;

  00070	8b 56 28	 mov	 edx, DWORD PTR [esi+40]
  00073	89 3e		 mov	 DWORD PTR [esi], edi
  00075	89 55 fc	 mov	 DWORD PTR _old_flush$1$[ebp], edx

; 687  :     s->last_flush = flush;

  00078	89 46 28	 mov	 DWORD PTR [esi+40], eax
  0007b	53		 push	 ebx

; 688  : 
; 689  :     /* Write the header */
; 690  :     if (s->status == INIT_STATE) {

  0007c	83 f9 2a	 cmp	 ecx, 42			; 0000002aH
  0007f	0f 85 95 02 00
	00		 jne	 $LN18@deflate

; 691  : #ifdef GZIP
; 692  :         if (s->wrap == 2) {

  00085	83 7e 18 02	 cmp	 DWORD PTR [esi+24], 2
  00089	0f 85 ef 01 00
	00		 jne	 $LN17@deflate

; 693  :             strm->adler = crc32(0L, Z_NULL, 0);

  0008f	6a 00		 push	 0
  00091	6a 00		 push	 0
  00093	6a 00		 push	 0
  00095	e8 00 00 00 00	 call	 _crc32@12
  0009a	89 47 30	 mov	 DWORD PTR [edi+48], eax

; 694  :             put_byte(s, 31);

  0009d	8b 46 14	 mov	 eax, DWORD PTR [esi+20]
  000a0	8b 4e 08	 mov	 ecx, DWORD PTR [esi+8]
  000a3	c6 04 01 1f	 mov	 BYTE PTR [ecx+eax], 31	; 0000001fH
  000a7	ff 46 14	 inc	 DWORD PTR [esi+20]
  000aa	8b 4e 14	 mov	 ecx, DWORD PTR [esi+20]

; 695  :             put_byte(s, 139);

  000ad	8b 46 08	 mov	 eax, DWORD PTR [esi+8]
  000b0	c6 04 01 8b	 mov	 BYTE PTR [ecx+eax], 139	; 0000008bH
  000b4	ff 46 14	 inc	 DWORD PTR [esi+20]
  000b7	8b 4e 14	 mov	 ecx, DWORD PTR [esi+20]

; 696  :             put_byte(s, 8);

  000ba	8b 46 08	 mov	 eax, DWORD PTR [esi+8]
  000bd	c6 04 01 08	 mov	 BYTE PTR [ecx+eax], 8
  000c1	ff 46 14	 inc	 DWORD PTR [esi+20]

; 697  :             if (s->gzhead == Z_NULL) {

  000c4	8b 56 1c	 mov	 edx, DWORD PTR [esi+28]
  000c7	8b 5e 14	 mov	 ebx, DWORD PTR [esi+20]
  000ca	85 d2		 test	 edx, edx
  000cc	0f 85 85 00 00
	00		 jne	 $LN19@deflate

; 698  :                 put_byte(s, 0);

  000d2	8b 46 08	 mov	 eax, DWORD PTR [esi+8]
  000d5	88 14 03	 mov	 BYTE PTR [ebx+eax], dl
  000d8	ff 46 14	 inc	 DWORD PTR [esi+20]
  000db	8b 4e 14	 mov	 ecx, DWORD PTR [esi+20]

; 699  :                 put_byte(s, 0);

  000de	8b 46 08	 mov	 eax, DWORD PTR [esi+8]
  000e1	88 14 01	 mov	 BYTE PTR [ecx+eax], dl
  000e4	ff 46 14	 inc	 DWORD PTR [esi+20]
  000e7	8b 4e 14	 mov	 ecx, DWORD PTR [esi+20]

; 700  :                 put_byte(s, 0);

  000ea	8b 46 08	 mov	 eax, DWORD PTR [esi+8]
  000ed	88 14 01	 mov	 BYTE PTR [ecx+eax], dl
  000f0	ff 46 14	 inc	 DWORD PTR [esi+20]
  000f3	8b 4e 14	 mov	 ecx, DWORD PTR [esi+20]

; 701  :                 put_byte(s, 0);

  000f6	8b 46 08	 mov	 eax, DWORD PTR [esi+8]
  000f9	88 14 01	 mov	 BYTE PTR [ecx+eax], dl
  000fc	ff 46 14	 inc	 DWORD PTR [esi+20]
  000ff	8b 4e 14	 mov	 ecx, DWORD PTR [esi+20]

; 702  :                 put_byte(s, 0);

  00102	8b 46 08	 mov	 eax, DWORD PTR [esi+8]
  00105	88 14 01	 mov	 BYTE PTR [ecx+eax], dl
  00108	ff 46 14	 inc	 DWORD PTR [esi+20]

; 703  :                 put_byte(s, s->level == 9 ? 2 :

  0010b	8b 86 84 00 00
	00		 mov	 eax, DWORD PTR [esi+132]
  00111	8b 56 14	 mov	 edx, DWORD PTR [esi+20]
  00114	83 f8 09	 cmp	 eax, 9
  00117	75 05		 jne	 SHORT $LN88@deflate
  00119	8d 48 f9	 lea	 ecx, DWORD PTR [eax-7]
  0011c	eb 17		 jmp	 SHORT $LN87@deflate
$LN88@deflate:
  0011e	83 be 88 00 00
	00 02		 cmp	 DWORD PTR [esi+136], 2
  00125	7d 09		 jge	 SHORT $LN86@deflate
  00127	83 f8 02	 cmp	 eax, 2
  0012a	7c 04		 jl	 SHORT $LN86@deflate
  0012c	33 c9		 xor	 ecx, ecx
  0012e	eb 05		 jmp	 SHORT $LN87@deflate
$LN86@deflate:
  00130	b9 04 00 00 00	 mov	 ecx, 4
$LN87@deflate:
  00135	8b 46 08	 mov	 eax, DWORD PTR [esi+8]
  00138	88 0c 02	 mov	 BYTE PTR [edx+eax], cl
  0013b	ff 46 14	 inc	 DWORD PTR [esi+20]
  0013e	8b 4e 14	 mov	 ecx, DWORD PTR [esi+20]

; 704  :                             (s->strategy >= Z_HUFFMAN_ONLY || s->level < 2 ?
; 705  :                              4 : 0));
; 706  :                 put_byte(s, OS_CODE);

  00141	8b 46 08	 mov	 eax, DWORD PTR [esi+8]
  00144	c6 04 01 0b	 mov	 BYTE PTR [ecx+eax], 11	; 0000000bH
  00148	ff 46 14	 inc	 DWORD PTR [esi+20]

; 707  :                 s->status = BUSY_STATE;

  0014b	c7 46 04 71 00
	00 00		 mov	 DWORD PTR [esi+4], 113	; 00000071H

; 708  :             }

  00152	e9 c3 01 00 00	 jmp	 $LN18@deflate
$LN19@deflate:

; 709  :             else {
; 710  :                 put_byte(s, (s->gzhead->text ? 1 : 0) +

  00157	8b 4a 24	 mov	 ecx, DWORD PTR [edx+36]
  0015a	8b 42 2c	 mov	 eax, DWORD PTR [edx+44]
  0015d	f7 d9		 neg	 ecx
  0015f	1a c9		 sbb	 cl, cl
  00161	80 e1 10	 and	 cl, 16			; 00000010H
  00164	f7 d8		 neg	 eax
  00166	1a c0		 sbb	 al, al
  00168	24 02		 and	 al, 2
  0016a	02 c8		 add	 cl, al
  0016c	8b 42 1c	 mov	 eax, DWORD PTR [edx+28]
  0016f	f7 d8		 neg	 eax
  00171	1a c0		 sbb	 al, al
  00173	24 08		 and	 al, 8
  00175	02 c8		 add	 cl, al
  00177	8b 42 10	 mov	 eax, DWORD PTR [edx+16]
  0017a	f7 d8		 neg	 eax
  0017c	1a c0		 sbb	 al, al
  0017e	24 04		 and	 al, 4
  00180	02 c8		 add	 cl, al
  00182	83 3a 00	 cmp	 DWORD PTR [edx], 0
  00185	0f 95 c0	 setne	 al
  00188	02 c8		 add	 cl, al
  0018a	8b 46 08	 mov	 eax, DWORD PTR [esi+8]
  0018d	88 0c 03	 mov	 BYTE PTR [ebx+eax], cl
  00190	ff 46 14	 inc	 DWORD PTR [esi+20]
  00193	8b 56 14	 mov	 edx, DWORD PTR [esi+20]

; 711  :                             (s->gzhead->hcrc ? 2 : 0) +
; 712  :                             (s->gzhead->extra == Z_NULL ? 0 : 4) +
; 713  :                             (s->gzhead->name == Z_NULL ? 0 : 8) +
; 714  :                             (s->gzhead->comment == Z_NULL ? 0 : 16)
; 715  :                         );
; 716  :                 put_byte(s, (Byte)(s->gzhead->time & 0xff));

  00196	8b 46 1c	 mov	 eax, DWORD PTR [esi+28]
  00199	8b 4e 08	 mov	 ecx, DWORD PTR [esi+8]
  0019c	0f b6 40 04	 movzx	 eax, BYTE PTR [eax+4]
  001a0	88 04 0a	 mov	 BYTE PTR [edx+ecx], al
  001a3	ff 46 14	 inc	 DWORD PTR [esi+20]
  001a6	8b 56 14	 mov	 edx, DWORD PTR [esi+20]

; 717  :                 put_byte(s, (Byte)((s->gzhead->time >> 8) & 0xff));

  001a9	8b 46 1c	 mov	 eax, DWORD PTR [esi+28]
  001ac	8b 4e 08	 mov	 ecx, DWORD PTR [esi+8]
  001af	0f b6 40 05	 movzx	 eax, BYTE PTR [eax+5]
  001b3	88 04 0a	 mov	 BYTE PTR [edx+ecx], al
  001b6	ff 46 14	 inc	 DWORD PTR [esi+20]
  001b9	8b 56 14	 mov	 edx, DWORD PTR [esi+20]

; 718  :                 put_byte(s, (Byte)((s->gzhead->time >> 16) & 0xff));

  001bc	8b 46 1c	 mov	 eax, DWORD PTR [esi+28]
  001bf	8b 4e 08	 mov	 ecx, DWORD PTR [esi+8]
  001c2	0f b6 40 06	 movzx	 eax, BYTE PTR [eax+6]
  001c6	88 04 0a	 mov	 BYTE PTR [edx+ecx], al
  001c9	ff 46 14	 inc	 DWORD PTR [esi+20]

; 719  :                 put_byte(s, (Byte)((s->gzhead->time >> 24) & 0xff));

  001cc	8b 46 1c	 mov	 eax, DWORD PTR [esi+28]
  001cf	8b 56 14	 mov	 edx, DWORD PTR [esi+20]
  001d2	8b 4e 08	 mov	 ecx, DWORD PTR [esi+8]
  001d5	0f b6 40 07	 movzx	 eax, BYTE PTR [eax+7]
  001d9	88 04 0a	 mov	 BYTE PTR [edx+ecx], al
  001dc	ff 46 14	 inc	 DWORD PTR [esi+20]

; 720  :                 put_byte(s, s->level == 9 ? 2 :

  001df	8b 86 84 00 00
	00		 mov	 eax, DWORD PTR [esi+132]
  001e5	8b 56 14	 mov	 edx, DWORD PTR [esi+20]
  001e8	83 f8 09	 cmp	 eax, 9
  001eb	75 05		 jne	 SHORT $LN92@deflate
  001ed	8d 48 f9	 lea	 ecx, DWORD PTR [eax-7]
  001f0	eb 17		 jmp	 SHORT $LN91@deflate
$LN92@deflate:
  001f2	83 be 88 00 00
	00 02		 cmp	 DWORD PTR [esi+136], 2
  001f9	7d 09		 jge	 SHORT $LN90@deflate
  001fb	83 f8 02	 cmp	 eax, 2
  001fe	7c 04		 jl	 SHORT $LN90@deflate
  00200	33 c9		 xor	 ecx, ecx
  00202	eb 05		 jmp	 SHORT $LN91@deflate
$LN90@deflate:
  00204	b9 04 00 00 00	 mov	 ecx, 4
$LN91@deflate:
  00209	8b 46 08	 mov	 eax, DWORD PTR [esi+8]
  0020c	88 0c 02	 mov	 BYTE PTR [edx+eax], cl
  0020f	ff 46 14	 inc	 DWORD PTR [esi+20]

; 721  :                             (s->strategy >= Z_HUFFMAN_ONLY || s->level < 2 ?
; 722  :                              4 : 0));
; 723  :                 put_byte(s, s->gzhead->os & 0xff);

  00212	8b 46 1c	 mov	 eax, DWORD PTR [esi+28]
  00215	8b 56 14	 mov	 edx, DWORD PTR [esi+20]
  00218	8b 4e 08	 mov	 ecx, DWORD PTR [esi+8]
  0021b	8a 40 0c	 mov	 al, BYTE PTR [eax+12]
  0021e	88 04 0a	 mov	 BYTE PTR [edx+ecx], al

; 724  :                 if (s->gzhead->extra != Z_NULL) {

  00221	8b 46 1c	 mov	 eax, DWORD PTR [esi+28]
  00224	ff 46 14	 inc	 DWORD PTR [esi+20]
  00227	8b 56 14	 mov	 edx, DWORD PTR [esi+20]
  0022a	83 78 10 00	 cmp	 DWORD PTR [eax+16], 0
  0022e	74 23		 je	 SHORT $LN21@deflate

; 725  :                     put_byte(s, s->gzhead->extra_len & 0xff);

  00230	8b 4e 08	 mov	 ecx, DWORD PTR [esi+8]
  00233	0f b6 40 14	 movzx	 eax, BYTE PTR [eax+20]
  00237	88 04 0a	 mov	 BYTE PTR [edx+ecx], al
  0023a	ff 46 14	 inc	 DWORD PTR [esi+20]

; 726  :                     put_byte(s, (s->gzhead->extra_len >> 8) & 0xff);

  0023d	8b 46 1c	 mov	 eax, DWORD PTR [esi+28]
  00240	8b 56 14	 mov	 edx, DWORD PTR [esi+20]
  00243	8b 4e 08	 mov	 ecx, DWORD PTR [esi+8]
  00246	0f b6 40 15	 movzx	 eax, BYTE PTR [eax+21]
  0024a	88 04 0a	 mov	 BYTE PTR [edx+ecx], al
  0024d	ff 46 14	 inc	 DWORD PTR [esi+20]
  00250	8b 56 14	 mov	 edx, DWORD PTR [esi+20]
$LN21@deflate:

; 727  :                 }
; 728  :                 if (s->gzhead->hcrc)

  00253	8b 46 1c	 mov	 eax, DWORD PTR [esi+28]
  00256	83 78 2c 00	 cmp	 DWORD PTR [eax+44], 0
  0025a	74 0f		 je	 SHORT $LN22@deflate

; 729  :                     strm->adler = crc32(strm->adler, s->pending_buf,

  0025c	52		 push	 edx
  0025d	ff 76 08	 push	 DWORD PTR [esi+8]
  00260	ff 77 30	 push	 DWORD PTR [edi+48]
  00263	e8 00 00 00 00	 call	 _crc32@12
  00268	89 47 30	 mov	 DWORD PTR [edi+48], eax
$LN22@deflate:

; 730  :                                         s->pending);
; 731  :                 s->gzindex = 0;

  0026b	c7 46 20 00 00
	00 00		 mov	 DWORD PTR [esi+32], 0

; 732  :                 s->status = EXTRA_STATE;

  00272	c7 46 04 45 00
	00 00		 mov	 DWORD PTR [esi+4], 69	; 00000045H

; 733  :             }
; 734  :         }

  00279	e9 9c 00 00 00	 jmp	 $LN18@deflate
$LN17@deflate:

; 735  :         else
; 736  : #endif
; 737  :         {
; 738  :             uInt header = (Z_DEFLATED + ((s->w_bits-8)<<4)) << 8;

  0027e	8b 4e 30	 mov	 ecx, DWORD PTR [esi+48]
  00281	83 e9 08	 sub	 ecx, 8
  00284	c1 e1 0c	 shl	 ecx, 12			; 0000000cH
  00287	81 c1 00 08 00
	00		 add	 ecx, 2048		; 00000800H

; 739  :             uInt level_flags;
; 740  : 
; 741  :             if (s->strategy >= Z_HUFFMAN_ONLY || s->level < 2)

  0028d	83 be 88 00 00
	00 02		 cmp	 DWORD PTR [esi+136], 2
  00294	7d 24		 jge	 SHORT $LN25@deflate
  00296	8b 96 84 00 00
	00		 mov	 edx, DWORD PTR [esi+132]
  0029c	83 fa 02	 cmp	 edx, 2
  0029f	7c 19		 jl	 SHORT $LN25@deflate

; 743  :             else if (s->level < 6)

  002a1	83 fa 06	 cmp	 edx, 6
  002a4	7d 07		 jge	 SHORT $LN26@deflate

; 744  :                 level_flags = 1;

  002a6	b8 01 00 00 00	 mov	 eax, 1
  002ab	eb 0f		 jmp	 SHORT $LN29@deflate
$LN26@deflate:

; 745  :             else if (s->level == 6)

  002ad	33 c0		 xor	 eax, eax
  002af	83 fa 06	 cmp	 edx, 6
  002b2	0f 95 c0	 setne	 al
  002b5	83 c0 02	 add	 eax, 2

; 746  :                 level_flags = 2;
; 747  :             else
; 748  :                 level_flags = 3;

  002b8	eb 02		 jmp	 SHORT $LN29@deflate
$LN25@deflate:

; 742  :                 level_flags = 0;

  002ba	33 c0		 xor	 eax, eax
$LN29@deflate:

; 749  :             header |= (level_flags << 6);

  002bc	c1 e0 06	 shl	 eax, 6
  002bf	0b c8		 or	 ecx, eax

; 750  :             if (s->strstart != 0) header |= PRESET_DICT;

  002c1	83 7e 6c 00	 cmp	 DWORD PTR [esi+108], 0
  002c5	74 03		 je	 SHORT $LN30@deflate
  002c7	83 c9 20	 or	 ecx, 32			; 00000020H
$LN30@deflate:

; 751  :             header += 31 - (header % 31);

  002ca	b8 85 10 42 08	 mov	 eax, 138547333		; 08421085H

; 752  : 
; 753  :             s->status = BUSY_STATE;

  002cf	c7 46 04 71 00
	00 00		 mov	 DWORD PTR [esi+4], 113	; 00000071H
  002d6	f7 e1		 mul	 ecx
  002d8	2b ca		 sub	 ecx, edx
  002da	d1 e9		 shr	 ecx, 1
  002dc	03 ca		 add	 ecx, edx
  002de	c1 e9 04	 shr	 ecx, 4

; 754  :             putShortMSB(s, header);

  002e1	41		 inc	 ecx
  002e2	8b d1		 mov	 edx, ecx
  002e4	c1 e2 05	 shl	 edx, 5
  002e7	2b d1		 sub	 edx, ecx
  002e9	8b ce		 mov	 ecx, esi
  002eb	e8 00 00 00 00	 call	 _putShortMSB

; 755  : 
; 756  :             /* Save the adler32 of the preset dictionary: */
; 757  :             if (s->strstart != 0) {

  002f0	83 7e 6c 00	 cmp	 DWORD PTR [esi+108], 0
  002f4	74 16		 je	 SHORT $LN31@deflate

; 758  :                 putShortMSB(s, (uInt)(strm->adler >> 16));

  002f6	0f b7 57 32	 movzx	 edx, WORD PTR [edi+50]
  002fa	8b ce		 mov	 ecx, esi
  002fc	e8 00 00 00 00	 call	 _putShortMSB

; 759  :                 putShortMSB(s, (uInt)(strm->adler & 0xffff));

  00301	0f b7 57 30	 movzx	 edx, WORD PTR [edi+48]
  00305	8b ce		 mov	 ecx, esi
  00307	e8 00 00 00 00	 call	 _putShortMSB
$LN31@deflate:

; 760  :             }
; 761  :             strm->adler = adler32(0L, Z_NULL, 0);

  0030c	6a 00		 push	 0
  0030e	6a 00		 push	 0
  00310	6a 00		 push	 0
  00312	e8 00 00 00 00	 call	 _adler32@12
  00317	89 47 30	 mov	 DWORD PTR [edi+48], eax
$LN18@deflate:

; 762  :         }
; 763  :     }
; 764  : #ifdef GZIP
; 765  :     if (s->status == EXTRA_STATE) {

  0031a	83 7e 04 45	 cmp	 DWORD PTR [esi+4], 69	; 00000045H
  0031e	0f 85 bd 00 00
	00		 jne	 $LN34@deflate

; 766  :         if (s->gzhead->extra != Z_NULL) {

  00324	8b 46 1c	 mov	 eax, DWORD PTR [esi+28]
  00327	83 78 10 00	 cmp	 DWORD PTR [eax+16], 0
  0032b	0f 84 a9 00 00
	00		 je	 $LN33@deflate

; 767  :             uInt beg = s->pending;  /* start of bytes to update crc */
; 768  : 
; 769  :             while (s->gzindex < (s->gzhead->extra_len & 0xffff)) {

  00331	0f b7 40 14	 movzx	 eax, WORD PTR [eax+20]
  00335	8b 4e 14	 mov	 ecx, DWORD PTR [esi+20]
  00338	89 4d 08	 mov	 DWORD PTR _beg$1$[ebp], ecx
  0033b	39 46 20	 cmp	 DWORD PTR [esi+32], eax
  0033e	73 64		 jae	 SHORT $LN111@deflate
$LL2@deflate:

; 770  :                 if (s->pending == s->pending_buf_size) {

  00340	8b 5e 14	 mov	 ebx, DWORD PTR [esi+20]
  00343	3b 5e 0c	 cmp	 ebx, DWORD PTR [esi+12]
  00346	75 35		 jne	 SHORT $LN37@deflate

; 771  :                     if (s->gzhead->hcrc && s->pending > beg)

  00348	8b 46 1c	 mov	 eax, DWORD PTR [esi+28]
  0034b	83 78 2c 00	 cmp	 DWORD PTR [eax+44], 0
  0034f	74 18		 je	 SHORT $LN36@deflate
  00351	3b d9		 cmp	 ebx, ecx
  00353	76 14		 jbe	 SHORT $LN36@deflate

; 772  :                         strm->adler = crc32(strm->adler, s->pending_buf + beg,

  00355	8b 46 08	 mov	 eax, DWORD PTR [esi+8]
  00358	2b d9		 sub	 ebx, ecx
  0035a	53		 push	 ebx
  0035b	03 c1		 add	 eax, ecx
  0035d	50		 push	 eax
  0035e	ff 77 30	 push	 DWORD PTR [edi+48]
  00361	e8 00 00 00 00	 call	 _crc32@12
  00366	89 47 30	 mov	 DWORD PTR [edi+48], eax
$LN36@deflate:

; 773  :                                             s->pending - beg);
; 774  :                     flush_pending(strm);

  00369	8b cf		 mov	 ecx, edi
  0036b	e8 00 00 00 00	 call	 _flush_pending

; 775  :                     beg = s->pending;

  00370	8b 5e 14	 mov	 ebx, DWORD PTR [esi+20]
  00373	8b cb		 mov	 ecx, ebx
  00375	89 4d 08	 mov	 DWORD PTR _beg$1$[ebp], ecx

; 776  :                     if (s->pending == s->pending_buf_size)

  00378	3b 5e 0c	 cmp	 ebx, DWORD PTR [esi+12]
  0037b	74 27		 je	 SHORT $LN111@deflate
$LN37@deflate:

; 777  :                         break;
; 778  :                 }
; 779  :                 put_byte(s, s->gzhead->extra[s->gzindex]);

  0037d	8b 46 1c	 mov	 eax, DWORD PTR [esi+28]
  00380	8b 4e 08	 mov	 ecx, DWORD PTR [esi+8]
  00383	8b 50 10	 mov	 edx, DWORD PTR [eax+16]
  00386	8b 46 20	 mov	 eax, DWORD PTR [esi+32]
  00389	8a 04 02	 mov	 al, BYTE PTR [edx+eax]
  0038c	88 04 0b	 mov	 BYTE PTR [ebx+ecx], al
  0038f	ff 46 14	 inc	 DWORD PTR [esi+20]

; 780  :                 s->gzindex++;

  00392	ff 46 20	 inc	 DWORD PTR [esi+32]
  00395	8b 46 1c	 mov	 eax, DWORD PTR [esi+28]
  00398	8b 4d 08	 mov	 ecx, DWORD PTR _beg$1$[ebp]
  0039b	0f b7 40 14	 movzx	 eax, WORD PTR [eax+20]
  0039f	39 46 20	 cmp	 DWORD PTR [esi+32], eax
  003a2	72 9c		 jb	 SHORT $LL2@deflate
$LN111@deflate:

; 781  :             }
; 782  :             if (s->gzhead->hcrc && s->pending > beg)

  003a4	8b 46 1c	 mov	 eax, DWORD PTR [esi+28]
  003a7	83 78 2c 00	 cmp	 DWORD PTR [eax+44], 0
  003ab	74 1b		 je	 SHORT $LN38@deflate
  003ad	8b 46 14	 mov	 eax, DWORD PTR [esi+20]
  003b0	3b c1		 cmp	 eax, ecx
  003b2	76 14		 jbe	 SHORT $LN38@deflate

; 783  :                 strm->adler = crc32(strm->adler, s->pending_buf + beg,

  003b4	2b c1		 sub	 eax, ecx
  003b6	50		 push	 eax
  003b7	8b 46 08	 mov	 eax, DWORD PTR [esi+8]
  003ba	03 c1		 add	 eax, ecx
  003bc	50		 push	 eax
  003bd	ff 77 30	 push	 DWORD PTR [edi+48]
  003c0	e8 00 00 00 00	 call	 _crc32@12
  003c5	89 47 30	 mov	 DWORD PTR [edi+48], eax
$LN38@deflate:

; 784  :                                     s->pending - beg);
; 785  :             if (s->gzindex == s->gzhead->extra_len) {

  003c8	8b 4e 1c	 mov	 ecx, DWORD PTR [esi+28]
  003cb	8b 46 20	 mov	 eax, DWORD PTR [esi+32]
  003ce	3b 41 14	 cmp	 eax, DWORD PTR [ecx+20]
  003d1	75 0e		 jne	 SHORT $LN34@deflate

; 786  :                 s->gzindex = 0;

  003d3	c7 46 20 00 00
	00 00		 mov	 DWORD PTR [esi+32], 0
$LN33@deflate:

; 787  :                 s->status = NAME_STATE;
; 788  :             }
; 789  :         }
; 790  :         else
; 791  :             s->status = NAME_STATE;

  003da	c7 46 04 49 00
	00 00		 mov	 DWORD PTR [esi+4], 73	; 00000049H
$LN34@deflate:

; 792  :     }
; 793  :     if (s->status == NAME_STATE) {

  003e1	83 7e 04 49	 cmp	 DWORD PTR [esi+4], 73	; 00000049H
  003e5	0f 85 b6 00 00
	00		 jne	 $LN42@deflate

; 794  :         if (s->gzhead->name != Z_NULL) {

  003eb	8b 46 1c	 mov	 eax, DWORD PTR [esi+28]
  003ee	83 78 1c 00	 cmp	 DWORD PTR [eax+28], 0
  003f2	0f 84 a2 00 00
	00		 je	 $LN41@deflate

; 795  :             uInt beg = s->pending;  /* start of bytes to update crc */

  003f8	8b 5e 14	 mov	 ebx, DWORD PTR [esi+20]
  003fb	0f 1f 44 00 00	 npad	 5
$LL6@deflate:

; 796  :             int val;
; 797  : 
; 798  :             do {
; 799  :                 if (s->pending == s->pending_buf_size) {

  00400	8b 56 14	 mov	 edx, DWORD PTR [esi+20]
  00403	3b 56 0c	 cmp	 edx, DWORD PTR [esi+12]
  00406	75 32		 jne	 SHORT $LN45@deflate

; 800  :                     if (s->gzhead->hcrc && s->pending > beg)

  00408	8b 46 1c	 mov	 eax, DWORD PTR [esi+28]
  0040b	83 78 2c 00	 cmp	 DWORD PTR [eax+44], 0
  0040f	74 18		 je	 SHORT $LN44@deflate
  00411	3b d3		 cmp	 edx, ebx
  00413	76 14		 jbe	 SHORT $LN44@deflate

; 801  :                         strm->adler = crc32(strm->adler, s->pending_buf + beg,

  00415	8b 46 08	 mov	 eax, DWORD PTR [esi+8]
  00418	2b d3		 sub	 edx, ebx
  0041a	52		 push	 edx
  0041b	03 c3		 add	 eax, ebx
  0041d	50		 push	 eax
  0041e	ff 77 30	 push	 DWORD PTR [edi+48]
  00421	e8 00 00 00 00	 call	 _crc32@12
  00426	89 47 30	 mov	 DWORD PTR [edi+48], eax
$LN44@deflate:

; 802  :                                             s->pending - beg);
; 803  :                     flush_pending(strm);

  00429	8b cf		 mov	 ecx, edi
  0042b	e8 00 00 00 00	 call	 _flush_pending

; 804  :                     beg = s->pending;

  00430	8b 56 14	 mov	 edx, DWORD PTR [esi+20]
  00433	8b da		 mov	 ebx, edx

; 805  :                     if (s->pending == s->pending_buf_size) {

  00435	3b 56 0c	 cmp	 edx, DWORD PTR [esi+12]
  00438	74 28		 je	 SHORT $LN102@deflate
$LN45@deflate:

; 807  :                         break;
; 808  :                     }
; 809  :                 }
; 810  :                 val = s->gzhead->name[s->gzindex++];

  0043a	8b 46 1c	 mov	 eax, DWORD PTR [esi+28]
  0043d	8b 4e 20	 mov	 ecx, DWORD PTR [esi+32]
  00440	8b 40 1c	 mov	 eax, DWORD PTR [eax+28]
  00443	0f b6 04 08	 movzx	 eax, BYTE PTR [eax+ecx]
  00447	89 45 08	 mov	 DWORD PTR _val$1$[ebp], eax
  0044a	8d 41 01	 lea	 eax, DWORD PTR [ecx+1]

; 811  :                 put_byte(s, val);

  0044d	8b 4d 08	 mov	 ecx, DWORD PTR _val$1$[ebp]
  00450	89 46 20	 mov	 DWORD PTR [esi+32], eax
  00453	8b 46 08	 mov	 eax, DWORD PTR [esi+8]
  00456	88 0c 02	 mov	 BYTE PTR [edx+eax], cl
  00459	ff 46 14	 inc	 DWORD PTR [esi+20]

; 812  :             } while (val != 0);

  0045c	85 c9		 test	 ecx, ecx
  0045e	75 a0		 jne	 SHORT $LL6@deflate
  00460	eb 07		 jmp	 SHORT $LN5@deflate
$LN102@deflate:

; 806  :                         val = 1;

  00462	c7 45 08 01 00
	00 00		 mov	 DWORD PTR _val$1$[ebp], 1
$LN5@deflate:

; 813  :             if (s->gzhead->hcrc && s->pending > beg)

  00469	8b 46 1c	 mov	 eax, DWORD PTR [esi+28]
  0046c	83 78 2c 00	 cmp	 DWORD PTR [eax+44], 0
  00470	74 1b		 je	 SHORT $LN46@deflate
  00472	8b 46 14	 mov	 eax, DWORD PTR [esi+20]
  00475	3b c3		 cmp	 eax, ebx
  00477	76 14		 jbe	 SHORT $LN46@deflate

; 814  :                 strm->adler = crc32(strm->adler, s->pending_buf + beg,

  00479	2b c3		 sub	 eax, ebx
  0047b	50		 push	 eax
  0047c	8b 46 08	 mov	 eax, DWORD PTR [esi+8]
  0047f	03 c3		 add	 eax, ebx
  00481	50		 push	 eax
  00482	ff 77 30	 push	 DWORD PTR [edi+48]
  00485	e8 00 00 00 00	 call	 _crc32@12
  0048a	89 47 30	 mov	 DWORD PTR [edi+48], eax
$LN46@deflate:

; 815  :                                     s->pending - beg);
; 816  :             if (val == 0) {

  0048d	83 7d 08 00	 cmp	 DWORD PTR _val$1$[ebp], 0
  00491	75 0e		 jne	 SHORT $LN42@deflate

; 817  :                 s->gzindex = 0;

  00493	c7 46 20 00 00
	00 00		 mov	 DWORD PTR [esi+32], 0
$LN41@deflate:

; 818  :                 s->status = COMMENT_STATE;
; 819  :             }
; 820  :         }
; 821  :         else
; 822  :             s->status = COMMENT_STATE;

  0049a	c7 46 04 5b 00
	00 00		 mov	 DWORD PTR [esi+4], 91	; 0000005bH
$LN42@deflate:

; 823  :     }
; 824  :     if (s->status == COMMENT_STATE) {

  004a1	83 7e 04 5b	 cmp	 DWORD PTR [esi+4], 91	; 0000005bH
  004a5	0f 85 af 00 00
	00		 jne	 $LN50@deflate

; 825  :         if (s->gzhead->comment != Z_NULL) {

  004ab	8b 46 1c	 mov	 eax, DWORD PTR [esi+28]
  004ae	83 78 24 00	 cmp	 DWORD PTR [eax+36], 0
  004b2	0f 84 9b 00 00
	00		 je	 $LN49@deflate

; 826  :             uInt beg = s->pending;  /* start of bytes to update crc */

  004b8	8b 5e 14	 mov	 ebx, DWORD PTR [esi+20]
  004bb	0f 1f 44 00 00	 npad	 5
$LL9@deflate:

; 827  :             int val;
; 828  : 
; 829  :             do {
; 830  :                 if (s->pending == s->pending_buf_size) {

  004c0	8b 56 14	 mov	 edx, DWORD PTR [esi+20]
  004c3	3b 56 0c	 cmp	 edx, DWORD PTR [esi+12]
  004c6	75 32		 jne	 SHORT $LN53@deflate

; 831  :                     if (s->gzhead->hcrc && s->pending > beg)

  004c8	8b 46 1c	 mov	 eax, DWORD PTR [esi+28]
  004cb	83 78 2c 00	 cmp	 DWORD PTR [eax+44], 0
  004cf	74 18		 je	 SHORT $LN52@deflate
  004d1	3b d3		 cmp	 edx, ebx
  004d3	76 14		 jbe	 SHORT $LN52@deflate

; 832  :                         strm->adler = crc32(strm->adler, s->pending_buf + beg,

  004d5	8b 46 08	 mov	 eax, DWORD PTR [esi+8]
  004d8	2b d3		 sub	 edx, ebx
  004da	52		 push	 edx
  004db	03 c3		 add	 eax, ebx
  004dd	50		 push	 eax
  004de	ff 77 30	 push	 DWORD PTR [edi+48]
  004e1	e8 00 00 00 00	 call	 _crc32@12
  004e6	89 47 30	 mov	 DWORD PTR [edi+48], eax
$LN52@deflate:

; 833  :                                             s->pending - beg);
; 834  :                     flush_pending(strm);

  004e9	8b cf		 mov	 ecx, edi
  004eb	e8 00 00 00 00	 call	 _flush_pending

; 835  :                     beg = s->pending;

  004f0	8b 56 14	 mov	 edx, DWORD PTR [esi+20]
  004f3	8b da		 mov	 ebx, edx

; 836  :                     if (s->pending == s->pending_buf_size) {

  004f5	3b 56 0c	 cmp	 edx, DWORD PTR [esi+12]
  004f8	74 28		 je	 SHORT $LN103@deflate
$LN53@deflate:

; 838  :                         break;
; 839  :                     }
; 840  :                 }
; 841  :                 val = s->gzhead->comment[s->gzindex++];

  004fa	8b 46 1c	 mov	 eax, DWORD PTR [esi+28]
  004fd	8b 4e 20	 mov	 ecx, DWORD PTR [esi+32]
  00500	8b 40 24	 mov	 eax, DWORD PTR [eax+36]
  00503	0f b6 04 08	 movzx	 eax, BYTE PTR [eax+ecx]
  00507	89 45 08	 mov	 DWORD PTR _val$1$[ebp], eax
  0050a	8d 41 01	 lea	 eax, DWORD PTR [ecx+1]

; 842  :                 put_byte(s, val);

  0050d	8b 4d 08	 mov	 ecx, DWORD PTR _val$1$[ebp]
  00510	89 46 20	 mov	 DWORD PTR [esi+32], eax
  00513	8b 46 08	 mov	 eax, DWORD PTR [esi+8]
  00516	88 0c 02	 mov	 BYTE PTR [edx+eax], cl
  00519	ff 46 14	 inc	 DWORD PTR [esi+20]

; 843  :             } while (val != 0);

  0051c	85 c9		 test	 ecx, ecx
  0051e	75 a0		 jne	 SHORT $LL9@deflate
  00520	eb 07		 jmp	 SHORT $LN8@deflate
$LN103@deflate:

; 837  :                         val = 1;

  00522	c7 45 08 01 00
	00 00		 mov	 DWORD PTR _val$1$[ebp], 1
$LN8@deflate:

; 844  :             if (s->gzhead->hcrc && s->pending > beg)

  00529	8b 46 1c	 mov	 eax, DWORD PTR [esi+28]
  0052c	83 78 2c 00	 cmp	 DWORD PTR [eax+44], 0
  00530	74 1b		 je	 SHORT $LN54@deflate
  00532	8b 46 14	 mov	 eax, DWORD PTR [esi+20]
  00535	3b c3		 cmp	 eax, ebx
  00537	76 14		 jbe	 SHORT $LN54@deflate

; 845  :                 strm->adler = crc32(strm->adler, s->pending_buf + beg,

  00539	2b c3		 sub	 eax, ebx
  0053b	50		 push	 eax
  0053c	8b 46 08	 mov	 eax, DWORD PTR [esi+8]
  0053f	03 c3		 add	 eax, ebx
  00541	50		 push	 eax
  00542	ff 77 30	 push	 DWORD PTR [edi+48]
  00545	e8 00 00 00 00	 call	 _crc32@12
  0054a	89 47 30	 mov	 DWORD PTR [edi+48], eax
$LN54@deflate:

; 846  :                                     s->pending - beg);
; 847  :             if (val == 0)

  0054d	83 7d 08 00	 cmp	 DWORD PTR _val$1$[ebp], 0
  00551	75 07		 jne	 SHORT $LN50@deflate
$LN49@deflate:

; 848  :                 s->status = HCRC_STATE;
; 849  :         }
; 850  :         else
; 851  :             s->status = HCRC_STATE;

  00553	c7 46 04 67 00
	00 00		 mov	 DWORD PTR [esi+4], 103	; 00000067H
$LN50@deflate:

; 852  :     }
; 853  :     if (s->status == HCRC_STATE) {

  0055a	83 7e 04 67	 cmp	 DWORD PTR [esi+4], 103	; 00000067H
  0055e	75 58		 jne	 SHORT $LN58@deflate

; 854  :         if (s->gzhead->hcrc) {

  00560	8b 46 1c	 mov	 eax, DWORD PTR [esi+28]
  00563	83 78 2c 00	 cmp	 DWORD PTR [eax+44], 0
  00567	74 48		 je	 SHORT $LN57@deflate

; 855  :             if (s->pending + 2 > s->pending_buf_size)

  00569	8b 46 14	 mov	 eax, DWORD PTR [esi+20]
  0056c	83 c0 02	 add	 eax, 2
  0056f	3b 46 0c	 cmp	 eax, DWORD PTR [esi+12]
  00572	76 07		 jbe	 SHORT $LN59@deflate

; 856  :                 flush_pending(strm);

  00574	8b cf		 mov	 ecx, edi
  00576	e8 00 00 00 00	 call	 _flush_pending
$LN59@deflate:

; 857  :             if (s->pending + 2 <= s->pending_buf_size) {

  0057b	8b 56 14	 mov	 edx, DWORD PTR [esi+20]
  0057e	8d 42 02	 lea	 eax, DWORD PTR [edx+2]
  00581	3b 46 0c	 cmp	 eax, DWORD PTR [esi+12]
  00584	77 32		 ja	 SHORT $LN58@deflate

; 858  :                 put_byte(s, (Byte)(strm->adler & 0xff));

  00586	8b 4e 08	 mov	 ecx, DWORD PTR [esi+8]
  00589	0f b6 47 30	 movzx	 eax, BYTE PTR [edi+48]

; 859  :                 put_byte(s, (Byte)((strm->adler >> 8) & 0xff));
; 860  :                 strm->adler = crc32(0L, Z_NULL, 0);

  0058d	6a 00		 push	 0
  0058f	6a 00		 push	 0
  00591	88 04 0a	 mov	 BYTE PTR [edx+ecx], al
  00594	ff 46 14	 inc	 DWORD PTR [esi+20]
  00597	8b 56 14	 mov	 edx, DWORD PTR [esi+20]
  0059a	8b 4e 08	 mov	 ecx, DWORD PTR [esi+8]
  0059d	0f b6 47 31	 movzx	 eax, BYTE PTR [edi+49]
  005a1	6a 00		 push	 0
  005a3	88 04 0a	 mov	 BYTE PTR [edx+ecx], al
  005a6	ff 46 14	 inc	 DWORD PTR [esi+20]
  005a9	e8 00 00 00 00	 call	 _crc32@12
  005ae	89 47 30	 mov	 DWORD PTR [edi+48], eax
$LN57@deflate:

; 861  :                 s->status = BUSY_STATE;
; 862  :             }
; 863  :         }
; 864  :         else
; 865  :             s->status = BUSY_STATE;

  005b1	c7 46 04 71 00
	00 00		 mov	 DWORD PTR [esi+4], 113	; 00000071H
$LN58@deflate:

; 866  :     }
; 867  : #endif
; 868  : 
; 869  :     /* Flush as much pending output as possible */
; 870  :     if (s->pending != 0) {

  005b8	83 7e 14 00	 cmp	 DWORD PTR [esi+20], 0
  005bc	74 1f		 je	 SHORT $LN61@deflate

; 871  :         flush_pending(strm);

  005be	8b cf		 mov	 ecx, edi
  005c0	e8 00 00 00 00	 call	 _flush_pending

; 872  :         if (strm->avail_out == 0) {

  005c5	83 7f 10 00	 cmp	 DWORD PTR [edi+16], 0
  005c9	75 61		 jne	 SHORT $LN112@deflate
$LN117@deflate:

; 873  :             /* Since avail_out is 0, deflate will be called again with
; 874  :              * more output space, but possibly with both pending and
; 875  :              * avail_in equal to zero. There won't be anything to do,
; 876  :              * but this is not an error situation so make sure we
; 877  :              * return OK instead of BUF_ERROR at next call of deflate:
; 878  :              */
; 879  :             s->last_flush = -1;

  005cb	c7 46 28 ff ff
	ff ff		 mov	 DWORD PTR [esi+40], -1
$LN72@deflate:
  005d2	5b		 pop	 ebx
  005d3	5f		 pop	 edi

; 880  :             return Z_OK;

  005d4	33 c0		 xor	 eax, eax
  005d6	5e		 pop	 esi

; 976  : }

  005d7	8b e5		 mov	 esp, ebp
  005d9	5d		 pop	 ebp
  005da	c2 08 00	 ret	 8
$LN61@deflate:

; 881  :         }
; 882  : 
; 883  :     /* Make sure there is something to do and avoid duplicate consecutive
; 884  :      * flushes. For repeated and useless calls with Z_FINISH, we keep
; 885  :      * returning Z_STREAM_END instead of Z_BUF_ERROR.
; 886  :      */
; 887  :     } else if (strm->avail_in == 0 && RANK(flush) <= RANK(old_flush) &&

  005dd	83 7f 04 00	 cmp	 DWORD PTR [edi+4], 0
  005e1	8b 5d 0c	 mov	 ebx, DWORD PTR _flush$[ebp]
  005e4	75 49		 jne	 SHORT $LN64@deflate
  005e6	8b 4d fc	 mov	 ecx, DWORD PTR _old_flush$1$[ebp]
  005e9	33 c0		 xor	 eax, eax
  005eb	83 f9 04	 cmp	 ecx, 4
  005ee	ba 09 00 00 00	 mov	 edx, 9
  005f3	0f 4f c2	 cmovg	 eax, edx
  005f6	8d 14 09	 lea	 edx, DWORD PTR [ecx+ecx]
  005f9	33 c9		 xor	 ecx, ecx
  005fb	2b d0		 sub	 edx, eax
  005fd	83 fb 04	 cmp	 ebx, 4
  00600	b8 09 00 00 00	 mov	 eax, 9
  00605	0f 4f c8	 cmovg	 ecx, eax
  00608	8d 04 1b	 lea	 eax, DWORD PTR [ebx+ebx]
  0060b	2b c1		 sub	 eax, ecx
  0060d	3b c2		 cmp	 eax, edx
  0060f	7f 1e		 jg	 SHORT $LN64@deflate
  00611	83 fb 04	 cmp	 ebx, 4
  00614	74 19		 je	 SHORT $LN64@deflate

; 888  :                flush != Z_FINISH) {
; 889  :         ERR_RETURN(strm, Z_BUF_ERROR);

  00616	a1 1c 00 00 00	 mov	 eax, DWORD PTR _z_errmsg+28
  0061b	5b		 pop	 ebx
  0061c	89 47 18	 mov	 DWORD PTR [edi+24], eax
  0061f	b8 fb ff ff ff	 mov	 eax, -5			; fffffffbH
  00624	5f		 pop	 edi
  00625	5e		 pop	 esi

; 976  : }

  00626	8b e5		 mov	 esp, ebp
  00628	5d		 pop	 ebp
  00629	c2 08 00	 ret	 8
$LN112@deflate:
  0062c	8b 5d 0c	 mov	 ebx, DWORD PTR _flush$[ebp]
$LN64@deflate:

; 890  :     }
; 891  : 
; 892  :     /* User must not provide more input after the first FINISH: */
; 893  :     if (s->status == FINISH_STATE && strm->avail_in != 0) {

  0062f	8b 46 04	 mov	 eax, DWORD PTR [esi+4]
  00632	3d 9a 02 00 00	 cmp	 eax, 666		; 0000029aH
  00637	75 1c		 jne	 SHORT $LN65@deflate
  00639	83 7f 04 00	 cmp	 DWORD PTR [edi+4], 0
  0063d	74 1c		 je	 SHORT $LN116@deflate

; 894  :         ERR_RETURN(strm, Z_BUF_ERROR);

  0063f	a1 1c 00 00 00	 mov	 eax, DWORD PTR _z_errmsg+28
  00644	5b		 pop	 ebx
  00645	89 47 18	 mov	 DWORD PTR [edi+24], eax
  00648	b8 fb ff ff ff	 mov	 eax, -5			; fffffffbH
  0064d	5f		 pop	 edi
  0064e	5e		 pop	 esi

; 976  : }

  0064f	8b e5		 mov	 esp, ebp
  00651	5d		 pop	 ebp
  00652	c2 08 00	 ret	 8
$LN65@deflate:

; 895  :     }
; 896  : 
; 897  :     /* Start a new block or continue the current one.
; 898  :      */
; 899  :     if (strm->avail_in != 0 || s->lookahead != 0 ||

  00655	83 7f 04 00	 cmp	 DWORD PTR [edi+4], 0
  00659	75 19		 jne	 SHORT $LN67@deflate
$LN116@deflate:
  0065b	83 7e 74 00	 cmp	 DWORD PTR [esi+116], 0
  0065f	75 13		 jne	 SHORT $LN67@deflate
  00661	85 db		 test	 ebx, ebx
  00663	0f 84 e9 00 00
	00		 je	 $LN79@deflate
  00669	3d 9a 02 00 00	 cmp	 eax, 666		; 0000029aH
  0066e	0f 84 de 00 00
	00		 je	 $LN79@deflate
$LN67@deflate:

; 900  :         (flush != Z_NO_FLUSH && s->status != FINISH_STATE)) {
; 901  :         block_state bstate;
; 902  : 
; 903  :         bstate = s->strategy == Z_HUFFMAN_ONLY ? deflate_huff(s, flush) :

  00674	8b 86 88 00 00
	00		 mov	 eax, DWORD PTR [esi+136]
  0067a	83 f8 02	 cmp	 eax, 2
  0067d	75 0b		 jne	 SHORT $LN96@deflate
  0067f	8b d3		 mov	 edx, ebx
  00681	8b ce		 mov	 ecx, esi
  00683	e8 00 00 00 00	 call	 _deflate_huff
  00688	eb 27		 jmp	 SHORT $LN95@deflate
$LN96@deflate:
  0068a	83 f8 03	 cmp	 eax, 3
  0068d	75 0b		 jne	 SHORT $LN94@deflate
  0068f	8b d3		 mov	 edx, ebx
  00691	8b ce		 mov	 ecx, esi
  00693	e8 00 00 00 00	 call	 _deflate_rle
  00698	eb 17		 jmp	 SHORT $LN95@deflate
$LN94@deflate:
  0069a	8b 86 84 00 00
	00		 mov	 eax, DWORD PTR [esi+132]
  006a0	53		 push	 ebx
  006a1	56		 push	 esi
  006a2	8d 04 40	 lea	 eax, DWORD PTR [eax+eax*2]
  006a5	8b 04 85 08 00
	00 00		 mov	 eax, DWORD PTR _configuration_table[eax*4+8]
  006ac	ff d0		 call	 eax
  006ae	83 c4 08	 add	 esp, 8
$LN95@deflate:

; 904  :                     (s->strategy == Z_RLE ? deflate_rle(s, flush) :
; 905  :                         (*(configuration_table[s->level].func))(s, flush));
; 906  : 
; 907  :         if (bstate == finish_started || bstate == finish_done) {

  006b1	83 f8 02	 cmp	 eax, 2
  006b4	74 05		 je	 SHORT $LN69@deflate
  006b6	83 f8 03	 cmp	 eax, 3
  006b9	75 07		 jne	 SHORT $LN68@deflate
$LN69@deflate:

; 908  :             s->status = FINISH_STATE;

  006bb	c7 46 04 9a 02
	00 00		 mov	 DWORD PTR [esi+4], 666	; 0000029aH
$LN68@deflate:

; 909  :         }
; 910  :         if (bstate == need_more || bstate == finish_started) {

  006c2	85 c0		 test	 eax, eax
  006c4	0f 84 69 01 00
	00		 je	 $LN71@deflate
  006ca	83 f8 02	 cmp	 eax, 2
  006cd	0f 84 60 01 00
	00		 je	 $LN71@deflate

; 912  :                 s->last_flush = -1; /* avoid BUF_ERROR next call, see above */
; 913  :             }
; 914  :             return Z_OK;
; 915  :             /* If flush != Z_NO_FLUSH && avail_out == 0, the next call
; 916  :              * of deflate should use the same flush parameter to make sure
; 917  :              * that the flush is complete. So we don't have to output an
; 918  :              * empty block here, this will be done at next call. This also
; 919  :              * ensures that for a very small output buffer, we emit at most
; 920  :              * one empty block.
; 921  :              */
; 922  :         }
; 923  :         if (bstate == block_done) {

  006d3	83 f8 01	 cmp	 eax, 1
  006d6	75 7a		 jne	 SHORT $LN79@deflate

; 924  :             if (flush == Z_PARTIAL_FLUSH) {

  006d8	3b d8		 cmp	 ebx, eax
  006da	75 09		 jne	 SHORT $LN74@deflate

; 925  :                 _tr_align(s);

  006dc	8b ce		 mov	 ecx, esi
  006de	e8 00 00 00 00	 call	 __tr_align
  006e3	eb 5c		 jmp	 SHORT $LN78@deflate
$LN74@deflate:

; 926  :             } else if (flush != Z_BLOCK) { /* FULL_FLUSH or SYNC_FLUSH */

  006e5	83 fb 05	 cmp	 ebx, 5
  006e8	74 57		 je	 SHORT $LN78@deflate

; 927  :                 _tr_stored_block(s, (char*)0, 0L, 0);

  006ea	6a 00		 push	 0
  006ec	6a 00		 push	 0
  006ee	33 d2		 xor	 edx, edx
  006f0	8b ce		 mov	 ecx, esi
  006f2	e8 00 00 00 00	 call	 __tr_stored_block
  006f7	83 c4 08	 add	 esp, 8

; 928  :                 /* For a full flush, this empty block will be recognized
; 929  :                  * as a special marker by inflate_sync().
; 930  :                  */
; 931  :                 if (flush == Z_FULL_FLUSH) {

  006fa	83 fb 03	 cmp	 ebx, 3
  006fd	75 42		 jne	 SHORT $LN78@deflate

; 932  :                     CLEAR_HASH(s);             /* forget history */

  006ff	8b 46 44	 mov	 eax, DWORD PTR [esi+68]
  00702	33 d2		 xor	 edx, edx
  00704	8b 4e 4c	 mov	 ecx, DWORD PTR [esi+76]
  00707	66 89 54 48 fe	 mov	 WORD PTR [eax+ecx*2-2], dx
  0070c	8b 46 4c	 mov	 eax, DWORD PTR [esi+76]
  0070f	8d 04 45 fe ff
	ff ff		 lea	 eax, DWORD PTR [eax*2-2]
  00716	50		 push	 eax
  00717	52		 push	 edx
  00718	ff 76 44	 push	 DWORD PTR [esi+68]
  0071b	e8 00 00 00 00	 call	 _memset
  00720	83 c4 0c	 add	 esp, 12			; 0000000cH

; 933  :                     if (s->lookahead == 0) {

  00723	83 7e 74 00	 cmp	 DWORD PTR [esi+116], 0
  00727	75 18		 jne	 SHORT $LN78@deflate

; 934  :                         s->strstart = 0;

  00729	c7 46 6c 00 00
	00 00		 mov	 DWORD PTR [esi+108], 0

; 935  :                         s->block_start = 0L;

  00730	c7 46 5c 00 00
	00 00		 mov	 DWORD PTR [esi+92], 0

; 936  :                         s->insert = 0;

  00737	c7 86 b4 16 00
	00 00 00 00 00	 mov	 DWORD PTR [esi+5812], 0
$LN78@deflate:

; 937  :                     }
; 938  :                 }
; 939  :             }
; 940  :             flush_pending(strm);

  00741	8b cf		 mov	 ecx, edi
  00743	e8 00 00 00 00	 call	 _flush_pending

; 941  :             if (strm->avail_out == 0) {

  00748	83 7f 10 00	 cmp	 DWORD PTR [edi+16], 0
  0074c	0f 84 79 fe ff
	ff		 je	 $LN117@deflate
$LN79@deflate:

; 942  :               s->last_flush = -1; /* avoid BUF_ERROR at next call, see above */
; 943  :               return Z_OK;
; 944  :             }
; 945  :         }
; 946  :     }
; 947  :     Assert(strm->avail_out > 0, "bug2");
; 948  : 
; 949  :     if (flush != Z_FINISH) return Z_OK;

  00752	83 fb 04	 cmp	 ebx, 4
  00755	0f 85 77 fe ff
	ff		 jne	 $LN72@deflate

; 950  :     if (s->wrap <= 0) return Z_STREAM_END;

  0075b	8b 46 18	 mov	 eax, DWORD PTR [esi+24]
  0075e	85 c0		 test	 eax, eax
  00760	7f 0c		 jg	 SHORT $LN81@deflate
  00762	8d 43 fd	 lea	 eax, DWORD PTR [ebx-3]
  00765	5b		 pop	 ebx
  00766	5f		 pop	 edi
  00767	5e		 pop	 esi

; 976  : }

  00768	8b e5		 mov	 esp, ebp
  0076a	5d		 pop	 ebp
  0076b	c2 08 00	 ret	 8
$LN81@deflate:

; 951  : 
; 952  :     /* Write the trailer */
; 953  : #ifdef GZIP
; 954  :     if (s->wrap == 2) {

  0076e	83 f8 02	 cmp	 eax, 2
  00771	0f 85 82 00 00
	00		 jne	 $LN82@deflate

; 955  :         put_byte(s, (Byte)(strm->adler & 0xff));

  00777	8b 4e 14	 mov	 ecx, DWORD PTR [esi+20]
  0077a	0f b6 47 30	 movzx	 eax, BYTE PTR [edi+48]
  0077e	8b 56 08	 mov	 edx, DWORD PTR [esi+8]
  00781	88 04 0a	 mov	 BYTE PTR [edx+ecx], al
  00784	ff 46 14	 inc	 DWORD PTR [esi+20]
  00787	8b 56 14	 mov	 edx, DWORD PTR [esi+20]

; 956  :         put_byte(s, (Byte)((strm->adler >> 8) & 0xff));

  0078a	0f b6 47 31	 movzx	 eax, BYTE PTR [edi+49]
  0078e	8b 4e 08	 mov	 ecx, DWORD PTR [esi+8]
  00791	88 04 0a	 mov	 BYTE PTR [edx+ecx], al
  00794	ff 46 14	 inc	 DWORD PTR [esi+20]
  00797	8b 56 14	 mov	 edx, DWORD PTR [esi+20]

; 957  :         put_byte(s, (Byte)((strm->adler >> 16) & 0xff));

  0079a	0f b6 47 32	 movzx	 eax, BYTE PTR [edi+50]
  0079e	8b 4e 08	 mov	 ecx, DWORD PTR [esi+8]
  007a1	88 04 0a	 mov	 BYTE PTR [edx+ecx], al
  007a4	ff 46 14	 inc	 DWORD PTR [esi+20]
  007a7	8b 56 14	 mov	 edx, DWORD PTR [esi+20]

; 958  :         put_byte(s, (Byte)((strm->adler >> 24) & 0xff));

  007aa	0f b6 47 33	 movzx	 eax, BYTE PTR [edi+51]
  007ae	8b 4e 08	 mov	 ecx, DWORD PTR [esi+8]
  007b1	88 04 0a	 mov	 BYTE PTR [edx+ecx], al
  007b4	ff 46 14	 inc	 DWORD PTR [esi+20]
  007b7	8b 56 14	 mov	 edx, DWORD PTR [esi+20]

; 959  :         put_byte(s, (Byte)(strm->total_in & 0xff));

  007ba	0f b6 47 08	 movzx	 eax, BYTE PTR [edi+8]
  007be	8b 4e 08	 mov	 ecx, DWORD PTR [esi+8]
  007c1	88 04 0a	 mov	 BYTE PTR [edx+ecx], al
  007c4	ff 46 14	 inc	 DWORD PTR [esi+20]
  007c7	8b 56 14	 mov	 edx, DWORD PTR [esi+20]

; 960  :         put_byte(s, (Byte)((strm->total_in >> 8) & 0xff));

  007ca	8b 4e 08	 mov	 ecx, DWORD PTR [esi+8]
  007cd	0f b6 47 09	 movzx	 eax, BYTE PTR [edi+9]
  007d1	88 04 0a	 mov	 BYTE PTR [edx+ecx], al
  007d4	ff 46 14	 inc	 DWORD PTR [esi+20]
  007d7	8b 56 14	 mov	 edx, DWORD PTR [esi+20]

; 961  :         put_byte(s, (Byte)((strm->total_in >> 16) & 0xff));

  007da	8b 4e 08	 mov	 ecx, DWORD PTR [esi+8]
  007dd	0f b6 47 0a	 movzx	 eax, BYTE PTR [edi+10]
  007e1	88 04 0a	 mov	 BYTE PTR [edx+ecx], al
  007e4	ff 46 14	 inc	 DWORD PTR [esi+20]
  007e7	8b 56 14	 mov	 edx, DWORD PTR [esi+20]

; 962  :         put_byte(s, (Byte)((strm->total_in >> 24) & 0xff));

  007ea	8b 4e 08	 mov	 ecx, DWORD PTR [esi+8]
  007ed	0f b6 47 0b	 movzx	 eax, BYTE PTR [edi+11]
  007f1	88 04 0a	 mov	 BYTE PTR [edx+ecx], al
  007f4	ff 46 14	 inc	 DWORD PTR [esi+20]

; 963  :     }

  007f7	eb 16		 jmp	 SHORT $LN83@deflate
$LN82@deflate:

; 964  :     else
; 965  : #endif
; 966  :     {
; 967  :         putShortMSB(s, (uInt)(strm->adler >> 16));

  007f9	0f b7 57 32	 movzx	 edx, WORD PTR [edi+50]
  007fd	8b ce		 mov	 ecx, esi
  007ff	e8 00 00 00 00	 call	 _putShortMSB

; 968  :         putShortMSB(s, (uInt)(strm->adler & 0xffff));

  00804	0f b7 57 30	 movzx	 edx, WORD PTR [edi+48]
  00808	8b ce		 mov	 ecx, esi
  0080a	e8 00 00 00 00	 call	 _putShortMSB
$LN83@deflate:

; 969  :     }
; 970  :     flush_pending(strm);

  0080f	8b cf		 mov	 ecx, edi
  00811	e8 00 00 00 00	 call	 _flush_pending

; 971  :     /* If avail_out is zero, the application will call deflate again
; 972  :      * to flush the rest.
; 973  :      */
; 974  :     if (s->wrap > 0) s->wrap = -s->wrap; /* write the trailer only once! */

  00816	8b 46 18	 mov	 eax, DWORD PTR [esi+24]
  00819	85 c0		 test	 eax, eax
  0081b	7e 05		 jle	 SHORT $LN84@deflate
  0081d	f7 d8		 neg	 eax
  0081f	89 46 18	 mov	 DWORD PTR [esi+24], eax
$LN84@deflate:

; 975  :     return s->pending != 0 ? Z_OK : Z_STREAM_END;

  00822	33 c0		 xor	 eax, eax
  00824	39 46 14	 cmp	 DWORD PTR [esi+20], eax
  00827	5b		 pop	 ebx
  00828	5f		 pop	 edi
  00829	0f 94 c0	 sete	 al
  0082c	5e		 pop	 esi

; 976  : }

  0082d	8b e5		 mov	 esp, ebp
  0082f	5d		 pop	 ebp
  00830	c2 08 00	 ret	 8
$LN71@deflate:

; 911  :             if (strm->avail_out == 0) {

  00833	83 7f 10 00	 cmp	 DWORD PTR [edi+16], 0
  00837	0f 85 95 fd ff
	ff		 jne	 $LN72@deflate

; 873  :             /* Since avail_out is 0, deflate will be called again with
; 874  :              * more output space, but possibly with both pending and
; 875  :              * avail_in equal to zero. There won't be anything to do,
; 876  :              * but this is not an error situation so make sure we
; 877  :              * return OK instead of BUF_ERROR at next call of deflate:
; 878  :              */
; 879  :             s->last_flush = -1;

  0083d	5b		 pop	 ebx
  0083e	5f		 pop	 edi
  0083f	c7 46 28 ff ff
	ff ff		 mov	 DWORD PTR [esi+40], -1

; 880  :             return Z_OK;

  00846	33 c0		 xor	 eax, eax
  00848	5e		 pop	 esi

; 976  : }

  00849	8b e5		 mov	 esp, ebp
  0084b	5d		 pop	 ebp
  0084c	c2 08 00	 ret	 8
$LN13@deflate:

; 680  :         (s->status == FINISH_STATE && flush != Z_FINISH)) {
; 681  :         ERR_RETURN(strm, Z_STREAM_ERROR);

  0084f	a1 10 00 00 00	 mov	 eax, DWORD PTR _z_errmsg+16
  00854	89 47 18	 mov	 DWORD PTR [edi+24], eax
$LN11@deflate:
  00857	5f		 pop	 edi
  00858	b8 fe ff ff ff	 mov	 eax, -2			; fffffffeH
  0085d	5e		 pop	 esi

; 976  : }

  0085e	8b e5		 mov	 esp, ebp
  00860	5d		 pop	 ebp
  00861	c2 08 00	 ret	 8
_deflate@8 ENDP
_TEXT	ENDS
; Function compile flags: /Ogtp
; File d:\downloads\tgl-master\tgl-master\zlib\deflate.c
;	COMDAT _deflateEnd@4
_TEXT	SEGMENT
_strm$ = 8						; size = 4
_deflateEnd@4 PROC					; COMDAT

; 981  : {

  00000	55		 push	 ebp
  00001	8b ec		 mov	 ebp, esp
  00003	56		 push	 esi

; 982  :     int status;
; 983  : 
; 984  :     if (strm == Z_NULL || strm->state == Z_NULL) return Z_STREAM_ERROR;

  00004	8b 75 08	 mov	 esi, DWORD PTR _strm$[ebp]
  00007	85 f6		 test	 esi, esi
  00009	0f 84 bd 00 00
	00		 je	 $LN3@deflateEnd
  0000f	8b 46 1c	 mov	 eax, DWORD PTR [esi+28]
  00012	85 c0		 test	 eax, eax
  00014	0f 84 b2 00 00
	00		 je	 $LN3@deflateEnd

; 985  : 
; 986  :     status = strm->state->status;

  0001a	57		 push	 edi
  0001b	8b 78 04	 mov	 edi, DWORD PTR [eax+4]

; 987  :     if (status != INIT_STATE &&
; 988  :         status != EXTRA_STATE &&
; 989  :         status != NAME_STATE &&
; 990  :         status != COMMENT_STATE &&
; 991  :         status != HCRC_STATE &&
; 992  :         status != BUSY_STATE &&

  0001e	83 ff 2a	 cmp	 edi, 42			; 0000002aH
  00021	74 2c		 je	 SHORT $LN4@deflateEnd
  00023	83 ff 45	 cmp	 edi, 69			; 00000045H
  00026	74 27		 je	 SHORT $LN4@deflateEnd
  00028	83 ff 49	 cmp	 edi, 73			; 00000049H
  0002b	74 22		 je	 SHORT $LN4@deflateEnd
  0002d	83 ff 5b	 cmp	 edi, 91			; 0000005bH
  00030	74 1d		 je	 SHORT $LN4@deflateEnd
  00032	83 ff 67	 cmp	 edi, 103		; 00000067H
  00035	74 18		 je	 SHORT $LN4@deflateEnd
  00037	83 ff 71	 cmp	 edi, 113		; 00000071H
  0003a	74 13		 je	 SHORT $LN4@deflateEnd
  0003c	81 ff 9a 02 00
	00		 cmp	 edi, 666		; 0000029aH
  00042	74 0b		 je	 SHORT $LN4@deflateEnd

; 993  :         status != FINISH_STATE) {
; 994  :       return Z_STREAM_ERROR;

  00044	5f		 pop	 edi
  00045	b8 fe ff ff ff	 mov	 eax, -2			; fffffffeH
  0004a	5e		 pop	 esi

; 1007 : }

  0004b	5d		 pop	 ebp
  0004c	c2 04 00	 ret	 4
$LN4@deflateEnd:

; 995  :     }
; 996  : 
; 997  :     /* Deallocate in reverse order of allocations: */
; 998  :     TRY_FREE(strm, strm->state->pending_buf);

  0004f	8b 40 08	 mov	 eax, DWORD PTR [eax+8]
  00052	85 c0		 test	 eax, eax
  00054	74 0c		 je	 SHORT $LN5@deflateEnd
  00056	50		 push	 eax
  00057	ff 76 28	 push	 DWORD PTR [esi+40]
  0005a	8b 46 24	 mov	 eax, DWORD PTR [esi+36]
  0005d	ff d0		 call	 eax
  0005f	83 c4 08	 add	 esp, 8
$LN5@deflateEnd:

; 999  :     TRY_FREE(strm, strm->state->head);

  00062	8b 46 1c	 mov	 eax, DWORD PTR [esi+28]
  00065	8b 40 44	 mov	 eax, DWORD PTR [eax+68]
  00068	85 c0		 test	 eax, eax
  0006a	74 0c		 je	 SHORT $LN6@deflateEnd
  0006c	50		 push	 eax
  0006d	ff 76 28	 push	 DWORD PTR [esi+40]
  00070	8b 46 24	 mov	 eax, DWORD PTR [esi+36]
  00073	ff d0		 call	 eax
  00075	83 c4 08	 add	 esp, 8
$LN6@deflateEnd:

; 1000 :     TRY_FREE(strm, strm->state->prev);

  00078	8b 46 1c	 mov	 eax, DWORD PTR [esi+28]
  0007b	8b 40 40	 mov	 eax, DWORD PTR [eax+64]
  0007e	85 c0		 test	 eax, eax
  00080	74 0c		 je	 SHORT $LN7@deflateEnd
  00082	50		 push	 eax
  00083	ff 76 28	 push	 DWORD PTR [esi+40]
  00086	8b 46 24	 mov	 eax, DWORD PTR [esi+36]
  00089	ff d0		 call	 eax
  0008b	83 c4 08	 add	 esp, 8
$LN7@deflateEnd:

; 1001 :     TRY_FREE(strm, strm->state->window);

  0008e	8b 46 1c	 mov	 eax, DWORD PTR [esi+28]
  00091	8b 40 38	 mov	 eax, DWORD PTR [eax+56]
  00094	85 c0		 test	 eax, eax
  00096	74 0c		 je	 SHORT $LN8@deflateEnd
  00098	50		 push	 eax
  00099	ff 76 28	 push	 DWORD PTR [esi+40]
  0009c	8b 46 24	 mov	 eax, DWORD PTR [esi+36]
  0009f	ff d0		 call	 eax
  000a1	83 c4 08	 add	 esp, 8
$LN8@deflateEnd:

; 1002 : 
; 1003 :     ZFREE(strm, strm->state);

  000a4	ff 76 1c	 push	 DWORD PTR [esi+28]
  000a7	8b 46 24	 mov	 eax, DWORD PTR [esi+36]
  000aa	ff 76 28	 push	 DWORD PTR [esi+40]
  000ad	ff d0		 call	 eax
  000af	83 c4 08	 add	 esp, 8

; 1004 :     strm->state = Z_NULL;

  000b2	c7 46 1c 00 00
	00 00		 mov	 DWORD PTR [esi+28], 0

; 1005 : 
; 1006 :     return status == BUSY_STATE ? Z_DATA_ERROR : Z_OK;

  000b9	33 c0		 xor	 eax, eax
  000bb	b9 fd ff ff ff	 mov	 ecx, -3			; fffffffdH
  000c0	83 ff 71	 cmp	 edi, 113		; 00000071H
  000c3	5f		 pop	 edi
  000c4	0f 44 c1	 cmove	 eax, ecx
  000c7	5e		 pop	 esi

; 1007 : }

  000c8	5d		 pop	 ebp
  000c9	c2 04 00	 ret	 4
$LN3@deflateEnd:

; 982  :     int status;
; 983  : 
; 984  :     if (strm == Z_NULL || strm->state == Z_NULL) return Z_STREAM_ERROR;

  000cc	b8 fe ff ff ff	 mov	 eax, -2			; fffffffeH
  000d1	5e		 pop	 esi

; 1007 : }

  000d2	5d		 pop	 ebp
  000d3	c2 04 00	 ret	 4
_deflateEnd@4 ENDP
_TEXT	ENDS
; Function compile flags: /Ogtp
; File d:\downloads\tgl-master\tgl-master\zlib\deflate.c
;	COMDAT _deflateInit_@16
_TEXT	SEGMENT
_strm$ = 8						; size = 4
_level$ = 12						; size = 4
_version$ = 16						; size = 4
_stream_size$ = 20					; size = 4
_deflateInit_@16 PROC					; COMDAT

; 206  : {

  00000	55		 push	 ebp
  00001	8b ec		 mov	 ebp, esp

; 207  :     return deflateInit2_(strm, level, Z_DEFLATED, MAX_WBITS, DEF_MEM_LEVEL,

  00003	ff 75 14	 push	 DWORD PTR _stream_size$[ebp]
  00006	ff 75 10	 push	 DWORD PTR _version$[ebp]
  00009	6a 00		 push	 0
  0000b	6a 08		 push	 8
  0000d	6a 0f		 push	 15			; 0000000fH
  0000f	6a 08		 push	 8
  00011	ff 75 0c	 push	 DWORD PTR _level$[ebp]
  00014	ff 75 08	 push	 DWORD PTR _strm$[ebp]
  00017	e8 00 00 00 00	 call	 _deflateInit2_@32

; 208  :                          Z_DEFAULT_STRATEGY, version, stream_size);
; 209  :     /* To do: ignore strm->next_in if we use it as window */
; 210  : }

  0001c	5d		 pop	 ebp
  0001d	c2 10 00	 ret	 16			; 00000010H
_deflateInit_@16 ENDP
_TEXT	ENDS
; Function compile flags: /Ogtp
; File d:\downloads\tgl-master\tgl-master\zlib\deflate.c
;	COMDAT _deflateInit2_@32
_TEXT	SEGMENT
_strm$ = 8						; size = 4
_level$ = 12						; size = 4
_method$ = 16						; size = 4
_windowBits$ = 20					; size = 4
_memLevel$ = 24						; size = 4
_strategy$ = 28						; size = 4
_version$ = 32						; size = 4
_stream_size$ = 36					; size = 4
_deflateInit2_@32 PROC					; COMDAT

; 223  : {

  00000	55		 push	 ebp
  00001	8b ec		 mov	 ebp, esp

; 224  :     deflate_state *s;
; 225  :     int wrap = 1;
; 226  :     static const char my_version[] = ZLIB_VERSION;
; 227  : 
; 228  :     ushf *overlay;
; 229  :     /* We overlay pending_buf and d_buf+l_buf. This works since the average
; 230  :      * output size for (length,distance) codes is <= 24 bits.
; 231  :      */
; 232  : 
; 233  :     if (version == Z_NULL || version[0] != my_version[0] ||

  00003	8b 45 20	 mov	 eax, DWORD PTR _version$[ebp]
  00006	56		 push	 esi
  00007	be 01 00 00 00	 mov	 esi, 1
  0000c	85 c0		 test	 eax, eax
  0000e	0f 84 0b 02 00
	00		 je	 $LN3@deflateIni
  00014	80 38 31	 cmp	 BYTE PTR [eax], 49	; 00000031H
  00017	0f 85 02 02 00
	00		 jne	 $LN3@deflateIni
  0001d	83 7d 24 38	 cmp	 DWORD PTR _stream_size$[ebp], 56 ; 00000038H
  00021	0f 85 f8 01 00
	00		 jne	 $LN3@deflateIni

; 236  :     }
; 237  :     if (strm == Z_NULL) return Z_STREAM_ERROR;

  00027	57		 push	 edi
  00028	8b 7d 08	 mov	 edi, DWORD PTR _strm$[ebp]
  0002b	85 ff		 test	 edi, edi
  0002d	75 09		 jne	 SHORT $LN4@deflateIni
  0002f	5f		 pop	 edi
  00030	8d 46 fd	 lea	 eax, DWORD PTR [esi-3]
  00033	5e		 pop	 esi

; 320  : }

  00034	5d		 pop	 ebp
  00035	c2 20 00	 ret	 32			; 00000020H
$LN4@deflateIni:

; 238  : 
; 239  :     strm->msg = Z_NULL;
; 240  :     if (strm->zalloc == (alloc_func)0) {

  00038	83 7f 20 00	 cmp	 DWORD PTR [edi+32], 0
  0003c	c7 47 18 00 00
	00 00		 mov	 DWORD PTR [edi+24], 0
  00043	75 0e		 jne	 SHORT $LN5@deflateIni

; 241  : #ifdef Z_SOLO
; 242  :         return Z_STREAM_ERROR;
; 243  : #else
; 244  :         strm->zalloc = zcalloc;

  00045	c7 47 20 00 00
	00 00		 mov	 DWORD PTR [edi+32], OFFSET _zcalloc

; 245  :         strm->opaque = (voidpf)0;

  0004c	c7 47 28 00 00
	00 00		 mov	 DWORD PTR [edi+40], 0
$LN5@deflateIni:

; 246  : #endif
; 247  :     }
; 248  :     if (strm->zfree == (free_func)0)

  00053	83 7f 24 00	 cmp	 DWORD PTR [edi+36], 0
  00057	75 07		 jne	 SHORT $LN6@deflateIni

; 249  : #ifdef Z_SOLO
; 250  :         return Z_STREAM_ERROR;
; 251  : #else
; 252  :         strm->zfree = zcfree;

  00059	c7 47 24 00 00
	00 00		 mov	 DWORD PTR [edi+36], OFFSET _zcfree
$LN6@deflateIni:

; 253  : #endif
; 254  : 
; 255  : #ifdef FASTEST
; 256  :     if (level != 0) level = 1;
; 257  : #else
; 258  :     if (level == Z_DEFAULT_COMPRESSION) level = 6;

  00060	8b 4d 0c	 mov	 ecx, DWORD PTR _level$[ebp]
  00063	b8 06 00 00 00	 mov	 eax, 6
  00068	83 f9 ff	 cmp	 ecx, -1
  0006b	53		 push	 ebx

; 259  : #endif
; 260  : 
; 261  :     if (windowBits < 0) { /* suppress zlib wrapper */

  0006c	8b 5d 14	 mov	 ebx, DWORD PTR _windowBits$[ebp]
  0006f	0f 44 c8	 cmove	 ecx, eax
  00072	89 4d 0c	 mov	 DWORD PTR _level$[ebp], ecx
  00075	85 db		 test	 ebx, ebx
  00077	79 06		 jns	 SHORT $LN8@deflateIni

; 262  :         wrap = 0;

  00079	33 f6		 xor	 esi, esi

; 263  :         windowBits = -windowBits;

  0007b	f7 db		 neg	 ebx

; 264  :     }

  0007d	eb 0d		 jmp	 SHORT $LN10@deflateIni
$LN8@deflateIni:

; 265  : #ifdef GZIP
; 266  :     else if (windowBits > 15) {

  0007f	83 fb 0f	 cmp	 ebx, 15			; 0000000fH
  00082	7e 08		 jle	 SHORT $LN10@deflateIni

; 267  :         wrap = 2;       /* write gzip wrapper instead */

  00084	be 02 00 00 00	 mov	 esi, 2

; 268  :         windowBits -= 16;

  00089	83 eb 10	 sub	 ebx, 16			; 00000010H
$LN10@deflateIni:

; 269  :     }
; 270  : #endif
; 271  :     if (memLevel < 1 || memLevel > MAX_MEM_LEVEL || method != Z_DEFLATED ||
; 272  :         windowBits < 8 || windowBits > 15 || level < 0 || level > 9 ||
; 273  :         strategy < 0 || strategy > Z_FIXED) {

  0008c	8b 45 18	 mov	 eax, DWORD PTR _memLevel$[ebp]
  0008f	48		 dec	 eax
  00090	83 f8 08	 cmp	 eax, 8
  00093	0f 87 7a 01 00
	00		 ja	 $LN12@deflateIni
  00099	83 7d 10 08	 cmp	 DWORD PTR _method$[ebp], 8
  0009d	0f 85 70 01 00
	00		 jne	 $LN12@deflateIni
  000a3	8d 43 f8	 lea	 eax, DWORD PTR [ebx-8]
  000a6	83 f8 07	 cmp	 eax, 7
  000a9	0f 87 64 01 00
	00		 ja	 $LN12@deflateIni
  000af	83 f9 09	 cmp	 ecx, 9
  000b2	0f 87 5b 01 00
	00		 ja	 $LN12@deflateIni
  000b8	83 7d 1c 04	 cmp	 DWORD PTR _strategy$[ebp], 4
  000bc	0f 87 51 01 00
	00		 ja	 $LN12@deflateIni

; 275  :     }
; 276  :     if (windowBits == 8) windowBits = 9;  /* until 256-byte window bug fixed */
; 277  :     s = (deflate_state *) ZALLOC(strm, 1, sizeof(deflate_state));

  000c2	68 c4 16 00 00	 push	 5828			; 000016c4H
  000c7	b8 09 00 00 00	 mov	 eax, 9
  000cc	83 fb 08	 cmp	 ebx, 8
  000cf	6a 01		 push	 1
  000d1	ff 77 28	 push	 DWORD PTR [edi+40]
  000d4	0f 44 d8	 cmove	 ebx, eax
  000d7	8b 47 20	 mov	 eax, DWORD PTR [edi+32]
  000da	ff d0		 call	 eax
  000dc	83 c4 0c	 add	 esp, 12			; 0000000cH

; 278  :     if (s == Z_NULL) return Z_MEM_ERROR;

  000df	85 c0		 test	 eax, eax
  000e1	0f 84 20 01 00
	00		 je	 $LN20@deflateIni

; 279  :     strm->state = (struct internal_state FAR *)s;

  000e7	89 47 1c	 mov	 DWORD PTR [edi+28], eax

; 280  :     s->strm = strm;
; 281  : 
; 282  :     s->wrap = wrap;
; 283  :     s->gzhead = Z_NULL;
; 284  :     s->w_bits = windowBits;
; 285  :     s->w_size = 1 << s->w_bits;

  000ea	8b cb		 mov	 ecx, ebx
  000ec	89 70 18	 mov	 DWORD PTR [eax+24], esi
  000ef	be 01 00 00 00	 mov	 esi, 1
  000f4	89 58 30	 mov	 DWORD PTR [eax+48], ebx
  000f7	8b d8		 mov	 ebx, eax
  000f9	d3 e6		 shl	 esi, cl

; 286  :     s->w_mask = s->w_size - 1;
; 287  : 
; 288  :     s->hash_bits = memLevel + 7;

  000fb	8b 4d 18	 mov	 ecx, DWORD PTR _memLevel$[ebp]
  000fe	89 38		 mov	 DWORD PTR [eax], edi
  00100	83 c1 07	 add	 ecx, 7
  00103	c7 40 1c 00 00
	00 00		 mov	 DWORD PTR [eax+28], 0
  0010a	8d 46 ff	 lea	 eax, DWORD PTR [esi-1]
  0010d	89 4b 50	 mov	 DWORD PTR [ebx+80], ecx
  00110	89 43 34	 mov	 DWORD PTR [ebx+52], eax

; 289  :     s->hash_size = 1 << s->hash_bits;

  00113	b8 01 00 00 00	 mov	 eax, 1
  00118	d3 e0		 shl	 eax, cl

; 290  :     s->hash_mask = s->hash_size - 1;
; 291  :     s->hash_shift =  ((s->hash_bits+MIN_MATCH-1)/MIN_MATCH);

  0011a	83 c1 02	 add	 ecx, 2
  0011d	89 43 4c	 mov	 DWORD PTR [ebx+76], eax
  00120	48		 dec	 eax
  00121	89 43 54	 mov	 DWORD PTR [ebx+84], eax
  00124	b8 ab aa aa aa	 mov	 eax, -1431655765	; aaaaaaabH
  00129	f7 e1		 mul	 ecx

; 292  : 
; 293  :     s->window = (Bytef *) ZALLOC(strm, s->w_size, 2*sizeof(Byte));

  0012b	6a 02		 push	 2
  0012d	d1 ea		 shr	 edx, 1
  0012f	89 73 2c	 mov	 DWORD PTR [ebx+44], esi
  00132	89 53 58	 mov	 DWORD PTR [ebx+88], edx
  00135	8b 47 20	 mov	 eax, DWORD PTR [edi+32]
  00138	56		 push	 esi
  00139	ff 77 28	 push	 DWORD PTR [edi+40]
  0013c	ff d0		 call	 eax

; 294  :     s->prev   = (Posf *)  ZALLOC(strm, s->w_size, sizeof(Pos));

  0013e	6a 02		 push	 2
  00140	ff 73 2c	 push	 DWORD PTR [ebx+44]
  00143	89 43 38	 mov	 DWORD PTR [ebx+56], eax
  00146	ff 77 28	 push	 DWORD PTR [edi+40]
  00149	8b 47 20	 mov	 eax, DWORD PTR [edi+32]
  0014c	ff d0		 call	 eax

; 295  :     s->head   = (Posf *)  ZALLOC(strm, s->hash_size, sizeof(Pos));

  0014e	6a 02		 push	 2
  00150	ff 73 4c	 push	 DWORD PTR [ebx+76]
  00153	89 43 40	 mov	 DWORD PTR [ebx+64], eax
  00156	ff 77 28	 push	 DWORD PTR [edi+40]
  00159	8b 47 20	 mov	 eax, DWORD PTR [edi+32]
  0015c	ff d0		 call	 eax

; 296  : 
; 297  :     s->high_water = 0;      /* nothing written to s->window yet */
; 298  : 
; 299  :     s->lit_bufsize = 1 << (memLevel + 6); /* 16K elements by default */

  0015e	8b 4d 18	 mov	 ecx, DWORD PTR _memLevel$[ebp]
  00161	89 43 44	 mov	 DWORD PTR [ebx+68], eax
  00164	b8 01 00 00 00	 mov	 eax, 1

; 300  : 
; 301  :     overlay = (ushf *) ZALLOC(strm, s->lit_bufsize, sizeof(ush)+2);

  00169	6a 04		 push	 4
  0016b	c7 83 c0 16 00
	00 00 00 00 00	 mov	 DWORD PTR [ebx+5824], 0
  00175	8d 49 06	 lea	 ecx, DWORD PTR [ecx+6]
  00178	d3 e0		 shl	 eax, cl
  0017a	50		 push	 eax
  0017b	89 83 9c 16 00
	00		 mov	 DWORD PTR [ebx+5788], eax
  00181	ff 77 28	 push	 DWORD PTR [edi+40]
  00184	8b 47 20	 mov	 eax, DWORD PTR [edi+32]
  00187	ff d0		 call	 eax

; 302  :     s->pending_buf = (uchf *) overlay;
; 303  :     s->pending_buf_size = (ulg)s->lit_bufsize * (sizeof(ush)+2L);

  00189	8b b3 9c 16 00
	00		 mov	 esi, DWORD PTR [ebx+5788]
  0018f	83 c4 30	 add	 esp, 48			; 00000030H

; 304  : 
; 305  :     if (s->window == Z_NULL || s->prev == Z_NULL || s->head == Z_NULL ||

  00192	83 7b 38 00	 cmp	 DWORD PTR [ebx+56], 0
  00196	8b d0		 mov	 edx, eax
  00198	89 53 08	 mov	 DWORD PTR [ebx+8], edx
  0019b	8d 0c b5 00 00
	00 00		 lea	 ecx, DWORD PTR [esi*4]
  001a2	89 4b 0c	 mov	 DWORD PTR [ebx+12], ecx
  001a5	74 4b		 je	 SHORT $LN16@deflateIni
  001a7	83 7b 40 00	 cmp	 DWORD PTR [ebx+64], 0
  001ab	74 45		 je	 SHORT $LN16@deflateIni
  001ad	83 7b 44 00	 cmp	 DWORD PTR [ebx+68], 0
  001b1	74 3f		 je	 SHORT $LN16@deflateIni
  001b3	85 d2		 test	 edx, edx
  001b5	74 3b		 je	 SHORT $LN16@deflateIni

; 311  :     }
; 312  :     s->d_buf = overlay + s->lit_bufsize/sizeof(ush);

  001b7	8b c6		 mov	 eax, esi

; 313  :     s->l_buf = s->pending_buf + (1+sizeof(ush))*s->lit_bufsize;
; 314  : 
; 315  :     s->level = level;
; 316  :     s->strategy = strategy;
; 317  :     s->method = (Byte)method;

  001b9	c6 43 24 08	 mov	 BYTE PTR [ebx+36], 8
  001bd	d1 e8		 shr	 eax, 1

; 318  : 
; 319  :     return deflateReset(strm);

  001bf	57		 push	 edi
  001c0	8d 04 42	 lea	 eax, DWORD PTR [edx+eax*2]
  001c3	89 83 a4 16 00
	00		 mov	 DWORD PTR [ebx+5796], eax
  001c9	8d 04 72	 lea	 eax, DWORD PTR [edx+esi*2]
  001cc	03 c6		 add	 eax, esi
  001ce	89 83 98 16 00
	00		 mov	 DWORD PTR [ebx+5784], eax
  001d4	8b 45 0c	 mov	 eax, DWORD PTR _level$[ebp]
  001d7	89 83 84 00 00
	00		 mov	 DWORD PTR [ebx+132], eax
  001dd	8b 45 1c	 mov	 eax, DWORD PTR _strategy$[ebp]
  001e0	89 83 88 00 00
	00		 mov	 DWORD PTR [ebx+136], eax
  001e6	e8 00 00 00 00	 call	 _deflateReset@4
  001eb	5b		 pop	 ebx
  001ec	5f		 pop	 edi
  001ed	5e		 pop	 esi

; 320  : }

  001ee	5d		 pop	 ebp
  001ef	c2 20 00	 ret	 32			; 00000020H
$LN16@deflateIni:

; 306  :         s->pending_buf == Z_NULL) {
; 307  :         s->status = FINISH_STATE;
; 308  :         strm->msg = ERR_MSG(Z_MEM_ERROR);

  001f2	a1 18 00 00 00	 mov	 eax, DWORD PTR _z_errmsg+24
  001f7	c7 43 04 9a 02
	00 00		 mov	 DWORD PTR [ebx+4], 666	; 0000029aH

; 309  :         deflateEnd (strm);

  001fe	57		 push	 edi
  001ff	89 47 18	 mov	 DWORD PTR [edi+24], eax
  00202	e8 00 00 00 00	 call	 _deflateEnd@4
$LN20@deflateIni:

; 310  :         return Z_MEM_ERROR;

  00207	5b		 pop	 ebx
  00208	5f		 pop	 edi
  00209	b8 fc ff ff ff	 mov	 eax, -4			; fffffffcH
  0020e	5e		 pop	 esi

; 320  : }

  0020f	5d		 pop	 ebp
  00210	c2 20 00	 ret	 32			; 00000020H
$LN12@deflateIni:
  00213	5b		 pop	 ebx
  00214	5f		 pop	 edi

; 274  :         return Z_STREAM_ERROR;

  00215	b8 fe ff ff ff	 mov	 eax, -2			; fffffffeH
  0021a	5e		 pop	 esi

; 320  : }

  0021b	5d		 pop	 ebp
  0021c	c2 20 00	 ret	 32			; 00000020H
$LN3@deflateIni:

; 234  :         stream_size != sizeof(z_stream)) {
; 235  :         return Z_VERSION_ERROR;

  0021f	b8 fa ff ff ff	 mov	 eax, -6			; fffffffaH
  00224	5e		 pop	 esi

; 320  : }

  00225	5d		 pop	 ebp
  00226	c2 20 00	 ret	 32			; 00000020H
_deflateInit2_@32 ENDP
_TEXT	ENDS
; Function compile flags: /Ogtp
; File d:\downloads\tgl-master\tgl-master\zlib\deflate.c
;	COMDAT _deflateSetDictionary@12
_TEXT	SEGMENT
_avail$1$ = -8						; size = 4
_wrap$1$ = -4						; size = 4
_strm$ = 8						; size = 4
_n$1$ = 12						; size = 4
_dictionary$ = 12					; size = 4
_next$1$ = 16						; size = 4
_dictLength$ = 16					; size = 4
_deflateSetDictionary@12 PROC				; COMDAT

; 327  : {

  00000	55		 push	 ebp
  00001	8b ec		 mov	 ebp, esp
  00003	83 ec 08	 sub	 esp, 8
  00006	53		 push	 ebx

; 328  :     deflate_state *s;
; 329  :     uInt str, n;
; 330  :     int wrap;
; 331  :     unsigned avail;
; 332  :     z_const unsigned char *next;
; 333  : 
; 334  :     if (strm == Z_NULL || strm->state == Z_NULL || dictionary == Z_NULL)

  00007	8b 5d 08	 mov	 ebx, DWORD PTR _strm$[ebp]
  0000a	56		 push	 esi
  0000b	85 db		 test	 ebx, ebx
  0000d	0f 84 7d 01 00
	00		 je	 $LN8@deflateSet
  00013	8b 73 1c	 mov	 esi, DWORD PTR [ebx+28]
  00016	85 f6		 test	 esi, esi
  00018	0f 84 72 01 00
	00		 je	 $LN8@deflateSet
  0001e	8b 4d 0c	 mov	 ecx, DWORD PTR _dictionary$[ebp]
  00021	85 c9		 test	 ecx, ecx
  00023	0f 84 67 01 00
	00		 je	 $LN8@deflateSet

; 336  :     s = strm->state;
; 337  :     wrap = s->wrap;

  00029	8b 46 18	 mov	 eax, DWORD PTR [esi+24]
  0002c	89 45 fc	 mov	 DWORD PTR _wrap$1$[ebp], eax

; 338  :     if (wrap == 2 || (wrap == 1 && s->status != INIT_STATE) || s->lookahead)

  0002f	83 f8 02	 cmp	 eax, 2
  00032	0f 84 58 01 00
	00		 je	 $LN8@deflateSet
  00038	83 f8 01	 cmp	 eax, 1
  0003b	75 0a		 jne	 SHORT $LN11@deflateSet
  0003d	83 7e 04 2a	 cmp	 DWORD PTR [esi+4], 42	; 0000002aH
  00041	0f 85 49 01 00
	00		 jne	 $LN8@deflateSet
$LN11@deflateSet:
  00047	83 7e 74 00	 cmp	 DWORD PTR [esi+116], 0
  0004b	0f 85 3f 01 00
	00		 jne	 $LN8@deflateSet

; 339  :         return Z_STREAM_ERROR;
; 340  : 
; 341  :     /* when using zlib wrappers, compute Adler-32 for provided dictionary */
; 342  :     if (wrap == 1)

  00051	57		 push	 edi
  00052	8b 7d 10	 mov	 edi, DWORD PTR _dictLength$[ebp]
  00055	83 f8 01	 cmp	 eax, 1
  00058	75 13		 jne	 SHORT $LN12@deflateSet

; 343  :         strm->adler = adler32(strm->adler, dictionary, dictLength);

  0005a	57		 push	 edi
  0005b	51		 push	 ecx
  0005c	ff 73 30	 push	 DWORD PTR [ebx+48]
  0005f	e8 00 00 00 00	 call	 _adler32@12
  00064	8b 4d 0c	 mov	 ecx, DWORD PTR _dictionary$[ebp]
  00067	89 43 30	 mov	 DWORD PTR [ebx+48], eax
  0006a	8b 45 fc	 mov	 eax, DWORD PTR _wrap$1$[ebp]
$LN12@deflateSet:

; 344  :     s->wrap = 0;                    /* avoid computing Adler-32 in read_buf */

  0006d	c7 46 18 00 00
	00 00		 mov	 DWORD PTR [esi+24], 0

; 345  : 
; 346  :     /* if dictionary would fill window, just replace the history */
; 347  :     if (dictLength >= s->w_size) {

  00074	3b 7e 2c	 cmp	 edi, DWORD PTR [esi+44]
  00077	72 4b		 jb	 SHORT $LN13@deflateSet

; 348  :         if (wrap == 0) {            /* already empty otherwise */

  00079	85 c0		 test	 eax, eax
  0007b	75 3f		 jne	 SHORT $LN14@deflateSet

; 349  :             CLEAR_HASH(s);

  0007d	8b 46 44	 mov	 eax, DWORD PTR [esi+68]
  00080	33 d2		 xor	 edx, edx
  00082	8b 4e 4c	 mov	 ecx, DWORD PTR [esi+76]
  00085	66 89 54 48 fe	 mov	 WORD PTR [eax+ecx*2-2], dx
  0008a	8b 46 4c	 mov	 eax, DWORD PTR [esi+76]
  0008d	8d 04 45 fe ff
	ff ff		 lea	 eax, DWORD PTR [eax*2-2]
  00094	50		 push	 eax
  00095	52		 push	 edx
  00096	ff 76 44	 push	 DWORD PTR [esi+68]
  00099	e8 00 00 00 00	 call	 _memset
  0009e	8b 4d 0c	 mov	 ecx, DWORD PTR _dictionary$[ebp]
  000a1	83 c4 0c	 add	 esp, 12			; 0000000cH

; 350  :             s->strstart = 0;

  000a4	c7 46 6c 00 00
	00 00		 mov	 DWORD PTR [esi+108], 0

; 351  :             s->block_start = 0L;

  000ab	c7 46 5c 00 00
	00 00		 mov	 DWORD PTR [esi+92], 0

; 352  :             s->insert = 0;

  000b2	c7 86 b4 16 00
	00 00 00 00 00	 mov	 DWORD PTR [esi+5812], 0
$LN14@deflateSet:

; 353  :         }
; 354  :         dictionary += dictLength - s->w_size;  /* use the tail */

  000bc	2b 7e 2c	 sub	 edi, DWORD PTR [esi+44]
  000bf	03 cf		 add	 ecx, edi

; 355  :         dictLength = s->w_size;

  000c1	8b 7e 2c	 mov	 edi, DWORD PTR [esi+44]
$LN13@deflateSet:

; 356  :     }
; 357  : 
; 358  :     /* insert dictionary into window and hash */
; 359  :     avail = strm->avail_in;

  000c4	8b 43 04	 mov	 eax, DWORD PTR [ebx+4]
  000c7	89 45 f8	 mov	 DWORD PTR _avail$1$[ebp], eax

; 360  :     next = strm->next_in;

  000ca	8b 03		 mov	 eax, DWORD PTR [ebx]

; 361  :     strm->avail_in = dictLength;
; 362  :     strm->next_in = (z_const Bytef *)dictionary;

  000cc	89 0b		 mov	 DWORD PTR [ebx], ecx

; 363  :     fill_window(s);

  000ce	8b ce		 mov	 ecx, esi
  000d0	89 45 10	 mov	 DWORD PTR _next$1$[ebp], eax
  000d3	89 7b 04	 mov	 DWORD PTR [ebx+4], edi
  000d6	e8 00 00 00 00	 call	 _fill_window

; 364  :     while (s->lookahead >= MIN_MATCH) {

  000db	83 7e 74 03	 cmp	 DWORD PTR [esi+116], 3
  000df	72 65		 jb	 SHORT $LN3@deflateSet
$LL2@deflateSet:

; 365  :         str = s->strstart;
; 366  :         n = s->lookahead - (MIN_MATCH-1);

  000e1	8b 46 74	 mov	 eax, DWORD PTR [esi+116]
  000e4	8b 5e 6c	 mov	 ebx, DWORD PTR [esi+108]
  000e7	83 e8 02	 sub	 eax, 2
  000ea	89 45 0c	 mov	 DWORD PTR _n$1$[ebp], eax
  000ed	0f 1f 00	 npad	 3
$LL6@deflateSet:

; 367  :         do {
; 368  :             UPDATE_HASH(s, s->ins_h, s->window[str + MIN_MATCH-1]);

  000f0	8b 46 38	 mov	 eax, DWORD PTR [esi+56]
  000f3	8b 4e 58	 mov	 ecx, DWORD PTR [esi+88]

; 369  : #ifndef FASTEST
; 370  :             s->prev[str & s->w_mask] = s->head[s->ins_h];

  000f6	8b 56 34	 mov	 edx, DWORD PTR [esi+52]
  000f9	23 d3		 and	 edx, ebx
  000fb	0f b6 7c 18 02	 movzx	 edi, BYTE PTR [eax+ebx+2]
  00100	8b 46 48	 mov	 eax, DWORD PTR [esi+72]
  00103	d3 e0		 shl	 eax, cl
  00105	8b 4e 40	 mov	 ecx, DWORD PTR [esi+64]
  00108	33 f8		 xor	 edi, eax
  0010a	23 7e 54	 and	 edi, DWORD PTR [esi+84]
  0010d	8b 46 44	 mov	 eax, DWORD PTR [esi+68]
  00110	89 7e 48	 mov	 DWORD PTR [esi+72], edi
  00113	66 8b 04 78	 mov	 ax, WORD PTR [eax+edi*2]
  00117	66 89 04 51	 mov	 WORD PTR [ecx+edx*2], ax

; 371  : #endif
; 372  :             s->head[s->ins_h] = (Pos)str;

  0011b	8b 4e 48	 mov	 ecx, DWORD PTR [esi+72]
  0011e	8b 46 44	 mov	 eax, DWORD PTR [esi+68]
  00121	66 89 1c 48	 mov	 WORD PTR [eax+ecx*2], bx

; 373  :             str++;

  00125	43		 inc	 ebx

; 374  :         } while (--n);

  00126	83 6d 0c 01	 sub	 DWORD PTR _n$1$[ebp], 1
  0012a	75 c4		 jne	 SHORT $LL6@deflateSet

; 375  :         s->strstart = str;
; 376  :         s->lookahead = MIN_MATCH-1;
; 377  :         fill_window(s);

  0012c	8b ce		 mov	 ecx, esi
  0012e	89 5e 6c	 mov	 DWORD PTR [esi+108], ebx
  00131	c7 46 74 02 00
	00 00		 mov	 DWORD PTR [esi+116], 2
  00138	e8 00 00 00 00	 call	 _fill_window
  0013d	83 7e 74 03	 cmp	 DWORD PTR [esi+116], 3
  00141	73 9e		 jae	 SHORT $LL2@deflateSet
  00143	8b 5d 08	 mov	 ebx, DWORD PTR _strm$[ebp]
$LN3@deflateSet:

; 378  :     }
; 379  :     s->strstart += s->lookahead;

  00146	8b 4e 74	 mov	 ecx, DWORD PTR [esi+116]
  00149	01 4e 6c	 add	 DWORD PTR [esi+108], ecx
  0014c	8b 46 6c	 mov	 eax, DWORD PTR [esi+108]

; 380  :     s->block_start = (long)s->strstart;

  0014f	89 46 5c	 mov	 DWORD PTR [esi+92], eax

; 381  :     s->insert = s->lookahead;
; 382  :     s->lookahead = 0;
; 383  :     s->match_length = s->prev_length = MIN_MATCH-1;
; 384  :     s->match_available = 0;
; 385  :     strm->next_in = next;

  00152	8b 45 10	 mov	 eax, DWORD PTR _next$1$[ebp]
  00155	89 8e b4 16 00
	00		 mov	 DWORD PTR [esi+5812], ecx
  0015b	c7 46 74 00 00
	00 00		 mov	 DWORD PTR [esi+116], 0
  00162	c7 46 78 02 00
	00 00		 mov	 DWORD PTR [esi+120], 2
  00169	c7 46 60 02 00
	00 00		 mov	 DWORD PTR [esi+96], 2
  00170	c7 46 68 00 00
	00 00		 mov	 DWORD PTR [esi+104], 0
  00177	89 03		 mov	 DWORD PTR [ebx], eax

; 386  :     strm->avail_in = avail;

  00179	8b 45 f8	 mov	 eax, DWORD PTR _avail$1$[ebp]
  0017c	89 43 04	 mov	 DWORD PTR [ebx+4], eax

; 387  :     s->wrap = wrap;

  0017f	8b 45 fc	 mov	 eax, DWORD PTR _wrap$1$[ebp]
  00182	5f		 pop	 edi
  00183	89 46 18	 mov	 DWORD PTR [esi+24], eax

; 388  :     return Z_OK;

  00186	33 c0		 xor	 eax, eax
  00188	5e		 pop	 esi
  00189	5b		 pop	 ebx

; 389  : }

  0018a	8b e5		 mov	 esp, ebp
  0018c	5d		 pop	 ebp
  0018d	c2 0c 00	 ret	 12			; 0000000cH
$LN8@deflateSet:
  00190	5e		 pop	 esi

; 335  :         return Z_STREAM_ERROR;

  00191	b8 fe ff ff ff	 mov	 eax, -2			; fffffffeH
  00196	5b		 pop	 ebx

; 389  : }

  00197	8b e5		 mov	 esp, ebp
  00199	5d		 pop	 ebp
  0019a	c2 0c 00	 ret	 12			; 0000000cH
_deflateSetDictionary@12 ENDP
_TEXT	ENDS
; Function compile flags: /Ogtp
; File d:\downloads\tgl-master\tgl-master\zlib\deflate.c
;	COMDAT _deflateResetKeep@4
_TEXT	SEGMENT
_strm$ = 8						; size = 4
_deflateResetKeep@4 PROC				; COMDAT

; 394  : {

  00000	55		 push	 ebp
  00001	8b ec		 mov	 ebp, esp
  00003	56		 push	 esi

; 395  :     deflate_state *s;
; 396  : 
; 397  :     if (strm == Z_NULL || strm->state == Z_NULL ||
; 398  :         strm->zalloc == (alloc_func)0 || strm->zfree == (free_func)0) {

  00004	8b 75 08	 mov	 esi, DWORD PTR _strm$[ebp]
  00007	57		 push	 edi
  00008	85 f6		 test	 esi, esi
  0000a	0f 84 95 00 00
	00		 je	 $LN3@deflateRes
  00010	8b 7e 1c	 mov	 edi, DWORD PTR [esi+28]
  00013	85 ff		 test	 edi, edi
  00015	0f 84 8a 00 00
	00		 je	 $LN3@deflateRes
  0001b	83 7e 20 00	 cmp	 DWORD PTR [esi+32], 0
  0001f	0f 84 80 00 00
	00		 je	 $LN3@deflateRes
  00025	83 7e 24 00	 cmp	 DWORD PTR [esi+36], 0
  00029	74 7a		 je	 SHORT $LN3@deflateRes

; 400  :     }
; 401  : 
; 402  :     strm->total_in = strm->total_out = 0;

  0002b	c7 46 14 00 00
	00 00		 mov	 DWORD PTR [esi+20], 0
  00032	c7 46 08 00 00
	00 00		 mov	 DWORD PTR [esi+8], 0

; 403  :     strm->msg = Z_NULL; /* use zfree if we ever allocate msg dynamically */

  00039	c7 46 18 00 00
	00 00		 mov	 DWORD PTR [esi+24], 0

; 404  :     strm->data_type = Z_UNKNOWN;

  00040	c7 46 2c 02 00
	00 00		 mov	 DWORD PTR [esi+44], 2

; 405  : 
; 406  :     s = (deflate_state *)strm->state;
; 407  :     s->pending = 0;
; 408  :     s->pending_out = s->pending_buf;

  00047	8b 47 08	 mov	 eax, DWORD PTR [edi+8]
  0004a	89 47 10	 mov	 DWORD PTR [edi+16], eax

; 409  : 
; 410  :     if (s->wrap < 0) {

  0004d	8b 47 18	 mov	 eax, DWORD PTR [edi+24]
  00050	c7 47 14 00 00
	00 00		 mov	 DWORD PTR [edi+20], 0
  00057	85 c0		 test	 eax, eax
  00059	79 05		 jns	 SHORT $LN4@deflateRes

; 411  :         s->wrap = -s->wrap; /* was made negative by deflate(..., Z_FINISH); */

  0005b	f7 d8		 neg	 eax
  0005d	89 47 18	 mov	 DWORD PTR [edi+24], eax
$LN4@deflateRes:

; 412  :     }
; 413  :     s->status = s->wrap ? INIT_STATE : BUSY_STATE;

  00060	8b 4f 18	 mov	 ecx, DWORD PTR [edi+24]
  00063	b8 71 00 00 00	 mov	 eax, 113		; 00000071H
  00068	85 c9		 test	 ecx, ecx
  0006a	ba 2a 00 00 00	 mov	 edx, 42			; 0000002aH

; 414  :     strm->adler =

  0006f	6a 00		 push	 0
  00071	0f 45 c2	 cmovne	 eax, edx
  00074	89 47 04	 mov	 DWORD PTR [edi+4], eax
  00077	6a 00		 push	 0
  00079	6a 00		 push	 0
  0007b	83 f9 02	 cmp	 ecx, 2
  0007e	75 07		 jne	 SHORT $LN6@deflateRes
  00080	e8 00 00 00 00	 call	 _crc32@12
  00085	eb 05		 jmp	 SHORT $LN7@deflateRes
$LN6@deflateRes:
  00087	e8 00 00 00 00	 call	 _adler32@12
$LN7@deflateRes:
  0008c	89 46 30	 mov	 DWORD PTR [esi+48], eax

; 415  : #ifdef GZIP
; 416  :         s->wrap == 2 ? crc32(0L, Z_NULL, 0) :
; 417  : #endif
; 418  :         adler32(0L, Z_NULL, 0);
; 419  :     s->last_flush = Z_NO_FLUSH;
; 420  : 
; 421  :     _tr_init(s);

  0008f	8b cf		 mov	 ecx, edi
  00091	c7 47 28 00 00
	00 00		 mov	 DWORD PTR [edi+40], 0
  00098	e8 00 00 00 00	 call	 __tr_init
  0009d	5f		 pop	 edi

; 422  : 
; 423  :     return Z_OK;

  0009e	33 c0		 xor	 eax, eax
  000a0	5e		 pop	 esi

; 424  : }

  000a1	5d		 pop	 ebp
  000a2	c2 04 00	 ret	 4
$LN3@deflateRes:
  000a5	5f		 pop	 edi

; 399  :         return Z_STREAM_ERROR;

  000a6	b8 fe ff ff ff	 mov	 eax, -2			; fffffffeH
  000ab	5e		 pop	 esi

; 424  : }

  000ac	5d		 pop	 ebp
  000ad	c2 04 00	 ret	 4
_deflateResetKeep@4 ENDP
_TEXT	ENDS
; Function compile flags: /Ogtp
; File d:\downloads\tgl-master\tgl-master\zlib\deflate.c
;	COMDAT _deflateReset@4
_TEXT	SEGMENT
_strm$ = 8						; size = 4
_deflateReset@4 PROC					; COMDAT

; 429  : {

  00000	55		 push	 ebp
  00001	8b ec		 mov	 ebp, esp
  00003	56		 push	 esi
  00004	57		 push	 edi

; 430  :     int ret;
; 431  : 
; 432  :     ret = deflateResetKeep(strm);

  00005	8b 7d 08	 mov	 edi, DWORD PTR _strm$[ebp]
  00008	57		 push	 edi
  00009	e8 00 00 00 00	 call	 _deflateResetKeep@4
  0000e	8b f0		 mov	 esi, eax

; 433  :     if (ret == Z_OK)

  00010	85 f6		 test	 esi, esi
  00012	75 0a		 jne	 SHORT $LN2@deflateRes

; 434  :         lm_init(strm->state);

  00014	8b 4f 1c	 mov	 ecx, DWORD PTR [edi+28]
  00017	e8 00 00 00 00	 call	 _lm_init

; 435  :     return ret;

  0001c	8b c6		 mov	 eax, esi
$LN2@deflateRes:
  0001e	5f		 pop	 edi
  0001f	5e		 pop	 esi

; 436  : }

  00020	5d		 pop	 ebp
  00021	c2 04 00	 ret	 4
_deflateReset@4 ENDP
_TEXT	ENDS
; Function compile flags: /Ogtp
; File d:\downloads\tgl-master\tgl-master\zlib\deflate.c
;	COMDAT _deflateSetHeader@8
_TEXT	SEGMENT
_strm$ = 8						; size = 4
_head$ = 12						; size = 4
_deflateSetHeader@8 PROC				; COMDAT

; 442  : {

  00000	55		 push	 ebp
  00001	8b ec		 mov	 ebp, esp

; 443  :     if (strm == Z_NULL || strm->state == Z_NULL) return Z_STREAM_ERROR;

  00003	8b 4d 08	 mov	 ecx, DWORD PTR _strm$[ebp]
  00006	85 c9		 test	 ecx, ecx
  00008	74 19		 je	 SHORT $LN3@deflateSet
  0000a	8b 49 1c	 mov	 ecx, DWORD PTR [ecx+28]
  0000d	85 c9		 test	 ecx, ecx
  0000f	74 12		 je	 SHORT $LN3@deflateSet

; 444  :     if (strm->state->wrap != 2) return Z_STREAM_ERROR;

  00011	83 79 18 02	 cmp	 DWORD PTR [ecx+24], 2
  00015	75 0c		 jne	 SHORT $LN3@deflateSet

; 445  :     strm->state->gzhead = head;

  00017	8b 45 0c	 mov	 eax, DWORD PTR _head$[ebp]
  0001a	89 41 1c	 mov	 DWORD PTR [ecx+28], eax

; 446  :     return Z_OK;

  0001d	33 c0		 xor	 eax, eax

; 447  : }

  0001f	5d		 pop	 ebp
  00020	c2 08 00	 ret	 8
$LN3@deflateSet:

; 443  :     if (strm == Z_NULL || strm->state == Z_NULL) return Z_STREAM_ERROR;

  00023	b8 fe ff ff ff	 mov	 eax, -2			; fffffffeH

; 447  : }

  00028	5d		 pop	 ebp
  00029	c2 08 00	 ret	 8
_deflateSetHeader@8 ENDP
_TEXT	ENDS
; Function compile flags: /Ogtp
; File d:\downloads\tgl-master\tgl-master\zlib\deflate.c
;	COMDAT _deflatePending@12
_TEXT	SEGMENT
_strm$ = 8						; size = 4
_pending$ = 12						; size = 4
_bits$ = 16						; size = 4
_deflatePending@12 PROC					; COMDAT

; 454  : {

  00000	55		 push	 ebp
  00001	8b ec		 mov	 ebp, esp

; 455  :     if (strm == Z_NULL || strm->state == Z_NULL) return Z_STREAM_ERROR;

  00003	8b 4d 08	 mov	 ecx, DWORD PTR _strm$[ebp]
  00006	85 c9		 test	 ecx, ecx
  00008	74 2b		 je	 SHORT $LN3@deflatePen
  0000a	8b 41 1c	 mov	 eax, DWORD PTR [ecx+28]
  0000d	85 c0		 test	 eax, eax
  0000f	74 24		 je	 SHORT $LN3@deflatePen

; 456  :     if (pending != Z_NULL)

  00011	8b 55 0c	 mov	 edx, DWORD PTR _pending$[ebp]
  00014	85 d2		 test	 edx, edx
  00016	74 05		 je	 SHORT $LN4@deflatePen

; 457  :         *pending = strm->state->pending;

  00018	8b 40 14	 mov	 eax, DWORD PTR [eax+20]
  0001b	89 02		 mov	 DWORD PTR [edx], eax
$LN4@deflatePen:

; 458  :     if (bits != Z_NULL)

  0001d	8b 55 10	 mov	 edx, DWORD PTR _bits$[ebp]
  00020	85 d2		 test	 edx, edx
  00022	74 0b		 je	 SHORT $LN5@deflatePen

; 459  :         *bits = strm->state->bi_valid;

  00024	8b 41 1c	 mov	 eax, DWORD PTR [ecx+28]
  00027	8b 80 bc 16 00
	00		 mov	 eax, DWORD PTR [eax+5820]
  0002d	89 02		 mov	 DWORD PTR [edx], eax
$LN5@deflatePen:

; 460  :     return Z_OK;

  0002f	33 c0		 xor	 eax, eax

; 461  : }

  00031	5d		 pop	 ebp
  00032	c2 0c 00	 ret	 12			; 0000000cH
$LN3@deflatePen:

; 455  :     if (strm == Z_NULL || strm->state == Z_NULL) return Z_STREAM_ERROR;

  00035	b8 fe ff ff ff	 mov	 eax, -2			; fffffffeH

; 461  : }

  0003a	5d		 pop	 ebp
  0003b	c2 0c 00	 ret	 12			; 0000000cH
_deflatePending@12 ENDP
_TEXT	ENDS
; Function compile flags: /Ogtp
; File d:\downloads\tgl-master\tgl-master\zlib\deflate.c
;	COMDAT _deflatePrime@12
_TEXT	SEGMENT
_strm$ = 8						; size = 4
_bits$ = 12						; size = 4
_value$ = 16						; size = 4
_deflatePrime@12 PROC					; COMDAT

; 468  : {

  00000	55		 push	 ebp
  00001	8b ec		 mov	 ebp, esp
  00003	56		 push	 esi

; 469  :     deflate_state *s;
; 470  :     int put;
; 471  : 
; 472  :     if (strm == Z_NULL || strm->state == Z_NULL) return Z_STREAM_ERROR;

  00004	8b 75 08	 mov	 esi, DWORD PTR _strm$[ebp]
  00007	85 f6		 test	 esi, esi
  00009	74 75		 je	 SHORT $LN6@deflatePri
  0000b	8b 76 1c	 mov	 esi, DWORD PTR [esi+28]
  0000e	85 f6		 test	 esi, esi
  00010	74 6e		 je	 SHORT $LN6@deflatePri

; 473  :     s = strm->state;
; 474  :     if ((Bytef *)(s->d_buf) < s->pending_out + ((Buf_size + 7) >> 3))

  00012	8b 46 10	 mov	 eax, DWORD PTR [esi+16]
  00015	83 c0 02	 add	 eax, 2
  00018	39 86 a4 16 00
	00		 cmp	 DWORD PTR [esi+5796], eax
  0001e	73 0a		 jae	 SHORT $LN12@deflatePri

; 475  :         return Z_BUF_ERROR;

  00020	b8 fb ff ff ff	 mov	 eax, -5			; fffffffbH
  00025	5e		 pop	 esi

; 487  : }

  00026	5d		 pop	 ebp
  00027	c2 0c 00	 ret	 12			; 0000000cH
$LN12@deflatePri:
  0002a	53		 push	 ebx

; 475  :         return Z_BUF_ERROR;

  0002b	8b 5d 0c	 mov	 ebx, DWORD PTR _bits$[ebp]
  0002e	57		 push	 edi
  0002f	90		 npad	 1
$LL4@deflatePri:

; 476  :     do {
; 477  :         put = Buf_size - s->bi_valid;

  00030	8b 96 bc 16 00
	00		 mov	 edx, DWORD PTR [esi+5820]
  00036	bf 10 00 00 00	 mov	 edi, 16			; 00000010H
  0003b	2b fa		 sub	 edi, edx

; 478  :         if (put > bits)
; 479  :             put = bits;
; 480  :         s->bi_buf |= (ush)((value & ((1 << put) - 1)) << s->bi_valid);

  0003d	b8 01 00 00 00	 mov	 eax, 1
  00042	3b fb		 cmp	 edi, ebx
  00044	0f 4f fb	 cmovg	 edi, ebx
  00047	8b cf		 mov	 ecx, edi
  00049	66 d3 e0	 shl	 ax, cl
  0004c	8b ca		 mov	 ecx, edx
  0004e	66 48		 dec	 ax
  00050	66 23 45 10	 and	 ax, WORD PTR _value$[ebp]
  00054	66 d3 e0	 shl	 ax, cl

; 481  :         s->bi_valid += put;
; 482  :         _tr_flush_bits(s);

  00057	8b ce		 mov	 ecx, esi
  00059	66 09 86 b8 16
	00 00		 or	 WORD PTR [esi+5816], ax
  00060	8d 04 3a	 lea	 eax, DWORD PTR [edx+edi]
  00063	89 86 bc 16 00
	00		 mov	 DWORD PTR [esi+5820], eax
  00069	e8 00 00 00 00	 call	 __tr_flush_bits

; 483  :         value >>= put;

  0006e	8b cf		 mov	 ecx, edi
  00070	d3 7d 10	 sar	 DWORD PTR _value$[ebp], cl

; 484  :         bits -= put;

  00073	2b df		 sub	 ebx, edi

; 485  :     } while (bits);

  00075	75 b9		 jne	 SHORT $LL4@deflatePri

; 486  :     return Z_OK;

  00077	5f		 pop	 edi
  00078	5b		 pop	 ebx
  00079	33 c0		 xor	 eax, eax
  0007b	5e		 pop	 esi

; 487  : }

  0007c	5d		 pop	 ebp
  0007d	c2 0c 00	 ret	 12			; 0000000cH
$LN6@deflatePri:

; 469  :     deflate_state *s;
; 470  :     int put;
; 471  : 
; 472  :     if (strm == Z_NULL || strm->state == Z_NULL) return Z_STREAM_ERROR;

  00080	b8 fe ff ff ff	 mov	 eax, -2			; fffffffeH
  00085	5e		 pop	 esi

; 487  : }

  00086	5d		 pop	 ebp
  00087	c2 0c 00	 ret	 12			; 0000000cH
_deflatePrime@12 ENDP
_TEXT	ENDS
; Function compile flags: /Ogtp
; File d:\downloads\tgl-master\tgl-master\zlib\deflate.c
;	COMDAT _deflateParams@12
_TEXT	SEGMENT
_strm$ = 8						; size = 4
_level$ = 12						; size = 4
_strategy$ = 16						; size = 4
_deflateParams@12 PROC					; COMDAT

; 494  : {

  00000	55		 push	 ebp
  00001	8b ec		 mov	 ebp, esp
  00003	53		 push	 ebx

; 495  :     deflate_state *s;
; 496  :     compress_func func;
; 497  :     int err = Z_OK;
; 498  : 
; 499  :     if (strm == Z_NULL || strm->state == Z_NULL) return Z_STREAM_ERROR;

  00004	8b 5d 08	 mov	 ebx, DWORD PTR _strm$[ebp]
  00007	33 d2		 xor	 edx, edx
  00009	57		 push	 edi
  0000a	85 db		 test	 ebx, ebx
  0000c	0f 84 da 00 00
	00		 je	 $LN3@deflatePar
  00012	8b 7b 1c	 mov	 edi, DWORD PTR [ebx+28]
  00015	85 ff		 test	 edi, edi
  00017	0f 84 cf 00 00
	00		 je	 $LN3@deflatePar

; 500  :     s = strm->state;
; 501  : 
; 502  : #ifdef FASTEST
; 503  :     if (level != 0) level = 1;
; 504  : #else
; 505  :     if (level == Z_DEFAULT_COMPRESSION) level = 6;

  0001d	56		 push	 esi
  0001e	8b 75 0c	 mov	 esi, DWORD PTR _level$[ebp]
  00021	83 fe ff	 cmp	 esi, -1
  00024	75 05		 jne	 SHORT $LN4@deflatePar
  00026	8d 72 06	 lea	 esi, DWORD PTR [edx+6]

; 506  : #endif
; 507  :     if (level < 0 || level > 9 || strategy < 0 || strategy > Z_FIXED) {

  00029	eb 11		 jmp	 SHORT $LN13@deflatePar
$LN4@deflatePar:
  0002b	85 f6		 test	 esi, esi
  0002d	0f 88 ad 00 00
	00		 js	 $LN6@deflatePar
  00033	83 fe 09	 cmp	 esi, 9
  00036	0f 8f a4 00 00
	00		 jg	 $LN6@deflatePar
$LN13@deflatePar:
  0003c	8b 45 10	 mov	 eax, DWORD PTR _strategy$[ebp]
  0003f	83 f8 04	 cmp	 eax, 4
  00042	0f 87 98 00 00
	00		 ja	 $LN6@deflatePar

; 509  :     }
; 510  :     func = configuration_table[s->level].func;
; 511  : 
; 512  :     if ((strategy != s->strategy || func != configuration_table[level].func) &&

  00048	3b 87 88 00 00
	00		 cmp	 eax, DWORD PTR [edi+136]
  0004e	75 1c		 jne	 SHORT $LN8@deflatePar
  00050	8b 87 84 00 00
	00		 mov	 eax, DWORD PTR [edi+132]
  00056	8d 0c 76	 lea	 ecx, DWORD PTR [esi+esi*2]
  00059	8d 04 40	 lea	 eax, DWORD PTR [eax+eax*2]
  0005c	8b 04 85 08 00
	00 00		 mov	 eax, DWORD PTR _configuration_table[eax*4+8]
  00063	3b 04 8d 08 00
	00 00		 cmp	 eax, DWORD PTR _configuration_table[ecx*4+8]
  0006a	74 1c		 je	 SHORT $LN9@deflatePar
$LN8@deflatePar:
  0006c	39 53 08	 cmp	 DWORD PTR [ebx+8], edx
  0006f	74 17		 je	 SHORT $LN9@deflatePar

; 513  :         strm->total_in != 0) {
; 514  :         /* Flush the last buffer: */
; 515  :         err = deflate(strm, Z_BLOCK);

  00071	6a 05		 push	 5
  00073	53		 push	 ebx
  00074	e8 00 00 00 00	 call	 _deflate@8
  00079	8b d0		 mov	 edx, eax

; 516  :         if (err == Z_BUF_ERROR && s->pending == 0)

  0007b	83 fa fb	 cmp	 edx, -5			; fffffffbH
  0007e	75 08		 jne	 SHORT $LN9@deflatePar
  00080	33 c0		 xor	 eax, eax
  00082	39 47 14	 cmp	 DWORD PTR [edi+20], eax
  00085	0f 44 d0	 cmove	 edx, eax
$LN9@deflatePar:

; 517  :             err = Z_OK;
; 518  :     }
; 519  :     if (s->level != level) {

  00088	39 b7 84 00 00
	00		 cmp	 DWORD PTR [edi+132], esi
  0008e	74 3e		 je	 SHORT $LN10@deflatePar

; 520  :         s->level = level;
; 521  :         s->max_lazy_match   = configuration_table[level].max_lazy;

  00090	8d 0c 76	 lea	 ecx, DWORD PTR [esi+esi*2]
  00093	89 b7 84 00 00
	00		 mov	 DWORD PTR [edi+132], esi
  00099	0f b7 04 8d 02
	00 00 00	 movzx	 eax, WORD PTR _configuration_table[ecx*4+2]
  000a1	89 87 80 00 00
	00		 mov	 DWORD PTR [edi+128], eax

; 522  :         s->good_match       = configuration_table[level].good_length;

  000a7	0f b7 04 8d 00
	00 00 00	 movzx	 eax, WORD PTR _configuration_table[ecx*4]
  000af	89 87 8c 00 00
	00		 mov	 DWORD PTR [edi+140], eax

; 523  :         s->nice_match       = configuration_table[level].nice_length;

  000b5	0f b7 04 8d 04
	00 00 00	 movzx	 eax, WORD PTR _configuration_table[ecx*4+4]
  000bd	89 87 90 00 00
	00		 mov	 DWORD PTR [edi+144], eax

; 524  :         s->max_chain_length = configuration_table[level].max_chain;

  000c3	0f b7 04 8d 06
	00 00 00	 movzx	 eax, WORD PTR _configuration_table[ecx*4+6]
  000cb	89 47 7c	 mov	 DWORD PTR [edi+124], eax
$LN10@deflatePar:

; 525  :     }
; 526  :     s->strategy = strategy;

  000ce	8b 45 10	 mov	 eax, DWORD PTR _strategy$[ebp]
  000d1	5e		 pop	 esi
  000d2	89 87 88 00 00
	00		 mov	 DWORD PTR [edi+136], eax

; 527  :     return err;

  000d8	8b c2		 mov	 eax, edx
  000da	5f		 pop	 edi
  000db	5b		 pop	 ebx

; 528  : }

  000dc	5d		 pop	 ebp
  000dd	c2 0c 00	 ret	 12			; 0000000cH
$LN6@deflatePar:
  000e0	5e		 pop	 esi
  000e1	5f		 pop	 edi

; 508  :         return Z_STREAM_ERROR;

  000e2	b8 fe ff ff ff	 mov	 eax, -2			; fffffffeH
  000e7	5b		 pop	 ebx

; 528  : }

  000e8	5d		 pop	 ebp
  000e9	c2 0c 00	 ret	 12			; 0000000cH
$LN3@deflatePar:
  000ec	5f		 pop	 edi

; 495  :     deflate_state *s;
; 496  :     compress_func func;
; 497  :     int err = Z_OK;
; 498  : 
; 499  :     if (strm == Z_NULL || strm->state == Z_NULL) return Z_STREAM_ERROR;

  000ed	b8 fe ff ff ff	 mov	 eax, -2			; fffffffeH
  000f2	5b		 pop	 ebx

; 528  : }

  000f3	5d		 pop	 ebp
  000f4	c2 0c 00	 ret	 12			; 0000000cH
_deflateParams@12 ENDP
_TEXT	ENDS
; Function compile flags: /Ogtp
; File d:\downloads\tgl-master\tgl-master\zlib\deflate.c
;	COMDAT _deflateTune@20
_TEXT	SEGMENT
_strm$ = 8						; size = 4
_good_length$ = 12					; size = 4
_max_lazy$ = 16						; size = 4
_nice_length$ = 20					; size = 4
_max_chain$ = 24					; size = 4
_deflateTune@20 PROC					; COMDAT

; 537  : {

  00000	55		 push	 ebp
  00001	8b ec		 mov	 ebp, esp

; 538  :     deflate_state *s;
; 539  : 
; 540  :     if (strm == Z_NULL || strm->state == Z_NULL) return Z_STREAM_ERROR;

  00003	8b 4d 08	 mov	 ecx, DWORD PTR _strm$[ebp]
  00006	85 c9		 test	 ecx, ecx
  00008	74 2e		 je	 SHORT $LN3@deflateTun
  0000a	8b 49 1c	 mov	 ecx, DWORD PTR [ecx+28]
  0000d	85 c9		 test	 ecx, ecx
  0000f	74 27		 je	 SHORT $LN3@deflateTun

; 541  :     s = strm->state;
; 542  :     s->good_match = good_length;

  00011	8b 45 0c	 mov	 eax, DWORD PTR _good_length$[ebp]
  00014	89 81 8c 00 00
	00		 mov	 DWORD PTR [ecx+140], eax

; 543  :     s->max_lazy_match = max_lazy;

  0001a	8b 45 10	 mov	 eax, DWORD PTR _max_lazy$[ebp]
  0001d	89 81 80 00 00
	00		 mov	 DWORD PTR [ecx+128], eax

; 544  :     s->nice_match = nice_length;

  00023	8b 45 14	 mov	 eax, DWORD PTR _nice_length$[ebp]
  00026	89 81 90 00 00
	00		 mov	 DWORD PTR [ecx+144], eax

; 545  :     s->max_chain_length = max_chain;

  0002c	8b 45 18	 mov	 eax, DWORD PTR _max_chain$[ebp]
  0002f	89 41 7c	 mov	 DWORD PTR [ecx+124], eax

; 546  :     return Z_OK;

  00032	33 c0		 xor	 eax, eax

; 547  : }

  00034	5d		 pop	 ebp
  00035	c2 14 00	 ret	 20			; 00000014H
$LN3@deflateTun:

; 538  :     deflate_state *s;
; 539  : 
; 540  :     if (strm == Z_NULL || strm->state == Z_NULL) return Z_STREAM_ERROR;

  00038	b8 fe ff ff ff	 mov	 eax, -2			; fffffffeH

; 547  : }

  0003d	5d		 pop	 ebp
  0003e	c2 14 00	 ret	 20			; 00000014H
_deflateTune@20 ENDP
_TEXT	ENDS
; Function compile flags: /Ogtp
; File d:\downloads\tgl-master\tgl-master\zlib\deflate.c
;	COMDAT _deflateBound@8
_TEXT	SEGMENT
_strm$ = 8						; size = 4
_complen$1$ = 12					; size = 4
_sourceLen$ = 12					; size = 4
_deflateBound@8 PROC					; COMDAT

; 569  : {

  00000	55		 push	 ebp
  00001	8b ec		 mov	 ebp, esp

; 570  :     deflate_state *s;
; 571  :     uLong complen, wraplen;
; 572  :     Bytef *str;
; 573  : 
; 574  :     /* conservative upper bound for compressed data */
; 575  :     complen = sourceLen +
; 576  :               ((sourceLen + 7) >> 3) + ((sourceLen + 63) >> 6) + 5;
; 577  : 
; 578  :     /* if can't get parameters, return conservative bound plus zlib wrapper */
; 579  :     if (strm == Z_NULL || strm->state == Z_NULL)

  00003	8b 55 08	 mov	 edx, DWORD PTR _strm$[ebp]
  00006	53		 push	 ebx
  00007	8b 5d 0c	 mov	 ebx, DWORD PTR _sourceLen$[ebp]
  0000a	8d 4b 3f	 lea	 ecx, DWORD PTR [ebx+63]
  0000d	c1 e9 06	 shr	 ecx, 6
  00010	8d 43 07	 lea	 eax, DWORD PTR [ebx+7]
  00013	c1 e8 03	 shr	 eax, 3
  00016	03 cb		 add	 ecx, ebx
  00018	83 c0 05	 add	 eax, 5
  0001b	03 c8		 add	 ecx, eax
  0001d	89 4d 0c	 mov	 DWORD PTR _complen$1$[ebp], ecx
  00020	85 d2		 test	 edx, edx
  00022	0f 84 bd 00 00
	00		 je	 $LN11@deflateBou
  00028	8b 52 1c	 mov	 edx, DWORD PTR [edx+28]
  0002b	85 d2		 test	 edx, edx
  0002d	0f 84 b2 00 00
	00		 je	 $LN11@deflateBou

; 581  : 
; 582  :     /* compute wrapper length */
; 583  :     s = strm->state;
; 584  :     switch (s->wrap) {

  00033	8b 42 18	 mov	 eax, DWORD PTR [edx+24]
  00036	56		 push	 esi
  00037	83 e8 00	 sub	 eax, 0
  0003a	0f 84 98 00 00
	00		 je	 $LN12@deflateBou
  00040	83 e8 01	 sub	 eax, 1
  00043	0f 84 80 00 00
	00		 je	 $LN13@deflateBou
  00049	83 e8 01	 sub	 eax, 1
  0004c	74 07		 je	 SHORT $LN14@deflateBou

; 610  :     default:                                /* for compiler happiness */
; 611  :         wraplen = 6;

  0004e	be 06 00 00 00	 mov	 esi, 6
  00053	eb 48		 jmp	 SHORT $LN2@deflateBou
$LN14@deflateBou:
  00055	57		 push	 edi

; 591  :     case 2:                                 /* gzip wrapper */
; 592  :         wraplen = 18;
; 593  :         if (s->gzhead != Z_NULL) {          /* user-supplied gzip header */

  00056	8b 7a 1c	 mov	 edi, DWORD PTR [edx+28]
  00059	be 12 00 00 00	 mov	 esi, 18			; 00000012H
  0005e	85 ff		 test	 edi, edi
  00060	74 3a		 je	 SHORT $LN32@deflateBou

; 594  :             if (s->gzhead->extra != Z_NULL)

  00062	83 7f 10 00	 cmp	 DWORD PTR [edi+16], 0
  00066	74 06		 je	 SHORT $LN16@deflateBou

; 595  :                 wraplen += 2 + s->gzhead->extra_len;

  00068	8b 77 14	 mov	 esi, DWORD PTR [edi+20]
  0006b	83 c6 14	 add	 esi, 20			; 00000014H
$LN16@deflateBou:

; 596  :             str = s->gzhead->name;

  0006e	8b 4f 1c	 mov	 ecx, DWORD PTR [edi+28]

; 597  :             if (str != Z_NULL)

  00071	85 c9		 test	 ecx, ecx
  00073	74 0a		 je	 SHORT $LN5@deflateBou
$LL6@deflateBou:

; 598  :                 do {
; 599  :                     wraplen++;
; 600  :                 } while (*str++);

  00075	8a 01		 mov	 al, BYTE PTR [ecx]
  00077	8d 49 01	 lea	 ecx, DWORD PTR [ecx+1]
  0007a	46		 inc	 esi
  0007b	84 c0		 test	 al, al
  0007d	75 f6		 jne	 SHORT $LL6@deflateBou
$LN5@deflateBou:

; 601  :             str = s->gzhead->comment;

  0007f	8b 4f 24	 mov	 ecx, DWORD PTR [edi+36]

; 602  :             if (str != Z_NULL)

  00082	85 c9		 test	 ecx, ecx
  00084	74 0a		 je	 SHORT $LN8@deflateBou
$LL9@deflateBou:

; 603  :                 do {
; 604  :                     wraplen++;
; 605  :                 } while (*str++);

  00086	8a 01		 mov	 al, BYTE PTR [ecx]
  00088	8d 49 01	 lea	 ecx, DWORD PTR [ecx+1]
  0008b	46		 inc	 esi
  0008c	84 c0		 test	 al, al
  0008e	75 f6		 jne	 SHORT $LL9@deflateBou
$LN8@deflateBou:

; 606  :             if (s->gzhead->hcrc)

  00090	83 7f 2c 00	 cmp	 DWORD PTR [edi+44], 0

; 608  :         }
; 609  :         break;

  00094	8b 4d 0c	 mov	 ecx, DWORD PTR _complen$1$[ebp]
  00097	74 03		 je	 SHORT $LN32@deflateBou

; 607  :                 wraplen += 2;

  00099	83 c6 02	 add	 esi, 2
$LN32@deflateBou:
  0009c	5f		 pop	 edi
$LN2@deflateBou:

; 612  :     }
; 613  : 
; 614  :     /* if not default parameters, return conservative bound */
; 615  :     if (s->w_bits != 15 || s->hash_bits != 8 + 7)

  0009d	83 7a 30 0f	 cmp	 DWORD PTR [edx+48], 15	; 0000000fH
  000a1	75 39		 jne	 SHORT $LN22@deflateBou
  000a3	83 7a 50 0f	 cmp	 DWORD PTR [edx+80], 15	; 0000000fH
  000a7	75 33		 jne	 SHORT $LN22@deflateBou

; 617  : 
; 618  :     /* default settings: return tight bound for that case */
; 619  :     return sourceLen + (sourceLen >> 12) + (sourceLen >> 14) +

  000a9	8b cb		 mov	 ecx, ebx
  000ab	8b d3		 mov	 edx, ebx
  000ad	c1 e9 0e	 shr	 ecx, 14			; 0000000eH
  000b0	8b c3		 mov	 eax, ebx
  000b2	03 ce		 add	 ecx, esi
  000b4	c1 e8 0c	 shr	 eax, 12			; 0000000cH
  000b7	c1 ea 19	 shr	 edx, 25			; 00000019H
  000ba	83 c0 07	 add	 eax, 7
  000bd	03 ca		 add	 ecx, edx
  000bf	03 c1		 add	 eax, ecx
  000c1	5e		 pop	 esi
  000c2	03 c3		 add	 eax, ebx
  000c4	5b		 pop	 ebx

; 620  :            (sourceLen >> 25) + 13 - 6 + wraplen;
; 621  : }

  000c5	5d		 pop	 ebp
  000c6	c2 08 00	 ret	 8
$LN13@deflateBou:

; 587  :         break;
; 588  :     case 1:                                 /* zlib wrapper */
; 589  :         wraplen = 6 + (s->strstart ? 4 : 0);

  000c9	8b 72 6c	 mov	 esi, DWORD PTR [edx+108]
  000cc	f7 de		 neg	 esi
  000ce	1b f6		 sbb	 esi, esi
  000d0	83 e6 04	 and	 esi, 4
  000d3	83 c6 06	 add	 esi, 6

; 590  :         break;

  000d6	eb c5		 jmp	 SHORT $LN2@deflateBou
$LN12@deflateBou:

; 585  :     case 0:                                 /* raw deflate */
; 586  :         wraplen = 0;

  000d8	33 f6		 xor	 esi, esi
  000da	eb c1		 jmp	 SHORT $LN2@deflateBou
$LN22@deflateBou:

; 616  :         return complen + wraplen;

  000dc	8d 04 0e	 lea	 eax, DWORD PTR [esi+ecx]
  000df	5e		 pop	 esi
  000e0	5b		 pop	 ebx

; 620  :            (sourceLen >> 25) + 13 - 6 + wraplen;
; 621  : }

  000e1	5d		 pop	 ebp
  000e2	c2 08 00	 ret	 8
$LN11@deflateBou:

; 580  :         return complen + 6;

  000e5	8d 41 06	 lea	 eax, DWORD PTR [ecx+6]
  000e8	5b		 pop	 ebx

; 620  :            (sourceLen >> 25) + 13 - 6 + wraplen;
; 621  : }

  000e9	5d		 pop	 ebp
  000ea	c2 08 00	 ret	 8
_deflateBound@8 ENDP
_TEXT	ENDS
; Function compile flags: /Ogtp
; File d:\downloads\tgl-master\tgl-master\zlib\deflate.c
;	COMDAT _putShortMSB
_TEXT	SEGMENT
_putShortMSB PROC					; COMDAT
; _s$ = ecx
; _b$ = edx

; 631  : {

  00000	56		 push	 esi
  00001	57		 push	 edi
  00002	8b f9		 mov	 edi, ecx

; 632  :     put_byte(s, (Byte)(b >> 8));

  00004	8b ca		 mov	 ecx, edx
  00006	c1 e9 08	 shr	 ecx, 8
  00009	8b 47 14	 mov	 eax, DWORD PTR [edi+20]
  0000c	8b 77 08	 mov	 esi, DWORD PTR [edi+8]
  0000f	88 0c 06	 mov	 BYTE PTR [esi+eax], cl
  00012	ff 47 14	 inc	 DWORD PTR [edi+20]
  00015	8b 4f 14	 mov	 ecx, DWORD PTR [edi+20]

; 633  :     put_byte(s, (Byte)(b & 0xff));

  00018	8b 47 08	 mov	 eax, DWORD PTR [edi+8]
  0001b	88 14 01	 mov	 BYTE PTR [ecx+eax], dl
  0001e	ff 47 14	 inc	 DWORD PTR [edi+20]
  00021	5f		 pop	 edi
  00022	5e		 pop	 esi

; 634  : }

  00023	c3		 ret	 0
_putShortMSB ENDP
_TEXT	ENDS
; Function compile flags: /Ogtp
; File d:\downloads\tgl-master\tgl-master\zlib\deflate.c
;	COMDAT _flush_pending
_TEXT	SEGMENT
_flush_pending PROC					; COMDAT
; _strm$ = ecx

; 644  : {

  00000	53		 push	 ebx
  00001	8b d9		 mov	 ebx, ecx
  00003	56		 push	 esi
  00004	57		 push	 edi

; 645  :     unsigned len;
; 646  :     deflate_state *s = strm->state;

  00005	8b 73 1c	 mov	 esi, DWORD PTR [ebx+28]

; 647  : 
; 648  :     _tr_flush_bits(s);

  00008	8b ce		 mov	 ecx, esi
  0000a	e8 00 00 00 00	 call	 __tr_flush_bits

; 649  :     len = s->pending;

  0000f	8b 7e 14	 mov	 edi, DWORD PTR [esi+20]

; 650  :     if (len > strm->avail_out) len = strm->avail_out;

  00012	3b 7b 10	 cmp	 edi, DWORD PTR [ebx+16]
  00015	0f 47 7b 10	 cmova	 edi, DWORD PTR [ebx+16]

; 651  :     if (len == 0) return;

  00019	85 ff		 test	 edi, edi
  0001b	74 26		 je	 SHORT $LN4@flush_pend

; 652  : 
; 653  :     zmemcpy(strm->next_out, s->pending_out, len);

  0001d	57		 push	 edi
  0001e	ff 76 10	 push	 DWORD PTR [esi+16]
  00021	ff 73 0c	 push	 DWORD PTR [ebx+12]
  00024	e8 00 00 00 00	 call	 _memcpy

; 654  :     strm->next_out  += len;

  00029	01 7b 0c	 add	 DWORD PTR [ebx+12], edi
  0002c	83 c4 0c	 add	 esp, 12			; 0000000cH

; 655  :     s->pending_out  += len;

  0002f	01 7e 10	 add	 DWORD PTR [esi+16], edi

; 656  :     strm->total_out += len;

  00032	01 7b 14	 add	 DWORD PTR [ebx+20], edi

; 657  :     strm->avail_out  -= len;

  00035	29 7b 10	 sub	 DWORD PTR [ebx+16], edi

; 658  :     s->pending -= len;

  00038	29 7e 14	 sub	 DWORD PTR [esi+20], edi

; 659  :     if (s->pending == 0) {

  0003b	75 06		 jne	 SHORT $LN4@flush_pend

; 660  :         s->pending_out = s->pending_buf;

  0003d	8b 46 08	 mov	 eax, DWORD PTR [esi+8]
  00040	89 46 10	 mov	 DWORD PTR [esi+16], eax
$LN4@flush_pend:

; 661  :     }
; 662  : }

  00043	5f		 pop	 edi
  00044	5e		 pop	 esi
  00045	5b		 pop	 ebx
  00046	c3		 ret	 0
_flush_pending ENDP
_TEXT	ENDS
; Function compile flags: /Ogtp
; File d:\downloads\tgl-master\tgl-master\zlib\deflate.c
;	COMDAT _deflateCopy@8
_TEXT	SEGMENT
_dest$ = 8						; size = 4
_overlay$1$ = 12					; size = 4
_source$ = 12						; size = 4
_deflateCopy@8 PROC					; COMDAT

; 1017 : {

  00000	55		 push	 ebp
  00001	8b ec		 mov	 ebp, esp

; 1018 : #ifdef MAXSEG_64K
; 1019 :     return Z_STREAM_ERROR;
; 1020 : #else
; 1021 :     deflate_state *ds;
; 1022 :     deflate_state *ss;
; 1023 :     ushf *overlay;
; 1024 : 
; 1025 : 
; 1026 :     if (source == Z_NULL || dest == Z_NULL || source->state == Z_NULL) {

  00003	8b 45 0c	 mov	 eax, DWORD PTR _source$[ebp]
  00006	53		 push	 ebx
  00007	56		 push	 esi
  00008	85 c0		 test	 eax, eax
  0000a	0f 84 84 01 00
	00		 je	 $LN3@deflateCop
  00010	8b 75 08	 mov	 esi, DWORD PTR _dest$[ebp]
  00013	85 f6		 test	 esi, esi
  00015	0f 84 79 01 00
	00		 je	 $LN3@deflateCop
  0001b	8b 58 1c	 mov	 ebx, DWORD PTR [eax+28]
  0001e	85 db		 test	 ebx, ebx
  00020	0f 84 6e 01 00
	00		 je	 $LN3@deflateCop

; 1028 :     }
; 1029 : 
; 1030 :     ss = source->state;
; 1031 : 
; 1032 :     zmemcpy((voidpf)dest, (voidpf)source, sizeof(z_stream));

  00026	0f 10 00	 movups	 xmm0, XMMWORD PTR [eax]
  00029	57		 push	 edi

; 1033 : 
; 1034 :     ds = (deflate_state *) ZALLOC(dest, 1, sizeof(deflate_state));

  0002a	68 c4 16 00 00	 push	 5828			; 000016c4H
  0002f	0f 11 06	 movups	 XMMWORD PTR [esi], xmm0
  00032	6a 01		 push	 1
  00034	0f 10 40 10	 movups	 xmm0, XMMWORD PTR [eax+16]
  00038	0f 11 46 10	 movups	 XMMWORD PTR [esi+16], xmm0
  0003c	0f 10 40 20	 movups	 xmm0, XMMWORD PTR [eax+32]
  00040	0f 11 46 20	 movups	 XMMWORD PTR [esi+32], xmm0
  00044	f3 0f 7e 40 30	 movq	 xmm0, QWORD PTR [eax+48]
  00049	66 0f d6 46 30	 movq	 QWORD PTR [esi+48], xmm0
  0004e	ff 76 28	 push	 DWORD PTR [esi+40]
  00051	8b 46 20	 mov	 eax, DWORD PTR [esi+32]
  00054	ff d0		 call	 eax
  00056	8b f8		 mov	 edi, eax
  00058	83 c4 0c	 add	 esp, 12			; 0000000cH

; 1035 :     if (ds == Z_NULL) return Z_MEM_ERROR;

  0005b	85 ff		 test	 edi, edi
  0005d	0f 84 25 01 00
	00		 je	 $LN9@deflateCop

; 1036 :     dest->state = (struct internal_state FAR *) ds;
; 1037 :     zmemcpy((voidpf)ds, (voidpf)ss, sizeof(deflate_state));

  00063	68 c4 16 00 00	 push	 5828			; 000016c4H
  00068	53		 push	 ebx
  00069	57		 push	 edi
  0006a	89 7e 1c	 mov	 DWORD PTR [esi+28], edi
  0006d	e8 00 00 00 00	 call	 _memcpy

; 1038 :     ds->strm = dest;
; 1039 : 
; 1040 :     ds->window = (Bytef *) ZALLOC(dest, ds->w_size, 2*sizeof(Byte));

  00072	6a 02		 push	 2
  00074	ff 77 2c	 push	 DWORD PTR [edi+44]
  00077	89 37		 mov	 DWORD PTR [edi], esi
  00079	ff 76 28	 push	 DWORD PTR [esi+40]
  0007c	8b 46 20	 mov	 eax, DWORD PTR [esi+32]
  0007f	ff d0		 call	 eax

; 1041 :     ds->prev   = (Posf *)  ZALLOC(dest, ds->w_size, sizeof(Pos));

  00081	6a 02		 push	 2
  00083	ff 77 2c	 push	 DWORD PTR [edi+44]
  00086	89 47 38	 mov	 DWORD PTR [edi+56], eax
  00089	ff 76 28	 push	 DWORD PTR [esi+40]
  0008c	8b 46 20	 mov	 eax, DWORD PTR [esi+32]
  0008f	ff d0		 call	 eax

; 1042 :     ds->head   = (Posf *)  ZALLOC(dest, ds->hash_size, sizeof(Pos));

  00091	6a 02		 push	 2
  00093	ff 77 4c	 push	 DWORD PTR [edi+76]
  00096	89 47 40	 mov	 DWORD PTR [edi+64], eax
  00099	ff 76 28	 push	 DWORD PTR [esi+40]
  0009c	8b 46 20	 mov	 eax, DWORD PTR [esi+32]
  0009f	ff d0		 call	 eax

; 1043 :     overlay = (ushf *) ZALLOC(dest, ds->lit_bufsize, sizeof(ush)+2);

  000a1	6a 04		 push	 4
  000a3	ff b7 9c 16 00
	00		 push	 DWORD PTR [edi+5788]
  000a9	89 47 44	 mov	 DWORD PTR [edi+68], eax
  000ac	ff 76 28	 push	 DWORD PTR [esi+40]
  000af	8b 46 20	 mov	 eax, DWORD PTR [esi+32]
  000b2	ff d0		 call	 eax

; 1044 :     ds->pending_buf = (uchf *) overlay;
; 1045 : 
; 1046 :     if (ds->window == Z_NULL || ds->prev == Z_NULL || ds->head == Z_NULL ||

  000b4	8b 4f 38	 mov	 ecx, DWORD PTR [edi+56]
  000b7	83 c4 3c	 add	 esp, 60			; 0000003cH
  000ba	89 45 0c	 mov	 DWORD PTR _overlay$1$[ebp], eax
  000bd	89 47 08	 mov	 DWORD PTR [edi+8], eax
  000c0	85 c9		 test	 ecx, ecx
  000c2	0f 84 ba 00 00
	00		 je	 $LN6@deflateCop
  000c8	83 7f 40 00	 cmp	 DWORD PTR [edi+64], 0
  000cc	0f 84 b0 00 00
	00		 je	 $LN6@deflateCop
  000d2	83 7f 44 00	 cmp	 DWORD PTR [edi+68], 0
  000d6	0f 84 a6 00 00
	00		 je	 $LN6@deflateCop
  000dc	85 c0		 test	 eax, eax
  000de	0f 84 9e 00 00
	00		 je	 $LN6@deflateCop

; 1050 :     }
; 1051 :     /* following zmemcpy do not work for 16-bit MSDOS */
; 1052 :     zmemcpy(ds->window, ss->window, ds->w_size * 2 * sizeof(Byte));

  000e4	8b 47 2c	 mov	 eax, DWORD PTR [edi+44]
  000e7	03 c0		 add	 eax, eax
  000e9	50		 push	 eax
  000ea	ff 73 38	 push	 DWORD PTR [ebx+56]
  000ed	51		 push	 ecx
  000ee	e8 00 00 00 00	 call	 _memcpy

; 1053 :     zmemcpy((voidpf)ds->prev, (voidpf)ss->prev, ds->w_size * sizeof(Pos));

  000f3	8b 47 2c	 mov	 eax, DWORD PTR [edi+44]
  000f6	03 c0		 add	 eax, eax
  000f8	50		 push	 eax
  000f9	ff 73 40	 push	 DWORD PTR [ebx+64]
  000fc	ff 77 40	 push	 DWORD PTR [edi+64]
  000ff	e8 00 00 00 00	 call	 _memcpy

; 1054 :     zmemcpy((voidpf)ds->head, (voidpf)ss->head, ds->hash_size * sizeof(Pos));

  00104	8b 47 4c	 mov	 eax, DWORD PTR [edi+76]
  00107	03 c0		 add	 eax, eax
  00109	50		 push	 eax
  0010a	ff 73 44	 push	 DWORD PTR [ebx+68]
  0010d	ff 77 44	 push	 DWORD PTR [edi+68]
  00110	e8 00 00 00 00	 call	 _memcpy

; 1055 :     zmemcpy(ds->pending_buf, ss->pending_buf, (uInt)ds->pending_buf_size);

  00115	ff 77 0c	 push	 DWORD PTR [edi+12]
  00118	ff 73 08	 push	 DWORD PTR [ebx+8]
  0011b	ff 77 08	 push	 DWORD PTR [edi+8]
  0011e	e8 00 00 00 00	 call	 _memcpy

; 1056 : 
; 1057 :     ds->pending_out = ds->pending_buf + (ss->pending_out - ss->pending_buf);

  00123	8b 43 10	 mov	 eax, DWORD PTR [ebx+16]
  00126	83 c4 30	 add	 esp, 48			; 00000030H
  00129	2b 43 08	 sub	 eax, DWORD PTR [ebx+8]
  0012c	8b 57 08	 mov	 edx, DWORD PTR [edi+8]
  0012f	03 c2		 add	 eax, edx

; 1058 :     ds->d_buf = overlay + ds->lit_bufsize/sizeof(ush);

  00131	8b 8f 9c 16 00
	00		 mov	 ecx, DWORD PTR [edi+5788]
  00137	8b 75 0c	 mov	 esi, DWORD PTR _overlay$1$[ebp]
  0013a	89 47 10	 mov	 DWORD PTR [edi+16], eax
  0013d	8b c1		 mov	 eax, ecx
  0013f	d1 e8		 shr	 eax, 1
  00141	8d 04 46	 lea	 eax, DWORD PTR [esi+eax*2]
  00144	89 87 a4 16 00
	00		 mov	 DWORD PTR [edi+5796], eax

; 1059 :     ds->l_buf = ds->pending_buf + (1+sizeof(ush))*ds->lit_bufsize;

  0014a	8d 04 4a	 lea	 eax, DWORD PTR [edx+ecx*2]
  0014d	03 c1		 add	 eax, ecx
  0014f	89 87 98 16 00
	00		 mov	 DWORD PTR [edi+5784], eax

; 1060 : 
; 1061 :     ds->l_desc.dyn_tree = ds->dyn_ltree;

  00155	8d 87 94 00 00
	00		 lea	 eax, DWORD PTR [edi+148]
  0015b	89 87 18 0b 00
	00		 mov	 DWORD PTR [edi+2840], eax

; 1062 :     ds->d_desc.dyn_tree = ds->dyn_dtree;

  00161	8d 87 88 09 00
	00		 lea	 eax, DWORD PTR [edi+2440]
  00167	89 87 24 0b 00
	00		 mov	 DWORD PTR [edi+2852], eax

; 1063 :     ds->bl_desc.dyn_tree = ds->bl_tree;

  0016d	8d 87 7c 0a 00
	00		 lea	 eax, DWORD PTR [edi+2684]
  00173	89 87 30 0b 00
	00		 mov	 DWORD PTR [edi+2864], eax

; 1064 : 
; 1065 :     return Z_OK;

  00179	33 c0		 xor	 eax, eax
  0017b	5f		 pop	 edi
  0017c	5e		 pop	 esi
  0017d	5b		 pop	 ebx

; 1066 : #endif /* MAXSEG_64K */
; 1067 : }

  0017e	5d		 pop	 ebp
  0017f	c2 08 00	 ret	 8
$LN6@deflateCop:

; 1047 :         ds->pending_buf == Z_NULL) {
; 1048 :         deflateEnd (dest);

  00182	56		 push	 esi
  00183	e8 00 00 00 00	 call	 _deflateEnd@4
$LN9@deflateCop:

; 1049 :         return Z_MEM_ERROR;

  00188	5f		 pop	 edi
  00189	5e		 pop	 esi
  0018a	b8 fc ff ff ff	 mov	 eax, -4			; fffffffcH
  0018f	5b		 pop	 ebx

; 1066 : #endif /* MAXSEG_64K */
; 1067 : }

  00190	5d		 pop	 ebp
  00191	c2 08 00	 ret	 8
$LN3@deflateCop:
  00194	5e		 pop	 esi

; 1027 :         return Z_STREAM_ERROR;

  00195	b8 fe ff ff ff	 mov	 eax, -2			; fffffffeH
  0019a	5b		 pop	 ebx

; 1066 : #endif /* MAXSEG_64K */
; 1067 : }

  0019b	5d		 pop	 ebp
  0019c	c2 08 00	 ret	 8
_deflateCopy@8 ENDP
_TEXT	ENDS
; Function compile flags: /Ogtp
; File d:\downloads\tgl-master\tgl-master\zlib\deflate.c
;	COMDAT _read_buf
_TEXT	SEGMENT
_size$ = 8						; size = 4
_read_buf PROC						; COMDAT
; _strm$ = ecx
; _buf$ = edx

; 1080 : {

  00000	55		 push	 ebp
  00001	8b ec		 mov	 ebp, esp
  00003	53		 push	 ebx
  00004	56		 push	 esi
  00005	8b f1		 mov	 esi, ecx
  00007	8b da		 mov	 ebx, edx
  00009	57		 push	 edi

; 1081 :     unsigned len = strm->avail_in;

  0000a	8b 4e 04	 mov	 ecx, DWORD PTR [esi+4]

; 1082 : 
; 1083 :     if (len > size) len = size;

  0000d	8b f9		 mov	 edi, ecx
  0000f	3b 4d 08	 cmp	 ecx, DWORD PTR _size$[ebp]
  00012	0f 47 7d 08	 cmova	 edi, DWORD PTR _size$[ebp]

; 1084 :     if (len == 0) return 0;

  00016	85 ff		 test	 edi, edi
  00018	75 07		 jne	 SHORT $LN3@read_buf
  0001a	5f		 pop	 edi
  0001b	5e		 pop	 esi
  0001c	33 c0		 xor	 eax, eax
  0001e	5b		 pop	 ebx

; 1101 : }

  0001f	5d		 pop	 ebp
  00020	c3		 ret	 0
$LN3@read_buf:

; 1085 : 
; 1086 :     strm->avail_in  -= len;
; 1087 : 
; 1088 :     zmemcpy(buf, strm->next_in, len);

  00021	57		 push	 edi
  00022	ff 36		 push	 DWORD PTR [esi]
  00024	2b cf		 sub	 ecx, edi
  00026	53		 push	 ebx
  00027	89 4e 04	 mov	 DWORD PTR [esi+4], ecx
  0002a	e8 00 00 00 00	 call	 _memcpy

; 1089 :     if (strm->state->wrap == 1) {

  0002f	8b 46 1c	 mov	 eax, DWORD PTR [esi+28]
  00032	83 c4 0c	 add	 esp, 12			; 0000000cH
  00035	8b 40 18	 mov	 eax, DWORD PTR [eax+24]
  00038	83 f8 01	 cmp	 eax, 1
  0003b	75 19		 jne	 SHORT $LN4@read_buf

; 1090 :         strm->adler = adler32(strm->adler, buf, len);

  0003d	57		 push	 edi
  0003e	53		 push	 ebx
  0003f	ff 76 30	 push	 DWORD PTR [esi+48]
  00042	e8 00 00 00 00	 call	 _adler32@12

; 1095 :     }
; 1096 : #endif
; 1097 :     strm->next_in  += len;

  00047	01 3e		 add	 DWORD PTR [esi], edi

; 1098 :     strm->total_in += len;

  00049	01 7e 08	 add	 DWORD PTR [esi+8], edi
  0004c	89 46 30	 mov	 DWORD PTR [esi+48], eax

; 1099 : 
; 1100 :     return (int)len;

  0004f	8b c7		 mov	 eax, edi
  00051	5f		 pop	 edi
  00052	5e		 pop	 esi
  00053	5b		 pop	 ebx

; 1101 : }

  00054	5d		 pop	 ebp
  00055	c3		 ret	 0
$LN4@read_buf:

; 1091 :     }
; 1092 : #ifdef GZIP
; 1093 :     else if (strm->state->wrap == 2) {

  00056	83 f8 02	 cmp	 eax, 2
  00059	75 0d		 jne	 SHORT $LN6@read_buf

; 1094 :         strm->adler = crc32(strm->adler, buf, len);

  0005b	57		 push	 edi
  0005c	53		 push	 ebx
  0005d	ff 76 30	 push	 DWORD PTR [esi+48]
  00060	e8 00 00 00 00	 call	 _crc32@12
  00065	89 46 30	 mov	 DWORD PTR [esi+48], eax
$LN6@read_buf:

; 1095 :     }
; 1096 : #endif
; 1097 :     strm->next_in  += len;

  00068	01 3e		 add	 DWORD PTR [esi], edi

; 1099 : 
; 1100 :     return (int)len;

  0006a	8b c7		 mov	 eax, edi
  0006c	01 7e 08	 add	 DWORD PTR [esi+8], edi
  0006f	5f		 pop	 edi
  00070	5e		 pop	 esi
  00071	5b		 pop	 ebx

; 1101 : }

  00072	5d		 pop	 ebp
  00073	c3		 ret	 0
_read_buf ENDP
_TEXT	ENDS
; Function compile flags: /Ogtp
; File d:\downloads\tgl-master\tgl-master\zlib\deflate.c
;	COMDAT _lm_init
_TEXT	SEGMENT
_lm_init PROC						; COMDAT
; _s$ = ecx

; 1108 : {

  00000	56		 push	 esi
  00001	8b f1		 mov	 esi, ecx

; 1109 :     s->window_size = (ulg)2L*s->w_size;
; 1110 : 
; 1111 :     CLEAR_HASH(s);

  00003	33 c9		 xor	 ecx, ecx
  00005	8b 46 2c	 mov	 eax, DWORD PTR [esi+44]
  00008	8b 56 4c	 mov	 edx, DWORD PTR [esi+76]
  0000b	03 c0		 add	 eax, eax
  0000d	89 46 3c	 mov	 DWORD PTR [esi+60], eax
  00010	8b 46 44	 mov	 eax, DWORD PTR [esi+68]
  00013	66 89 4c 50 fe	 mov	 WORD PTR [eax+edx*2-2], cx
  00018	8b 46 4c	 mov	 eax, DWORD PTR [esi+76]
  0001b	8d 04 45 fe ff
	ff ff		 lea	 eax, DWORD PTR [eax*2-2]
  00022	50		 push	 eax
  00023	51		 push	 ecx
  00024	ff 76 44	 push	 DWORD PTR [esi+68]
  00027	e8 00 00 00 00	 call	 _memset

; 1112 : 
; 1113 :     /* Set the default configuration parameters:
; 1114 :      */
; 1115 :     s->max_lazy_match   = configuration_table[s->level].max_lazy;

  0002c	8b 86 84 00 00
	00		 mov	 eax, DWORD PTR [esi+132]
  00032	83 c4 0c	 add	 esp, 12			; 0000000cH
  00035	8d 0c 40	 lea	 ecx, DWORD PTR [eax+eax*2]
  00038	0f b7 04 8d 02
	00 00 00	 movzx	 eax, WORD PTR _configuration_table[ecx*4+2]
  00040	89 86 80 00 00
	00		 mov	 DWORD PTR [esi+128], eax

; 1116 :     s->good_match       = configuration_table[s->level].good_length;

  00046	0f b7 04 8d 00
	00 00 00	 movzx	 eax, WORD PTR _configuration_table[ecx*4]
  0004e	89 86 8c 00 00
	00		 mov	 DWORD PTR [esi+140], eax

; 1117 :     s->nice_match       = configuration_table[s->level].nice_length;

  00054	0f b7 04 8d 04
	00 00 00	 movzx	 eax, WORD PTR _configuration_table[ecx*4+4]
  0005c	89 86 90 00 00
	00		 mov	 DWORD PTR [esi+144], eax

; 1118 :     s->max_chain_length = configuration_table[s->level].max_chain;

  00062	0f b7 04 8d 06
	00 00 00	 movzx	 eax, WORD PTR _configuration_table[ecx*4+6]
  0006a	89 46 7c	 mov	 DWORD PTR [esi+124], eax

; 1119 : 
; 1120 :     s->strstart = 0;

  0006d	c7 46 6c 00 00
	00 00		 mov	 DWORD PTR [esi+108], 0

; 1121 :     s->block_start = 0L;

  00074	c7 46 5c 00 00
	00 00		 mov	 DWORD PTR [esi+92], 0

; 1122 :     s->lookahead = 0;

  0007b	c7 46 74 00 00
	00 00		 mov	 DWORD PTR [esi+116], 0

; 1123 :     s->insert = 0;

  00082	c7 86 b4 16 00
	00 00 00 00 00	 mov	 DWORD PTR [esi+5812], 0

; 1124 :     s->match_length = s->prev_length = MIN_MATCH-1;

  0008c	c7 46 78 02 00
	00 00		 mov	 DWORD PTR [esi+120], 2
  00093	c7 46 60 02 00
	00 00		 mov	 DWORD PTR [esi+96], 2

; 1125 :     s->match_available = 0;

  0009a	c7 46 68 00 00
	00 00		 mov	 DWORD PTR [esi+104], 0

; 1126 :     s->ins_h = 0;

  000a1	c7 46 48 00 00
	00 00		 mov	 DWORD PTR [esi+72], 0
  000a8	5e		 pop	 esi

; 1127 : #ifndef FASTEST
; 1128 : #ifdef ASMV
; 1129 :     match_init(); /* initialize the asm code */
; 1130 : #endif
; 1131 : #endif
; 1132 : }

  000a9	c3		 ret	 0
_lm_init ENDP
_TEXT	ENDS
; Function compile flags: /Ogtp
; File d:\downloads\tgl-master\tgl-master\zlib\deflate.c
;	COMDAT _longest_match
_TEXT	SEGMENT
tv373 = -36						; size = 4
_prev$1$ = -32						; size = 4
_wmask$1$ = -28						; size = 4
tv381 = -24						; size = 4
_limit$1$ = -20						; size = 4
_s$1$ = -16						; size = 4
_chain_length$1$ = -12					; size = 4
_nice_match$2$ = -8					; size = 4
_scan_end$1$ = -2					; size = 1
_scan_end1$1$ = -1					; size = 1
_longest_match PROC					; COMDAT
; _s$ = ecx
; _cur_match$ = edx

; 1151 : {

  00000	55		 push	 ebp
  00001	8b ec		 mov	 ebp, esp
  00003	83 ec 24	 sub	 esp, 36			; 00000024H
  00006	53		 push	 ebx
  00007	56		 push	 esi
  00008	8b f1		 mov	 esi, ecx
  0000a	8b da		 mov	 ebx, edx
  0000c	57		 push	 edi
  0000d	89 75 f0	 mov	 DWORD PTR _s$1$[ebp], esi

; 1152 :     unsigned chain_length = s->max_chain_length;/* max hash chain length */

  00010	8b 46 7c	 mov	 eax, DWORD PTR [esi+124]

; 1153 :     register Bytef *scan = s->window + s->strstart; /* current string */

  00013	8b 4e 38	 mov	 ecx, DWORD PTR [esi+56]

; 1154 :     register Bytef *match;                       /* matched string */
; 1155 :     register int len;                           /* length of current match */
; 1156 :     int best_len = s->prev_length;              /* best match length so far */
; 1157 :     int nice_match = s->nice_match;             /* stop if match long enough */
; 1158 :     IPos limit = s->strstart > (IPos)MAX_DIST(s) ?

  00016	8b 56 2c	 mov	 edx, DWORD PTR [esi+44]
  00019	8b 7e 78	 mov	 edi, DWORD PTR [esi+120]
  0001c	89 45 f4	 mov	 DWORD PTR _chain_length$1$[ebp], eax
  0001f	8b 46 6c	 mov	 eax, DWORD PTR [esi+108]
  00022	03 c1		 add	 eax, ecx
  00024	89 4d e8	 mov	 DWORD PTR tv381[ebp], ecx
  00027	8b 8e 90 00 00
	00		 mov	 ecx, DWORD PTR [esi+144]
  0002d	89 4d f8	 mov	 DWORD PTR _nice_match$2$[ebp], ecx
  00030	8d 8a fa fe ff
	ff		 lea	 ecx, DWORD PTR [edx-262]
  00036	39 4e 6c	 cmp	 DWORD PTR [esi+108], ecx
  00039	76 10		 jbe	 SHORT $LN18@longest_ma
  0003b	8b 4e 6c	 mov	 ecx, DWORD PTR [esi+108]
  0003e	2b ca		 sub	 ecx, edx
  00040	81 c1 06 01 00
	00		 add	 ecx, 262		; 00000106H
  00046	89 4d ec	 mov	 DWORD PTR _limit$1$[ebp], ecx
  00049	eb 07		 jmp	 SHORT $LN19@longest_ma
$LN18@longest_ma:
  0004b	c7 45 ec 00 00
	00 00		 mov	 DWORD PTR _limit$1$[ebp], 0
$LN19@longest_ma:

; 1159 :         s->strstart - (IPos)MAX_DIST(s) : NIL;
; 1160 :     /* Stop when cur_match becomes <= limit. To simplify the code,
; 1161 :      * we prevent matches with the string of window index 0.
; 1162 :      */
; 1163 :     Posf *prev = s->prev;

  00052	8b 4e 40	 mov	 ecx, DWORD PTR [esi+64]
  00055	89 4d e0	 mov	 DWORD PTR _prev$1$[ebp], ecx

; 1164 :     uInt wmask = s->w_mask;

  00058	8b 4e 34	 mov	 ecx, DWORD PTR [esi+52]

; 1165 : 
; 1166 : #ifdef UNALIGNED_OK
; 1167 :     /* Compare two bytes at a time. Note: this is not always beneficial.
; 1168 :      * Try with and without -DUNALIGNED_OK to check.
; 1169 :      */
; 1170 :     register Bytef *strend = s->window + s->strstart + MAX_MATCH - 1;
; 1171 :     register ush scan_start = *(ushf*)scan;
; 1172 :     register ush scan_end   = *(ushf*)(scan+best_len-1);
; 1173 : #else
; 1174 :     register Bytef *strend = s->window + s->strstart + MAX_MATCH;

  0005b	8d b0 02 01 00
	00		 lea	 esi, DWORD PTR [eax+258]
  00061	89 4d e4	 mov	 DWORD PTR _wmask$1$[ebp], ecx

; 1175 :     register Byte scan_end1  = scan[best_len-1];

  00064	8a 4c 07 ff	 mov	 cl, BYTE PTR [edi+eax-1]
  00068	88 4d ff	 mov	 BYTE PTR _scan_end1$1$[ebp], cl

; 1176 :     register Byte scan_end   = scan[best_len];

  0006b	8a 0c 07	 mov	 cl, BYTE PTR [edi+eax]
  0006e	88 4d fe	 mov	 BYTE PTR _scan_end$1$[ebp], cl

; 1177 : #endif
; 1178 : 
; 1179 :     /* The code is optimized for HASH_BITS >= 8 and MAX_MATCH-2 multiple of 16.
; 1180 :      * It is easy to get rid of this optimization if necessary.
; 1181 :      */
; 1182 :     Assert(s->hash_bits >= 8 && MAX_MATCH == 258, "Code too clever");
; 1183 : 
; 1184 :     /* Do not waste too much time if we already have a good match: */
; 1185 :     if (s->prev_length >= s->good_match) {

  00071	8b 4d f0	 mov	 ecx, DWORD PTR _s$1$[ebp]
  00074	3b b9 8c 00 00
	00		 cmp	 edi, DWORD PTR [ecx+140]
  0007a	72 09		 jb	 SHORT $LN8@longest_ma

; 1186 :         chain_length >>= 2;

  0007c	8b 51 7c	 mov	 edx, DWORD PTR [ecx+124]
  0007f	c1 ea 02	 shr	 edx, 2
  00082	89 55 f4	 mov	 DWORD PTR _chain_length$1$[ebp], edx
$LN8@longest_ma:

; 1187 :     }
; 1188 :     /* Do not look for matches beyond the end of the input. This is necessary
; 1189 :      * to make deflate deterministic.
; 1190 :      */
; 1191 :     if ((uInt)nice_match > s->lookahead) nice_match = s->lookahead;

  00085	8b 49 74	 mov	 ecx, DWORD PTR [ecx+116]
  00088	8b 55 f8	 mov	 edx, DWORD PTR _nice_match$2$[ebp]
  0008b	3b d1		 cmp	 edx, ecx
  0008d	89 4d dc	 mov	 DWORD PTR tv373[ebp], ecx
  00090	0f 47 d1	 cmova	 edx, ecx
  00093	89 55 f8	 mov	 DWORD PTR _nice_match$2$[ebp], edx
$LL4@longest_ma:

; 1192 : 
; 1193 :     Assert((ulg)s->strstart <= s->window_size-MIN_LOOKAHEAD, "need lookahead");
; 1194 : 
; 1195 :     do {
; 1196 :         Assert(cur_match < s->strstart, "no future");
; 1197 :         match = s->window + cur_match;

  00096	8b 55 e8	 mov	 edx, DWORD PTR tv381[ebp]

; 1198 : 
; 1199 :         /* Skip to next match if the match length cannot increase
; 1200 :          * or if the match length is less than 2.  Note that the checks below
; 1201 :          * for insufficient lookahead only occur occasionally for performance
; 1202 :          * reasons.  Therefore uninitialized memory will be accessed, and
; 1203 :          * conditional jumps will be made that depend on those values.
; 1204 :          * However the length of the match is limited to the lookahead, so
; 1205 :          * the output of deflate is not affected by the uninitialized values.
; 1206 :          */
; 1207 : #if (defined(UNALIGNED_OK) && MAX_MATCH == 258)
; 1208 :         /* This code assumes sizeof(unsigned short) == 2. Do not use
; 1209 :          * UNALIGNED_OK if your compiler uses a different size.
; 1210 :          */
; 1211 :         if (*(ushf*)(match+best_len-1) != scan_end ||
; 1212 :             *(ushf*)match != scan_start) continue;
; 1213 : 
; 1214 :         /* It is not necessary to compare scan[2] and match[2] since they are
; 1215 :          * always equal when the other bytes match, given that the hash keys
; 1216 :          * are equal and that HASH_BITS >= 8. Compare 2 bytes at a time at
; 1217 :          * strstart+3, +5, ... up to strstart+257. We check for insufficient
; 1218 :          * lookahead only every 4th comparison; the 128th check will be made
; 1219 :          * at strstart+257. If MAX_MATCH-2 is not a multiple of 8, it is
; 1220 :          * necessary to put more guard bytes at the end of the window, or
; 1221 :          * to check more often for insufficient lookahead.
; 1222 :          */
; 1223 :         Assert(scan[2] == match[2], "scan[2]?");
; 1224 :         scan++, match++;
; 1225 :         do {
; 1226 :         } while (*(ushf*)(scan+=2) == *(ushf*)(match+=2) &&
; 1227 :                  *(ushf*)(scan+=2) == *(ushf*)(match+=2) &&
; 1228 :                  *(ushf*)(scan+=2) == *(ushf*)(match+=2) &&
; 1229 :                  *(ushf*)(scan+=2) == *(ushf*)(match+=2) &&
; 1230 :                  scan < strend);
; 1231 :         /* The funny "do {}" generates better code on most compilers */
; 1232 : 
; 1233 :         /* Here, scan <= window+strstart+257 */
; 1234 :         Assert(scan <= s->window+(unsigned)(s->window_size-1), "wild scan");
; 1235 :         if (*scan == *match) scan++;
; 1236 : 
; 1237 :         len = (MAX_MATCH - 1) - (int)(strend-scan);
; 1238 :         scan = strend - (MAX_MATCH-1);
; 1239 : 
; 1240 : #else /* UNALIGNED_OK */
; 1241 : 
; 1242 :         if (match[best_len]   != scan_end  ||
; 1243 :             match[best_len-1] != scan_end1 ||
; 1244 :             *match            != *scan     ||

  00099	8a 4d fe	 mov	 cl, BYTE PTR _scan_end$1$[ebp]
  0009c	03 d3		 add	 edx, ebx
  0009e	38 0c 3a	 cmp	 BYTE PTR [edx+edi], cl
  000a1	0f 85 a3 00 00
	00		 jne	 $LN2@longest_ma
  000a7	8a 4d ff	 mov	 cl, BYTE PTR _scan_end1$1$[ebp]
  000aa	38 4c 3a ff	 cmp	 BYTE PTR [edx+edi-1], cl
  000ae	0f 85 96 00 00
	00		 jne	 $LN2@longest_ma
  000b4	8a 0a		 mov	 cl, BYTE PTR [edx]
  000b6	3a 08		 cmp	 cl, BYTE PTR [eax]
  000b8	0f 85 8c 00 00
	00		 jne	 $LN2@longest_ma
  000be	8a 4a 01	 mov	 cl, BYTE PTR [edx+1]
  000c1	3a 48 01	 cmp	 cl, BYTE PTR [eax+1]
  000c4	0f 85 80 00 00
	00		 jne	 $LN2@longest_ma

; 1245 :             *++match          != scan[1])      continue;
; 1246 : 
; 1247 :         /* The check at best_len-1 can be removed because it will be made
; 1248 :          * again later. (This heuristic is not always a win.)
; 1249 :          * It is not necessary to compare scan[2] and match[2] since they
; 1250 :          * are always equal when the other bytes match, given that
; 1251 :          * the hash keys are equal and that HASH_BITS >= 8.
; 1252 :          */
; 1253 :         scan += 2, match++;

  000ca	83 c0 02	 add	 eax, 2
  000cd	83 c2 02	 add	 edx, 2
$LL7@longest_ma:

; 1254 :         Assert(*scan == *match, "match[2]?");
; 1255 : 
; 1256 :         /* We check for insufficient lookahead only every 8th comparison;
; 1257 :          * the 256th check will be made at strstart+258.
; 1258 :          */
; 1259 :         do {
; 1260 :         } while (*++scan == *++match && *++scan == *++match &&
; 1261 :                  *++scan == *++match && *++scan == *++match &&
; 1262 :                  *++scan == *++match && *++scan == *++match &&
; 1263 :                  *++scan == *++match && *++scan == *++match &&

  000d0	8a 48 01	 mov	 cl, BYTE PTR [eax+1]
  000d3	40		 inc	 eax
  000d4	3a 4a 01	 cmp	 cl, BYTE PTR [edx+1]
  000d7	75 45		 jne	 SHORT $LN12@longest_ma
  000d9	8a 48 01	 mov	 cl, BYTE PTR [eax+1]
  000dc	40		 inc	 eax
  000dd	3a 4a 02	 cmp	 cl, BYTE PTR [edx+2]
  000e0	75 3c		 jne	 SHORT $LN12@longest_ma
  000e2	8a 48 01	 mov	 cl, BYTE PTR [eax+1]
  000e5	40		 inc	 eax
  000e6	3a 4a 03	 cmp	 cl, BYTE PTR [edx+3]
  000e9	75 33		 jne	 SHORT $LN12@longest_ma
  000eb	8a 48 01	 mov	 cl, BYTE PTR [eax+1]
  000ee	40		 inc	 eax
  000ef	3a 4a 04	 cmp	 cl, BYTE PTR [edx+4]
  000f2	75 2a		 jne	 SHORT $LN12@longest_ma
  000f4	8a 48 01	 mov	 cl, BYTE PTR [eax+1]
  000f7	40		 inc	 eax
  000f8	3a 4a 05	 cmp	 cl, BYTE PTR [edx+5]
  000fb	75 21		 jne	 SHORT $LN12@longest_ma
  000fd	8a 48 01	 mov	 cl, BYTE PTR [eax+1]
  00100	40		 inc	 eax
  00101	3a 4a 06	 cmp	 cl, BYTE PTR [edx+6]
  00104	75 18		 jne	 SHORT $LN12@longest_ma
  00106	8a 48 01	 mov	 cl, BYTE PTR [eax+1]
  00109	40		 inc	 eax
  0010a	3a 4a 07	 cmp	 cl, BYTE PTR [edx+7]
  0010d	75 0f		 jne	 SHORT $LN12@longest_ma
  0010f	8a 48 01	 mov	 cl, BYTE PTR [eax+1]
  00112	40		 inc	 eax
  00113	83 c2 08	 add	 edx, 8
  00116	3a 0a		 cmp	 cl, BYTE PTR [edx]
  00118	75 04		 jne	 SHORT $LN12@longest_ma
  0011a	3b c6		 cmp	 eax, esi
  0011c	72 b2		 jb	 SHORT $LL7@longest_ma
$LN12@longest_ma:

; 1264 :                  scan < strend);
; 1265 : 
; 1266 :         Assert(scan <= s->window+(unsigned)(s->window_size-1), "wild scan");
; 1267 : 
; 1268 :         len = MAX_MATCH - (int)(strend - scan);

  0011e	2b c6		 sub	 eax, esi
  00120	8d 88 02 01 00
	00		 lea	 ecx, DWORD PTR [eax+258]

; 1269 :         scan = strend - MAX_MATCH;

  00126	8d 86 fe fe ff
	ff		 lea	 eax, DWORD PTR [esi-258]

; 1270 : 
; 1271 : #endif /* UNALIGNED_OK */
; 1272 : 
; 1273 :         if (len > best_len) {

  0012c	3b cf		 cmp	 ecx, edi
  0012e	7e 1a		 jle	 SHORT $LN2@longest_ma

; 1274 :             s->match_start = cur_match;
; 1275 :             best_len = len;

  00130	8b f9		 mov	 edi, ecx
  00132	8b 55 f0	 mov	 edx, DWORD PTR _s$1$[ebp]
  00135	89 5a 70	 mov	 DWORD PTR [edx+112], ebx

; 1276 :             if (len >= nice_match) break;

  00138	3b 4d f8	 cmp	 ecx, DWORD PTR _nice_match$2$[ebp]
  0013b	7d 28		 jge	 SHORT $LN3@longest_ma

; 1277 : #ifdef UNALIGNED_OK
; 1278 :             scan_end = *(ushf*)(scan+best_len-1);
; 1279 : #else
; 1280 :             scan_end1  = scan[best_len-1];

  0013d	8a 54 01 ff	 mov	 dl, BYTE PTR [ecx+eax-1]

; 1281 :             scan_end   = scan[best_len];

  00141	8a 0c 01	 mov	 cl, BYTE PTR [ecx+eax]
  00144	88 55 ff	 mov	 BYTE PTR _scan_end1$1$[ebp], dl
  00147	88 4d fe	 mov	 BYTE PTR _scan_end$1$[ebp], cl
$LN2@longest_ma:

; 1282 : #endif
; 1283 :         }
; 1284 :     } while ((cur_match = prev[cur_match & wmask]) > limit
; 1285 :              && --chain_length != 0);

  0014a	8b 4d e4	 mov	 ecx, DWORD PTR _wmask$1$[ebp]
  0014d	8b 55 e0	 mov	 edx, DWORD PTR _prev$1$[ebp]
  00150	23 cb		 and	 ecx, ebx
  00152	0f b7 1c 4a	 movzx	 ebx, WORD PTR [edx+ecx*2]
  00156	3b 5d ec	 cmp	 ebx, DWORD PTR _limit$1$[ebp]
  00159	76 0a		 jbe	 SHORT $LN3@longest_ma
  0015b	83 6d f4 01	 sub	 DWORD PTR _chain_length$1$[ebp], 1
  0015f	0f 85 31 ff ff
	ff		 jne	 $LL4@longest_ma
$LN3@longest_ma:

; 1286 : 
; 1287 :     if ((uInt)best_len <= s->lookahead) return (uInt)best_len;

  00165	8b 45 dc	 mov	 eax, DWORD PTR tv373[ebp]
  00168	3b f8		 cmp	 edi, eax
  0016a	0f 46 c7	 cmovbe	 eax, edi
  0016d	5f		 pop	 edi
  0016e	5e		 pop	 esi
  0016f	5b		 pop	 ebx

; 1288 :     return s->lookahead;
; 1289 : }

  00170	8b e5		 mov	 esp, ebp
  00172	5d		 pop	 ebp
  00173	c3		 ret	 0
_longest_match ENDP
_TEXT	ENDS
; Function compile flags: /Ogtp
; File d:\downloads\tgl-master\tgl-master\zlib\deflate.c
;	COMDAT _fill_window
_TEXT	SEGMENT
_wsize$1$ = -8						; size = 4
_str$1$ = -4						; size = 4
_fill_window PROC					; COMDAT
; _s$ = ecx

; 1392 : {

  00000	55		 push	 ebp
  00001	8b ec		 mov	 ebp, esp
  00003	83 ec 08	 sub	 esp, 8
  00006	53		 push	 ebx
  00007	56		 push	 esi
  00008	8b f1		 mov	 esi, ecx
  0000a	57		 push	 edi

; 1393 :     register unsigned n, m;
; 1394 :     register Posf *p;
; 1395 :     unsigned more;    /* Amount of free space at the end of the window. */
; 1396 :     uInt wsize = s->w_size;

  0000b	8b 5e 2c	 mov	 ebx, DWORD PTR [esi+44]
  0000e	89 5d f8	 mov	 DWORD PTR _wsize$1$[ebp], ebx
$LL4@fill_windo:

; 1397 : 
; 1398 :     Assert(s->lookahead < MIN_LOOKAHEAD, "already enough lookahead");
; 1399 : 
; 1400 :     do {
; 1401 :         more = (unsigned)(s->window_size -(ulg)s->lookahead -(ulg)s->strstart);
; 1402 : 
; 1403 :         /* Deal with !@#$% 64K limit: */
; 1404 :         if (sizeof(int) <= 2) {
; 1405 :             if (more == 0 && s->strstart == 0 && s->lookahead == 0) {
; 1406 :                 more = wsize;
; 1407 : 
; 1408 :             } else if (more == (unsigned)(-1)) {
; 1409 :                 /* Very unlikely, but possible on 16 bit machine if
; 1410 :                  * strstart == 0 && lookahead == 1 (input done a byte at time)
; 1411 :                  */
; 1412 :                 more--;
; 1413 :             }
; 1414 :         }
; 1415 : 
; 1416 :         /* If the window is almost full and there is insufficient lookahead,
; 1417 :          * move the upper half to the lower one to make room in the upper half.
; 1418 :          */
; 1419 :         if (s->strstart >= wsize+MAX_DIST(s)) {

  00011	8b 46 2c	 mov	 eax, DWORD PTR [esi+44]
  00014	8b 7e 3c	 mov	 edi, DWORD PTR [esi+60]
  00017	05 fa fe ff ff	 add	 eax, -262		; fffffefaH
  0001c	2b 7e 74	 sub	 edi, DWORD PTR [esi+116]
  0001f	03 c3		 add	 eax, ebx
  00021	2b 7e 6c	 sub	 edi, DWORD PTR [esi+108]
  00024	39 46 6c	 cmp	 DWORD PTR [esi+108], eax
  00027	72 63		 jb	 SHORT $LN17@fill_windo

; 1420 : 
; 1421 :             zmemcpy(s->window, s->window+wsize, (unsigned)wsize);

  00029	8b 4e 38	 mov	 ecx, DWORD PTR [esi+56]
  0002c	53		 push	 ebx
  0002d	8d 04 19	 lea	 eax, DWORD PTR [ecx+ebx]
  00030	50		 push	 eax
  00031	51		 push	 ecx
  00032	e8 00 00 00 00	 call	 _memcpy

; 1422 :             s->match_start -= wsize;
; 1423 :             s->strstart    -= wsize; /* we now have strstart >= MAX_DIST */
; 1424 :             s->block_start -= (long) wsize;
; 1425 : 
; 1426 :             /* Slide the hash table (could be avoided with 32 bit values
; 1427 :                at the expense of memory usage). We slide even when level == 0
; 1428 :                to keep the hash table consistent if we switch back to level > 0
; 1429 :                later. (Using level 0 permanently is not an optimal usage of
; 1430 :                zlib, so we don't care about this pathological case.)
; 1431 :              */
; 1432 :             n = s->hash_size;

  00037	8b 56 4c	 mov	 edx, DWORD PTR [esi+76]
  0003a	83 c4 0c	 add	 esp, 12			; 0000000cH

; 1433 :             p = &s->head[n];

  0003d	8b 46 44	 mov	 eax, DWORD PTR [esi+68]
  00040	29 5e 70	 sub	 DWORD PTR [esi+112], ebx
  00043	29 5e 6c	 sub	 DWORD PTR [esi+108], ebx
  00046	29 5e 5c	 sub	 DWORD PTR [esi+92], ebx
  00049	8d 0c 50	 lea	 ecx, DWORD PTR [eax+edx*2]
  0004c	0f 1f 40 00	 npad	 4
$LL7@fill_windo:

; 1434 :             do {
; 1435 :                 m = *--p;

  00050	0f b7 41 fe	 movzx	 eax, WORD PTR [ecx-2]
  00054	8d 49 fe	 lea	 ecx, DWORD PTR [ecx-2]

; 1436 :                 *p = (Pos)(m >= wsize ? m-wsize : NIL);

  00057	3b c3		 cmp	 eax, ebx
  00059	72 04		 jb	 SHORT $LN29@fill_windo
  0005b	2b c3		 sub	 eax, ebx
  0005d	eb 02		 jmp	 SHORT $LN30@fill_windo
$LN29@fill_windo:
  0005f	33 c0		 xor	 eax, eax
$LN30@fill_windo:
  00061	66 89 01	 mov	 WORD PTR [ecx], ax

; 1437 :             } while (--n);

  00064	83 ea 01	 sub	 edx, 1
  00067	75 e7		 jne	 SHORT $LL7@fill_windo

; 1438 : 
; 1439 :             n = wsize;
; 1440 : #ifndef FASTEST
; 1441 :             p = &s->prev[n];

  00069	8b 46 40	 mov	 eax, DWORD PTR [esi+64]
  0006c	8b d3		 mov	 edx, ebx
  0006e	8d 0c 58	 lea	 ecx, DWORD PTR [eax+ebx*2]
$LL10@fill_windo:

; 1442 :             do {
; 1443 :                 m = *--p;

  00071	0f b7 41 fe	 movzx	 eax, WORD PTR [ecx-2]
  00075	8d 49 fe	 lea	 ecx, DWORD PTR [ecx-2]

; 1444 :                 *p = (Pos)(m >= wsize ? m-wsize : NIL);

  00078	3b c3		 cmp	 eax, ebx
  0007a	72 04		 jb	 SHORT $LN31@fill_windo
  0007c	2b c3		 sub	 eax, ebx
  0007e	eb 02		 jmp	 SHORT $LN32@fill_windo
$LN31@fill_windo:
  00080	33 c0		 xor	 eax, eax
$LN32@fill_windo:
  00082	66 89 01	 mov	 WORD PTR [ecx], ax

; 1445 :                 /* If n is not on any hash chain, prev[n] is garbage but
; 1446 :                  * its value will never be used.
; 1447 :                  */
; 1448 :             } while (--n);

  00085	83 ea 01	 sub	 edx, 1
  00088	75 e7		 jne	 SHORT $LL10@fill_windo

; 1449 : #endif
; 1450 :             more += wsize;

  0008a	03 fb		 add	 edi, ebx
$LN17@fill_windo:

; 1451 :         }
; 1452 :         if (s->strm->avail_in == 0) break;

  0008c	8b 0e		 mov	 ecx, DWORD PTR [esi]
  0008e	83 79 04 00	 cmp	 DWORD PTR [ecx+4], 0
  00092	0f 84 c0 00 00
	00		 je	 $LN3@fill_windo

; 1453 : 
; 1454 :         /* If there was no sliding:
; 1455 :          *    strstart <= WSIZE+MAX_DIST-1 && lookahead <= MIN_LOOKAHEAD - 1 &&
; 1456 :          *    more == window_size - lookahead - strstart
; 1457 :          * => more >= window_size - (MIN_LOOKAHEAD-1 + WSIZE + MAX_DIST-1)
; 1458 :          * => more >= window_size - 2*WSIZE + 2
; 1459 :          * In the BIG_MEM or MMAP case (not yet supported),
; 1460 :          *   window_size == input_size + MIN_LOOKAHEAD  &&
; 1461 :          *   strstart + s->lookahead <= input_size => more >= MIN_LOOKAHEAD.
; 1462 :          * Otherwise, window_size == 2*WSIZE so more >= 2.
; 1463 :          * If there was sliding, more >= WSIZE. So in all cases, more >= 2.
; 1464 :          */
; 1465 :         Assert(more >= 2, "more < 2");
; 1466 : 
; 1467 :         n = read_buf(s->strm, s->window + s->strstart + s->lookahead, more);

  00098	8b 56 74	 mov	 edx, DWORD PTR [esi+116]
  0009b	03 56 6c	 add	 edx, DWORD PTR [esi+108]
  0009e	03 56 38	 add	 edx, DWORD PTR [esi+56]
  000a1	57		 push	 edi
  000a2	e8 00 00 00 00	 call	 _read_buf

; 1468 :         s->lookahead += n;

  000a7	01 46 74	 add	 DWORD PTR [esi+116], eax
  000aa	83 c4 04	 add	 esp, 4
  000ad	8b 46 74	 mov	 eax, DWORD PTR [esi+116]

; 1469 : 
; 1470 :         /* Initialize the hash value now that we have some input: */
; 1471 :         if (s->lookahead + s->insert >= MIN_MATCH) {

  000b0	8b 8e b4 16 00
	00		 mov	 ecx, DWORD PTR [esi+5812]
  000b6	03 c1		 add	 eax, ecx
  000b8	83 f8 03	 cmp	 eax, 3
  000bb	0f 82 82 00 00
	00		 jb	 $LN2@fill_windo

; 1472 :             uInt str = s->strstart - s->insert;

  000c1	8b 7e 6c	 mov	 edi, DWORD PTR [esi+108]

; 1473 :             s->ins_h = s->window[str];

  000c4	8b 46 38	 mov	 eax, DWORD PTR [esi+56]
  000c7	2b f9		 sub	 edi, ecx

; 1474 :             UPDATE_HASH(s, s->ins_h, s->window[str + 1]);

  000c9	8b 4e 58	 mov	 ecx, DWORD PTR [esi+88]
  000cc	89 7d fc	 mov	 DWORD PTR _str$1$[ebp], edi
  000cf	0f b6 14 38	 movzx	 edx, BYTE PTR [eax+edi]
  000d3	89 56 48	 mov	 DWORD PTR [esi+72], edx
  000d6	0f b6 44 38 01	 movzx	 eax, BYTE PTR [eax+edi+1]
  000db	d3 e2		 shl	 edx, cl
  000dd	33 d0		 xor	 edx, eax
  000df	23 56 54	 and	 edx, DWORD PTR [esi+84]

; 1475 : #if MIN_MATCH != 3
; 1476 :             Call UPDATE_HASH() MIN_MATCH-3 more times
; 1477 : #endif
; 1478 :             while (s->insert) {

  000e2	83 be b4 16 00
	00 00		 cmp	 DWORD PTR [esi+5812], 0
  000e9	89 56 48	 mov	 DWORD PTR [esi+72], edx
  000ec	74 55		 je	 SHORT $LN2@fill_windo
  000ee	8b df		 mov	 ebx, edi
$LL11@fill_windo:

; 1479 :                 UPDATE_HASH(s, s->ins_h, s->window[str + MIN_MATCH-1]);

  000f0	8b 46 38	 mov	 eax, DWORD PTR [esi+56]
  000f3	8b 4e 58	 mov	 ecx, DWORD PTR [esi+88]

; 1480 : #ifndef FASTEST
; 1481 :                 s->prev[str & s->w_mask] = s->head[s->ins_h];

  000f6	8b 56 34	 mov	 edx, DWORD PTR [esi+52]
  000f9	23 d3		 and	 edx, ebx
  000fb	0f b6 7c 18 02	 movzx	 edi, BYTE PTR [eax+ebx+2]
  00100	8b 46 48	 mov	 eax, DWORD PTR [esi+72]
  00103	d3 e0		 shl	 eax, cl
  00105	8b 4e 40	 mov	 ecx, DWORD PTR [esi+64]
  00108	33 f8		 xor	 edi, eax
  0010a	23 7e 54	 and	 edi, DWORD PTR [esi+84]
  0010d	8b 46 44	 mov	 eax, DWORD PTR [esi+68]
  00110	89 7e 48	 mov	 DWORD PTR [esi+72], edi
  00113	66 8b 04 78	 mov	 ax, WORD PTR [eax+edi*2]
  00117	66 89 04 51	 mov	 WORD PTR [ecx+edx*2], ax

; 1482 : #endif
; 1483 :                 s->head[s->ins_h] = (Pos)str;

  0011b	8b 4e 48	 mov	 ecx, DWORD PTR [esi+72]
  0011e	8b 46 44	 mov	 eax, DWORD PTR [esi+68]
  00121	66 89 1c 48	 mov	 WORD PTR [eax+ecx*2], bx

; 1484 :                 str++;

  00125	43		 inc	 ebx

; 1485 :                 s->insert--;

  00126	ff 8e b4 16 00
	00		 dec	 DWORD PTR [esi+5812]

; 1486 :                 if (s->lookahead + s->insert < MIN_MATCH)

  0012c	8b 46 74	 mov	 eax, DWORD PTR [esi+116]
  0012f	8b 8e b4 16 00
	00		 mov	 ecx, DWORD PTR [esi+5812]
  00135	03 c1		 add	 eax, ecx
  00137	83 f8 03	 cmp	 eax, 3
  0013a	72 04		 jb	 SHORT $LN48@fill_windo

; 1475 : #if MIN_MATCH != 3
; 1476 :             Call UPDATE_HASH() MIN_MATCH-3 more times
; 1477 : #endif
; 1478 :             while (s->insert) {

  0013c	85 c9		 test	 ecx, ecx
  0013e	75 b0		 jne	 SHORT $LL11@fill_windo
$LN48@fill_windo:
  00140	8b 5d f8	 mov	 ebx, DWORD PTR _wsize$1$[ebp]
$LN2@fill_windo:

; 1487 :                     break;
; 1488 :             }
; 1489 :         }
; 1490 :         /* If the whole input has less than MIN_MATCH bytes, ins_h is garbage,
; 1491 :          * but this is not important since only literal bytes will be emitted.
; 1492 :          */
; 1493 : 
; 1494 :     } while (s->lookahead < MIN_LOOKAHEAD && s->strm->avail_in != 0);

  00143	81 7e 74 06 01
	00 00		 cmp	 DWORD PTR [esi+116], 262 ; 00000106H
  0014a	73 0c		 jae	 SHORT $LN3@fill_windo
  0014c	8b 06		 mov	 eax, DWORD PTR [esi]
  0014e	83 78 04 00	 cmp	 DWORD PTR [eax+4], 0
  00152	0f 85 b9 fe ff
	ff		 jne	 $LL4@fill_windo
$LN3@fill_windo:

; 1495 : 
; 1496 :     /* If the WIN_INIT bytes after the end of the current data have never been
; 1497 :      * written, then zero those bytes in order to avoid memory check reports of
; 1498 :      * the use of uninitialized (or uninitialised as Julian writes) bytes by
; 1499 :      * the longest match routines.  Update the high water mark for the next
; 1500 :      * time through here.  WIN_INIT is set to MAX_MATCH since the longest match
; 1501 :      * routines allow scanning to strstart + MAX_MATCH, ignoring lookahead.
; 1502 :      */
; 1503 :     if (s->high_water < s->window_size) {

  00158	8b 8e c0 16 00
	00		 mov	 ecx, DWORD PTR [esi+5824]
  0015e	8b 5e 3c	 mov	 ebx, DWORD PTR [esi+60]
  00161	3b cb		 cmp	 ecx, ebx
  00163	73 67		 jae	 SHORT $LN26@fill_windo

; 1504 :         ulg curr = s->strstart + (ulg)(s->lookahead);

  00165	8b 7e 74	 mov	 edi, DWORD PTR [esi+116]
  00168	03 7e 6c	 add	 edi, DWORD PTR [esi+108]

; 1505 :         ulg init;
; 1506 : 
; 1507 :         if (s->high_water < curr) {

  0016b	3b cf		 cmp	 ecx, edi
  0016d	73 2d		 jae	 SHORT $LN23@fill_windo

; 1508 :             /* Previous high water mark below current data -- zero WIN_INIT
; 1509 :              * bytes or up to end of window, whichever is less.
; 1510 :              */
; 1511 :             init = s->window_size - curr;
; 1512 :             if (init > WIN_INIT)

  0016f	b8 02 01 00 00	 mov	 eax, 258		; 00000102H
  00174	2b df		 sub	 ebx, edi
  00176	3b d8		 cmp	 ebx, eax
  00178	0f 47 d8	 cmova	 ebx, eax

; 1513 :                 init = WIN_INIT;
; 1514 :             zmemzero(s->window + curr, (unsigned)init);

  0017b	8b 46 38	 mov	 eax, DWORD PTR [esi+56]
  0017e	53		 push	 ebx
  0017f	03 c7		 add	 eax, edi
  00181	6a 00		 push	 0
  00183	50		 push	 eax
  00184	e8 00 00 00 00	 call	 _memset
  00189	83 c4 0c	 add	 esp, 12			; 0000000cH

; 1515 :             s->high_water = curr + init;

  0018c	8d 04 3b	 lea	 eax, DWORD PTR [ebx+edi]
  0018f	89 86 c0 16 00
	00		 mov	 DWORD PTR [esi+5824], eax
  00195	5f		 pop	 edi
  00196	5e		 pop	 esi
  00197	5b		 pop	 ebx

; 1527 :         }
; 1528 :     }
; 1529 : 
; 1530 :     Assert((ulg)s->strstart <= s->window_size - MIN_LOOKAHEAD,
; 1531 :            "not enough room for search");
; 1532 : }

  00198	8b e5		 mov	 esp, ebp
  0019a	5d		 pop	 ebp
  0019b	c3		 ret	 0
$LN23@fill_windo:

; 1516 :         }
; 1517 :         else if (s->high_water < (ulg)curr + WIN_INIT) {

  0019c	8d 87 02 01 00
	00		 lea	 eax, DWORD PTR [edi+258]
  001a2	3b c8		 cmp	 ecx, eax
  001a4	73 26		 jae	 SHORT $LN26@fill_windo

; 1518 :             /* High water mark at or above current data, but below current data
; 1519 :              * plus WIN_INIT -- zero out to current data plus WIN_INIT, or up
; 1520 :              * to end of window, whichever is less.
; 1521 :              */
; 1522 :             init = (ulg)curr + WIN_INIT - s->high_water;
; 1523 :             if (init > s->window_size - s->high_water)
; 1524 :                 init = s->window_size - s->high_water;
; 1525 :             zmemzero(s->window + s->high_water, (unsigned)init);

  001a6	8b 46 38	 mov	 eax, DWORD PTR [esi+56]
  001a9	2b f9		 sub	 edi, ecx
  001ab	2b d9		 sub	 ebx, ecx
  001ad	81 c7 02 01 00
	00		 add	 edi, 258		; 00000102H
  001b3	3b fb		 cmp	 edi, ebx
  001b5	0f 47 fb	 cmova	 edi, ebx
  001b8	03 c1		 add	 eax, ecx
  001ba	57		 push	 edi
  001bb	6a 00		 push	 0
  001bd	50		 push	 eax
  001be	e8 00 00 00 00	 call	 _memset
  001c3	83 c4 0c	 add	 esp, 12			; 0000000cH

; 1526 :             s->high_water += init;

  001c6	01 be c0 16 00
	00		 add	 DWORD PTR [esi+5824], edi
$LN26@fill_windo:
  001cc	5f		 pop	 edi
  001cd	5e		 pop	 esi
  001ce	5b		 pop	 ebx

; 1527 :         }
; 1528 :     }
; 1529 : 
; 1530 :     Assert((ulg)s->strstart <= s->window_size - MIN_LOOKAHEAD,
; 1531 :            "not enough room for search");
; 1532 : }

  001cf	8b e5		 mov	 esp, ebp
  001d1	5d		 pop	 ebp
  001d2	c3		 ret	 0
_fill_window ENDP
_TEXT	ENDS
; Function compile flags: /Ogtp
; File d:\downloads\tgl-master\tgl-master\zlib\deflate.c
;	COMDAT _deflate_stored
_TEXT	SEGMENT
_s$ = 8							; size = 4
_flush$ = 12						; size = 4
_deflate_stored PROC					; COMDAT

; 1567 : {

  00000	55		 push	 ebp
  00001	8b ec		 mov	 ebp, esp
  00003	53		 push	 ebx
  00004	56		 push	 esi

; 1568 :     /* Stored blocks are limited to 0xffff bytes, pending_buf is limited
; 1569 :      * to pending_buf_size, and each stored block has a 5 byte header:
; 1570 :      */
; 1571 :     ulg max_block_size = 0xffff;
; 1572 :     ulg max_start;
; 1573 : 
; 1574 :     if (max_block_size > s->pending_buf_size - 5) {

  00005	8b 75 08	 mov	 esi, DWORD PTR _s$[ebp]
  00008	bb ff ff 00 00	 mov	 ebx, 65535		; 0000ffffH
  0000d	57		 push	 edi
  0000e	8b 46 0c	 mov	 eax, DWORD PTR [esi+12]
  00011	83 c0 fb	 add	 eax, -5			; fffffffbH
  00014	3b c3		 cmp	 eax, ebx
  00016	0f 42 d8	 cmovb	 ebx, eax
  00019	0f 1f 80 00 00
	00 00		 npad	 7
$LL2@deflate_st:

; 1575 :         max_block_size = s->pending_buf_size - 5;
; 1576 :     }
; 1577 : 
; 1578 :     /* Copy as much as possible from input to output: */
; 1579 :     for (;;) {
; 1580 :         /* Fill the window as much as possible: */
; 1581 :         if (s->lookahead <= 1) {

  00020	8b 46 74	 mov	 eax, DWORD PTR [esi+116]
  00023	83 f8 01	 cmp	 eax, 1
  00026	77 12		 ja	 SHORT $LN8@deflate_st

; 1582 : 
; 1583 :             Assert(s->strstart < s->w_size+MAX_DIST(s) ||
; 1584 :                    s->block_start >= (long)s->w_size, "slide too late");
; 1585 : 
; 1586 :             fill_window(s);

  00028	8b ce		 mov	 ecx, esi
  0002a	e8 00 00 00 00	 call	 _fill_window

; 1587 :             if (s->lookahead == 0 && flush == Z_NO_FLUSH) return need_more;

  0002f	8b 46 74	 mov	 eax, DWORD PTR [esi+116]
  00032	85 c0		 test	 eax, eax
  00034	0f 84 a0 00 00
	00		 je	 $LN37@deflate_st
$LN8@deflate_st:

; 1588 : 
; 1589 :             if (s->lookahead == 0) break; /* flush the current block */
; 1590 :         }
; 1591 :         Assert(s->block_start >= 0L, "block gone");
; 1592 : 
; 1593 :         s->strstart += s->lookahead;
; 1594 :         s->lookahead = 0;
; 1595 : 
; 1596 :         /* Emit a stored block if pending_buf will be full: */
; 1597 :         max_start = s->block_start + max_block_size;

  0003a	8b 7e 5c	 mov	 edi, DWORD PTR [esi+92]
  0003d	01 46 6c	 add	 DWORD PTR [esi+108], eax

; 1598 :         if (s->strstart == 0 || (ulg)s->strstart >= max_start) {

  00040	8b 4e 6c	 mov	 ecx, DWORD PTR [esi+108]
  00043	c7 46 74 00 00
	00 00		 mov	 DWORD PTR [esi+116], 0
  0004a	8d 04 1f	 lea	 eax, DWORD PTR [edi+ebx]
  0004d	74 04		 je	 SHORT $LN10@deflate_st
  0004f	3b c8		 cmp	 ecx, eax
  00051	72 39		 jb	 SHORT $LN11@deflate_st
$LN10@deflate_st:

; 1599 :             /* strstart == 0 is possible when wraparound on 16-bit machine */
; 1600 :             s->lookahead = (uInt)(s->strstart - max_start);

  00053	2b c8		 sub	 ecx, eax

; 1601 :             s->strstart = (uInt)max_start;

  00055	89 46 6c	 mov	 DWORD PTR [esi+108], eax
  00058	89 4e 74	 mov	 DWORD PTR [esi+116], ecx

; 1602 :             FLUSH_BLOCK(s, 0);

  0005b	85 ff		 test	 edi, edi
  0005d	78 07		 js	 SHORT $LN19@deflate_st
  0005f	8b 56 38	 mov	 edx, DWORD PTR [esi+56]
  00062	03 d7		 add	 edx, edi
  00064	eb 02		 jmp	 SHORT $LN20@deflate_st
$LN19@deflate_st:
  00066	33 d2		 xor	 edx, edx
$LN20@deflate_st:
  00068	2b c7		 sub	 eax, edi
  0006a	8b ce		 mov	 ecx, esi
  0006c	6a 00		 push	 0
  0006e	50		 push	 eax
  0006f	e8 00 00 00 00	 call	 __tr_flush_block
  00074	8b 46 6c	 mov	 eax, DWORD PTR [esi+108]
  00077	83 c4 08	 add	 esp, 8
  0007a	8b 0e		 mov	 ecx, DWORD PTR [esi]
  0007c	89 46 5c	 mov	 DWORD PTR [esi+92], eax
  0007f	e8 00 00 00 00	 call	 _flush_pending
  00084	8b 06		 mov	 eax, DWORD PTR [esi]
  00086	83 78 10 00	 cmp	 DWORD PTR [eax+16], 0
  0008a	74 47		 je	 SHORT $LN31@deflate_st
$LN11@deflate_st:

; 1603 :         }
; 1604 :         /* Flush if we may have to slide, otherwise block_start may become
; 1605 :          * negative and the data will be gone:
; 1606 :          */
; 1607 :         if (s->strstart - (uInt)s->block_start >= MAX_DIST(s)) {

  0008c	8b 4e 6c	 mov	 ecx, DWORD PTR [esi+108]
  0008f	8b 46 2c	 mov	 eax, DWORD PTR [esi+44]
  00092	8b 7e 5c	 mov	 edi, DWORD PTR [esi+92]
  00095	2d 06 01 00 00	 sub	 eax, 262		; 00000106H
  0009a	2b cf		 sub	 ecx, edi
  0009c	3b c8		 cmp	 ecx, eax
  0009e	72 80		 jb	 SHORT $LL2@deflate_st

; 1608 :             FLUSH_BLOCK(s, 0);

  000a0	85 ff		 test	 edi, edi
  000a2	78 07		 js	 SHORT $LN21@deflate_st
  000a4	8b 56 38	 mov	 edx, DWORD PTR [esi+56]
  000a7	03 d7		 add	 edx, edi
  000a9	eb 02		 jmp	 SHORT $LN22@deflate_st
$LN21@deflate_st:
  000ab	33 d2		 xor	 edx, edx
$LN22@deflate_st:
  000ad	6a 00		 push	 0
  000af	51		 push	 ecx
  000b0	8b ce		 mov	 ecx, esi
  000b2	e8 00 00 00 00	 call	 __tr_flush_block
  000b7	8b 46 6c	 mov	 eax, DWORD PTR [esi+108]
  000ba	83 c4 08	 add	 esp, 8
  000bd	8b 0e		 mov	 ecx, DWORD PTR [esi]
  000bf	89 46 5c	 mov	 DWORD PTR [esi+92], eax
  000c2	e8 00 00 00 00	 call	 _flush_pending
  000c7	8b 06		 mov	 eax, DWORD PTR [esi]
  000c9	83 78 10 00	 cmp	 DWORD PTR [eax+16], 0
  000cd	0f 85 4d ff ff
	ff		 jne	 $LL2@deflate_st
$LN31@deflate_st:
  000d3	5f		 pop	 edi
  000d4	5e		 pop	 esi

; 1602 :             FLUSH_BLOCK(s, 0);

  000d5	33 c0		 xor	 eax, eax
  000d7	5b		 pop	 ebx

; 1619 : }

  000d8	5d		 pop	 ebp
  000d9	c3		 ret	 0
$LN37@deflate_st:

; 1587 :             if (s->lookahead == 0 && flush == Z_NO_FLUSH) return need_more;

  000da	8b 45 0c	 mov	 eax, DWORD PTR _flush$[ebp]
  000dd	85 c0		 test	 eax, eax
  000df	74 f2		 je	 SHORT $LN31@deflate_st

; 1609 :         }
; 1610 :     }
; 1611 :     s->insert = 0;

  000e1	c7 86 b4 16 00
	00 00 00 00 00	 mov	 DWORD PTR [esi+5812], 0

; 1612 :     if (flush == Z_FINISH) {

  000eb	83 f8 04	 cmp	 eax, 4
  000ee	75 41		 jne	 SHORT $LN14@deflate_st

; 1613 :         FLUSH_BLOCK(s, 1);

  000f0	8b 4e 5c	 mov	 ecx, DWORD PTR [esi+92]
  000f3	85 c9		 test	 ecx, ecx
  000f5	78 07		 js	 SHORT $LN23@deflate_st
  000f7	8b 56 38	 mov	 edx, DWORD PTR [esi+56]
  000fa	03 d1		 add	 edx, ecx
  000fc	eb 02		 jmp	 SHORT $LN24@deflate_st
$LN23@deflate_st:
  000fe	33 d2		 xor	 edx, edx
$LN24@deflate_st:
  00100	8b 46 6c	 mov	 eax, DWORD PTR [esi+108]
  00103	2b c1		 sub	 eax, ecx
  00105	8b ce		 mov	 ecx, esi
  00107	6a 01		 push	 1
  00109	50		 push	 eax
  0010a	e8 00 00 00 00	 call	 __tr_flush_block
  0010f	8b 46 6c	 mov	 eax, DWORD PTR [esi+108]
  00112	83 c4 08	 add	 esp, 8
  00115	8b 0e		 mov	 ecx, DWORD PTR [esi]
  00117	89 46 5c	 mov	 DWORD PTR [esi+92], eax
  0011a	e8 00 00 00 00	 call	 _flush_pending
  0011f	8b 0e		 mov	 ecx, DWORD PTR [esi]
  00121	33 c0		 xor	 eax, eax
  00123	5f		 pop	 edi
  00124	5e		 pop	 esi
  00125	5b		 pop	 ebx
  00126	39 41 10	 cmp	 DWORD PTR [ecx+16], eax
  00129	0f 95 c0	 setne	 al
  0012c	83 c0 02	 add	 eax, 2

; 1619 : }

  0012f	5d		 pop	 ebp
  00130	c3		 ret	 0
$LN14@deflate_st:

; 1614 :         return finish_done;
; 1615 :     }
; 1616 :     if ((long)s->strstart > s->block_start)

  00131	8b 4e 6c	 mov	 ecx, DWORD PTR [esi+108]
  00134	8b 46 5c	 mov	 eax, DWORD PTR [esi+92]
  00137	3b c8		 cmp	 ecx, eax
  00139	7e 35		 jle	 SHORT $LN17@deflate_st

; 1617 :         FLUSH_BLOCK(s, 0);

  0013b	85 c0		 test	 eax, eax
  0013d	78 07		 js	 SHORT $LN25@deflate_st
  0013f	8b 56 38	 mov	 edx, DWORD PTR [esi+56]
  00142	03 d0		 add	 edx, eax
  00144	eb 02		 jmp	 SHORT $LN26@deflate_st
$LN25@deflate_st:
  00146	33 d2		 xor	 edx, edx
$LN26@deflate_st:
  00148	2b c8		 sub	 ecx, eax
  0014a	6a 00		 push	 0
  0014c	51		 push	 ecx
  0014d	8b ce		 mov	 ecx, esi
  0014f	e8 00 00 00 00	 call	 __tr_flush_block
  00154	8b 46 6c	 mov	 eax, DWORD PTR [esi+108]
  00157	83 c4 08	 add	 esp, 8
  0015a	8b 0e		 mov	 ecx, DWORD PTR [esi]
  0015c	89 46 5c	 mov	 DWORD PTR [esi+92], eax
  0015f	e8 00 00 00 00	 call	 _flush_pending
  00164	8b 06		 mov	 eax, DWORD PTR [esi]
  00166	83 78 10 00	 cmp	 DWORD PTR [eax+16], 0
  0016a	0f 84 63 ff ff
	ff		 je	 $LN31@deflate_st
$LN17@deflate_st:
  00170	5f		 pop	 edi
  00171	5e		 pop	 esi

; 1618 :     return block_done;

  00172	b8 01 00 00 00	 mov	 eax, 1
  00177	5b		 pop	 ebx

; 1619 : }

  00178	5d		 pop	 ebp
  00179	c3		 ret	 0
_deflate_stored ENDP
_TEXT	ENDS
; Function compile flags: /Ogtp
; File d:\downloads\tgl-master\tgl-master\zlib\deflate.c
;	COMDAT _deflate_fast
_TEXT	SEGMENT
_bflush$1$ = 8						; size = 4
_s$ = 8							; size = 4
_flush$ = 12						; size = 4
_deflate_fast PROC					; COMDAT

; 1631 : {

  00000	55		 push	 ebp
  00001	8b ec		 mov	 ebp, esp
  00003	53		 push	 ebx
  00004	8b 5d 0c	 mov	 ebx, DWORD PTR _flush$[ebp]
  00007	56		 push	 esi
  00008	8b 75 08	 mov	 esi, DWORD PTR _s$[ebp]
  0000b	57		 push	 edi
  0000c	0f 1f 40 00	 npad	 4
$LL2@deflate_fa:

; 1632 :     IPos hash_head;       /* head of the hash chain */
; 1633 :     int bflush;           /* set if current block must be flushed */
; 1634 : 
; 1635 :     for (;;) {
; 1636 :         /* Make sure that we always have enough lookahead, except
; 1637 :          * at the end of the input file. We need MAX_MATCH bytes
; 1638 :          * for the next match, plus MIN_MATCH bytes to insert the
; 1639 :          * string following the next match.
; 1640 :          */
; 1641 :         if (s->lookahead < MIN_LOOKAHEAD) {

  00010	8b 46 74	 mov	 eax, DWORD PTR [esi+116]
  00013	3d 06 01 00 00	 cmp	 eax, 262		; 00000106H
  00018	73 21		 jae	 SHORT $LN10@deflate_fa

; 1642 :             fill_window(s);

  0001a	8b ce		 mov	 ecx, esi
  0001c	e8 00 00 00 00	 call	 _fill_window

; 1643 :             if (s->lookahead < MIN_LOOKAHEAD && flush == Z_NO_FLUSH) {

  00021	8b 46 74	 mov	 eax, DWORD PTR [esi+116]
  00024	3d 06 01 00 00	 cmp	 eax, 262		; 00000106H
  00029	73 08		 jae	 SHORT $LN9@deflate_fa
  0002b	85 db		 test	 ebx, ebx
  0002d	0f 84 30 02 00
	00		 je	 $LN39@deflate_fa
$LN9@deflate_fa:

; 1644 :                 return need_more;
; 1645 :             }
; 1646 :             if (s->lookahead == 0) break; /* flush the current block */

  00033	85 c0		 test	 eax, eax
  00035	0f 84 2f 02 00
	00		 je	 $LN38@deflate_fa
$LN10@deflate_fa:

; 1647 :         }
; 1648 : 
; 1649 :         /* Insert the string window[strstart .. strstart+2] in the
; 1650 :          * dictionary, and set hash_head to the head of the hash chain:
; 1651 :          */
; 1652 :         hash_head = NIL;
; 1653 :         if (s->lookahead >= MIN_MATCH) {

  0003b	83 f8 03	 cmp	 eax, 3
  0003e	72 6a		 jb	 SHORT $LN12@deflate_fa

; 1654 :             INSERT_STRING(s, s->strstart, hash_head);

  00040	8b 7e 6c	 mov	 edi, DWORD PTR [esi+108]
  00043	8b 46 38	 mov	 eax, DWORD PTR [esi+56]
  00046	8b 5e 48	 mov	 ebx, DWORD PTR [esi+72]
  00049	8b 4e 58	 mov	 ecx, DWORD PTR [esi+88]
  0004c	8b 56 34	 mov	 edx, DWORD PTR [esi+52]
  0004f	0f b6 44 38 02	 movzx	 eax, BYTE PTR [eax+edi+2]
  00054	23 d7		 and	 edx, edi
  00056	d3 e3		 shl	 ebx, cl
  00058	8b 4e 40	 mov	 ecx, DWORD PTR [esi+64]
  0005b	33 d8		 xor	 ebx, eax
  0005d	23 5e 54	 and	 ebx, DWORD PTR [esi+84]
  00060	8b 46 44	 mov	 eax, DWORD PTR [esi+68]
  00063	89 5e 48	 mov	 DWORD PTR [esi+72], ebx
  00066	0f b7 04 58	 movzx	 eax, WORD PTR [eax+ebx*2]
  0006a	66 89 04 51	 mov	 WORD PTR [ecx+edx*2], ax
  0006e	8b 4e 6c	 mov	 ecx, DWORD PTR [esi+108]
  00071	23 4e 34	 and	 ecx, DWORD PTR [esi+52]
  00074	8b 46 40	 mov	 eax, DWORD PTR [esi+64]
  00077	8b 56 48	 mov	 edx, DWORD PTR [esi+72]
  0007a	0f b7 3c 48	 movzx	 edi, WORD PTR [eax+ecx*2]
  0007e	8b 4e 44	 mov	 ecx, DWORD PTR [esi+68]
  00081	0f b7 46 6c	 movzx	 eax, WORD PTR [esi+108]
  00085	66 89 04 51	 mov	 WORD PTR [ecx+edx*2], ax

; 1655 :         }
; 1656 : 
; 1657 :         /* Find the longest match, discarding those <= prev_length.
; 1658 :          * At this point we have always match_length < MIN_MATCH
; 1659 :          */
; 1660 :         if (hash_head != NIL && s->strstart - hash_head <= MAX_DIST(s)) {

  00089	85 ff		 test	 edi, edi
  0008b	74 1d		 je	 SHORT $LN12@deflate_fa
  0008d	8b 4e 6c	 mov	 ecx, DWORD PTR [esi+108]
  00090	8b 46 2c	 mov	 eax, DWORD PTR [esi+44]
  00093	2b cf		 sub	 ecx, edi
  00095	2d 06 01 00 00	 sub	 eax, 262		; 00000106H
  0009a	3b c8		 cmp	 ecx, eax
  0009c	77 0c		 ja	 SHORT $LN12@deflate_fa

; 1661 :             /* To simplify the code, we prevent matches with the string
; 1662 :              * of window index 0 (in particular we have to avoid a match
; 1663 :              * of the string with itself at the start of the input file).
; 1664 :              */
; 1665 :             s->match_length = longest_match (s, hash_head);

  0009e	8b d7		 mov	 edx, edi
  000a0	8b ce		 mov	 ecx, esi
  000a2	e8 00 00 00 00	 call	 _longest_match
  000a7	89 46 60	 mov	 DWORD PTR [esi+96], eax
$LN12@deflate_fa:

; 1666 :             /* longest_match() sets match_start */
; 1667 :         }
; 1668 :         if (s->match_length >= MIN_MATCH) {

  000aa	83 7e 60 03	 cmp	 DWORD PTR [esi+96], 3
  000ae	0f 82 16 01 00
	00		 jb	 $LN13@deflate_fa

; 1669 :             check_match(s, s->strstart, s->match_start, s->match_length);
; 1670 : 
; 1671 :             _tr_tally_dist(s, s->strstart - s->match_start,

  000b4	66 8b 46 6c	 mov	 ax, WORD PTR [esi+108]
  000b8	66 2b 46 70	 sub	 ax, WORD PTR [esi+112]
  000bc	8b 8e a0 16 00
	00		 mov	 ecx, DWORD PTR [esi+5792]
  000c2	8a 56 60	 mov	 dl, BYTE PTR [esi+96]
  000c5	0f b7 f8	 movzx	 edi, ax
  000c8	80 ea 03	 sub	 dl, 3
  000cb	8b 86 a4 16 00
	00		 mov	 eax, DWORD PTR [esi+5796]
  000d1	66 89 3c 48	 mov	 WORD PTR [eax+ecx*2], di
  000d5	81 c7 ff ff 00
	00		 add	 edi, 65535		; 0000ffffH
  000db	8b 86 a0 16 00
	00		 mov	 eax, DWORD PTR [esi+5792]
  000e1	8b 8e 98 16 00
	00		 mov	 ecx, DWORD PTR [esi+5784]
  000e7	88 14 01	 mov	 BYTE PTR [ecx+eax], dl
  000ea	ff 86 a0 16 00
	00		 inc	 DWORD PTR [esi+5792]
  000f0	0f b6 c2	 movzx	 eax, dl
  000f3	0f b6 80 00 00
	00 00		 movzx	 eax, BYTE PTR __length_code[eax]
  000fa	66 ff 84 86 98
	04 00 00	 inc	 WORD PTR [esi+eax*4+1176]
  00102	b8 00 01 00 00	 mov	 eax, 256		; 00000100H
  00107	66 3b f8	 cmp	 di, ax
  0010a	0f b7 c7	 movzx	 eax, di
  0010d	73 09		 jae	 SHORT $LN24@deflate_fa
  0010f	0f b6 80 00 00
	00 00		 movzx	 eax, BYTE PTR __dist_code[eax]
  00116	eb 0a		 jmp	 SHORT $LN25@deflate_fa
$LN24@deflate_fa:
  00118	c1 e8 07	 shr	 eax, 7
  0011b	0f b6 80 00 01
	00 00		 movzx	 eax, BYTE PTR __dist_code[eax+256]
$LN25@deflate_fa:
  00122	66 ff 84 86 88
	09 00 00	 inc	 WORD PTR [esi+eax*4+2440]
  0012a	33 db		 xor	 ebx, ebx
  0012c	8b 86 9c 16 00
	00		 mov	 eax, DWORD PTR [esi+5788]
  00132	48		 dec	 eax
  00133	39 86 a0 16 00
	00		 cmp	 DWORD PTR [esi+5792], eax

; 1672 :                            s->match_length - MIN_MATCH, bflush);
; 1673 : 
; 1674 :             s->lookahead -= s->match_length;

  00139	8b 46 60	 mov	 eax, DWORD PTR [esi+96]
  0013c	0f 94 c3	 sete	 bl
  0013f	29 46 74	 sub	 DWORD PTR [esi+116], eax
  00142	89 5d 08	 mov	 DWORD PTR _bflush$1$[ebp], ebx

; 1675 : 
; 1676 :             /* Insert new strings in the hash table only if the match length
; 1677 :              * is not too large. This saves time but degrades compression.
; 1678 :              */
; 1679 : #ifndef FASTEST
; 1680 :             if (s->match_length <= s->max_insert_length &&

  00145	3b 86 80 00 00
	00		 cmp	 eax, DWORD PTR [esi+128]
  0014b	77 54		 ja	 SHORT $LN15@deflate_fa
  0014d	83 7e 74 03	 cmp	 DWORD PTR [esi+116], 3
  00151	72 4e		 jb	 SHORT $LN15@deflate_fa

; 1681 :                 s->lookahead >= MIN_MATCH) {
; 1682 :                 s->match_length--; /* string at strstart already in table */

  00153	48		 dec	 eax
  00154	89 46 60	 mov	 DWORD PTR [esi+96], eax
$LL7@deflate_fa:

; 1683 :                 do {
; 1684 :                     s->strstart++;

  00157	ff 46 6c	 inc	 DWORD PTR [esi+108]
  0015a	8b 7e 6c	 mov	 edi, DWORD PTR [esi+108]

; 1685 :                     INSERT_STRING(s, s->strstart, hash_head);

  0015d	8b 46 38	 mov	 eax, DWORD PTR [esi+56]
  00160	8b 4e 58	 mov	 ecx, DWORD PTR [esi+88]
  00163	8b 56 34	 mov	 edx, DWORD PTR [esi+52]
  00166	23 d7		 and	 edx, edi
  00168	0f b6 5c 07 02	 movzx	 ebx, BYTE PTR [edi+eax+2]
  0016d	8b 46 48	 mov	 eax, DWORD PTR [esi+72]
  00170	d3 e0		 shl	 eax, cl
  00172	8b 4e 40	 mov	 ecx, DWORD PTR [esi+64]
  00175	33 d8		 xor	 ebx, eax
  00177	23 5e 54	 and	 ebx, DWORD PTR [esi+84]
  0017a	8b 46 44	 mov	 eax, DWORD PTR [esi+68]
  0017d	89 5e 48	 mov	 DWORD PTR [esi+72], ebx
  00180	0f b7 04 58	 movzx	 eax, WORD PTR [eax+ebx*2]
  00184	66 89 04 51	 mov	 WORD PTR [ecx+edx*2], ax
  00188	8b 56 48	 mov	 edx, DWORD PTR [esi+72]
  0018b	8b 4e 44	 mov	 ecx, DWORD PTR [esi+68]
  0018e	0f b7 46 6c	 movzx	 eax, WORD PTR [esi+108]
  00192	66 89 04 51	 mov	 WORD PTR [ecx+edx*2], ax

; 1686 :                     /* strstart never exceeds WSIZE-MAX_MATCH, so there are
; 1687 :                      * always MIN_MATCH bytes ahead.
; 1688 :                      */
; 1689 :                 } while (--s->match_length != 0);

  00196	83 46 60 ff	 add	 DWORD PTR [esi+96], -1
  0019a	75 bb		 jne	 SHORT $LL7@deflate_fa

; 1690 :                 s->strstart++;
; 1691 :             } else

  0019c	8b 5d 08	 mov	 ebx, DWORD PTR _bflush$1$[ebp]
  0019f	eb 79		 jmp	 SHORT $LN44@deflate_fa
$LN15@deflate_fa:

; 1692 : #endif
; 1693 :             {
; 1694 :                 s->strstart += s->match_length;

  001a1	01 46 6c	 add	 DWORD PTR [esi+108], eax

; 1695 :                 s->match_length = 0;
; 1696 :                 s->ins_h = s->window[s->strstart];

  001a4	8b 46 38	 mov	 eax, DWORD PTR [esi+56]
  001a7	03 46 6c	 add	 eax, DWORD PTR [esi+108]

; 1697 :                 UPDATE_HASH(s, s->ins_h, s->window[s->strstart+1]);

  001aa	8b 4e 58	 mov	 ecx, DWORD PTR [esi+88]
  001ad	c7 46 60 00 00
	00 00		 mov	 DWORD PTR [esi+96], 0
  001b4	0f b6 10	 movzx	 edx, BYTE PTR [eax]
  001b7	89 56 48	 mov	 DWORD PTR [esi+72], edx
  001ba	0f b6 40 01	 movzx	 eax, BYTE PTR [eax+1]
  001be	d3 e2		 shl	 edx, cl
  001c0	33 d0		 xor	 edx, eax
  001c2	23 56 54	 and	 edx, DWORD PTR [esi+84]
  001c5	89 56 48	 mov	 DWORD PTR [esi+72], edx

; 1698 : #if MIN_MATCH != 3
; 1699 :                 Call UPDATE_HASH() MIN_MATCH-3 more times
; 1700 : #endif
; 1701 :                 /* If lookahead < MIN_MATCH, ins_h is garbage, but it does not
; 1702 :                  * matter since it will be recomputed at next deflate call.
; 1703 :                  */
; 1704 :             }
; 1705 :         } else {

  001c8	eb 53		 jmp	 SHORT $LN14@deflate_fa
$LN13@deflate_fa:

; 1706 :             /* No match, output a literal byte */
; 1707 :             Tracevv((stderr,"%c", s->window[s->strstart]));
; 1708 :             _tr_tally_lit (s, s->window[s->strstart], bflush);

  001ca	8b 4e 6c	 mov	 ecx, DWORD PTR [esi+108]
  001cd	33 ff		 xor	 edi, edi
  001cf	8b 46 38	 mov	 eax, DWORD PTR [esi+56]
  001d2	33 db		 xor	 ebx, ebx
  001d4	8a 14 01	 mov	 dl, BYTE PTR [ecx+eax]
  001d7	8b 8e a0 16 00
	00		 mov	 ecx, DWORD PTR [esi+5792]
  001dd	8b 86 a4 16 00
	00		 mov	 eax, DWORD PTR [esi+5796]
  001e3	66 89 3c 48	 mov	 WORD PTR [eax+ecx*2], di
  001e7	8b 86 a0 16 00
	00		 mov	 eax, DWORD PTR [esi+5792]
  001ed	8b 8e 98 16 00
	00		 mov	 ecx, DWORD PTR [esi+5784]
  001f3	88 14 01	 mov	 BYTE PTR [ecx+eax], dl
  001f6	ff 86 a0 16 00
	00		 inc	 DWORD PTR [esi+5792]
  001fc	0f b6 c2	 movzx	 eax, dl
  001ff	66 ff 84 86 94
	00 00 00	 inc	 WORD PTR [esi+eax*4+148]
  00207	8b 86 9c 16 00
	00		 mov	 eax, DWORD PTR [esi+5788]
  0020d	48		 dec	 eax
  0020e	39 86 a0 16 00
	00		 cmp	 DWORD PTR [esi+5792], eax
  00214	0f 94 c3	 sete	 bl

; 1709 :             s->lookahead--;

  00217	ff 4e 74	 dec	 DWORD PTR [esi+116]
$LN44@deflate_fa:

; 1710 :             s->strstart++;

  0021a	ff 46 6c	 inc	 DWORD PTR [esi+108]
$LN14@deflate_fa:

; 1711 :         }
; 1712 :         if (bflush) FLUSH_BLOCK(s, 0);

  0021d	85 db		 test	 ebx, ebx
  0021f	8b 5d 0c	 mov	 ebx, DWORD PTR _flush$[ebp]
  00222	0f 84 e8 fd ff
	ff		 je	 $LL2@deflate_fa
  00228	8b 4e 5c	 mov	 ecx, DWORD PTR [esi+92]
  0022b	85 c9		 test	 ecx, ecx
  0022d	78 07		 js	 SHORT $LN26@deflate_fa
  0022f	8b 56 38	 mov	 edx, DWORD PTR [esi+56]
  00232	03 d1		 add	 edx, ecx
  00234	eb 02		 jmp	 SHORT $LN27@deflate_fa
$LN26@deflate_fa:
  00236	33 d2		 xor	 edx, edx
$LN27@deflate_fa:
  00238	8b 46 6c	 mov	 eax, DWORD PTR [esi+108]
  0023b	2b c1		 sub	 eax, ecx
  0023d	8b ce		 mov	 ecx, esi
  0023f	6a 00		 push	 0
  00241	50		 push	 eax
  00242	e8 00 00 00 00	 call	 __tr_flush_block
  00247	8b 46 6c	 mov	 eax, DWORD PTR [esi+108]
  0024a	83 c4 08	 add	 esp, 8
  0024d	8b 0e		 mov	 ecx, DWORD PTR [esi]
  0024f	89 46 5c	 mov	 DWORD PTR [esi+92], eax
  00252	e8 00 00 00 00	 call	 _flush_pending
  00257	8b 06		 mov	 eax, DWORD PTR [esi]
  00259	83 78 10 00	 cmp	 DWORD PTR [eax+16], 0
  0025d	0f 85 ad fd ff
	ff		 jne	 $LL2@deflate_fa
$LN39@deflate_fa:
  00263	5f		 pop	 edi
  00264	5e		 pop	 esi
  00265	33 c0		 xor	 eax, eax
  00267	5b		 pop	 ebx

; 1722 : }

  00268	5d		 pop	 ebp
  00269	c3		 ret	 0
$LN38@deflate_fa:

; 1713 :     }
; 1714 :     s->insert = s->strstart < MIN_MATCH-1 ? s->strstart : MIN_MATCH-1;

  0026a	8b 4e 6c	 mov	 ecx, DWORD PTR [esi+108]
  0026d	b8 02 00 00 00	 mov	 eax, 2
  00272	3b c8		 cmp	 ecx, eax
  00274	0f 42 c1	 cmovb	 eax, ecx
  00277	89 86 b4 16 00
	00		 mov	 DWORD PTR [esi+5812], eax

; 1715 :     if (flush == Z_FINISH) {

  0027d	83 fb 04	 cmp	 ebx, 4
  00280	75 3e		 jne	 SHORT $LN19@deflate_fa

; 1716 :         FLUSH_BLOCK(s, 1);

  00282	8b 46 5c	 mov	 eax, DWORD PTR [esi+92]
  00285	85 c0		 test	 eax, eax
  00287	78 07		 js	 SHORT $LN30@deflate_fa
  00289	8b 56 38	 mov	 edx, DWORD PTR [esi+56]
  0028c	03 d0		 add	 edx, eax
  0028e	eb 02		 jmp	 SHORT $LN31@deflate_fa
$LN30@deflate_fa:
  00290	33 d2		 xor	 edx, edx
$LN31@deflate_fa:
  00292	2b c8		 sub	 ecx, eax
  00294	6a 01		 push	 1
  00296	51		 push	 ecx
  00297	8b ce		 mov	 ecx, esi
  00299	e8 00 00 00 00	 call	 __tr_flush_block
  0029e	8b 46 6c	 mov	 eax, DWORD PTR [esi+108]
  002a1	83 c4 08	 add	 esp, 8
  002a4	8b 0e		 mov	 ecx, DWORD PTR [esi]
  002a6	89 46 5c	 mov	 DWORD PTR [esi+92], eax
  002a9	e8 00 00 00 00	 call	 _flush_pending
  002ae	8b 0e		 mov	 ecx, DWORD PTR [esi]
  002b0	33 c0		 xor	 eax, eax
  002b2	5f		 pop	 edi
  002b3	5e		 pop	 esi
  002b4	5b		 pop	 ebx
  002b5	39 41 10	 cmp	 DWORD PTR [ecx+16], eax
  002b8	0f 95 c0	 setne	 al
  002bb	83 c0 02	 add	 eax, 2

; 1722 : }

  002be	5d		 pop	 ebp
  002bf	c3		 ret	 0
$LN19@deflate_fa:

; 1717 :         return finish_done;
; 1718 :     }
; 1719 :     if (s->last_lit)

  002c0	83 be a0 16 00
	00 00		 cmp	 DWORD PTR [esi+5792], 0
  002c7	74 38		 je	 SHORT $LN22@deflate_fa

; 1720 :         FLUSH_BLOCK(s, 0);

  002c9	8b 46 5c	 mov	 eax, DWORD PTR [esi+92]
  002cc	85 c0		 test	 eax, eax
  002ce	78 07		 js	 SHORT $LN32@deflate_fa
  002d0	8b 56 38	 mov	 edx, DWORD PTR [esi+56]
  002d3	03 d0		 add	 edx, eax
  002d5	eb 02		 jmp	 SHORT $LN33@deflate_fa
$LN32@deflate_fa:
  002d7	33 d2		 xor	 edx, edx
$LN33@deflate_fa:
  002d9	2b c8		 sub	 ecx, eax
  002db	6a 00		 push	 0
  002dd	51		 push	 ecx
  002de	8b ce		 mov	 ecx, esi
  002e0	e8 00 00 00 00	 call	 __tr_flush_block
  002e5	8b 46 6c	 mov	 eax, DWORD PTR [esi+108]
  002e8	83 c4 08	 add	 esp, 8
  002eb	8b 0e		 mov	 ecx, DWORD PTR [esi]
  002ed	89 46 5c	 mov	 DWORD PTR [esi+92], eax
  002f0	e8 00 00 00 00	 call	 _flush_pending
  002f5	8b 06		 mov	 eax, DWORD PTR [esi]
  002f7	83 78 10 00	 cmp	 DWORD PTR [eax+16], 0
  002fb	0f 84 62 ff ff
	ff		 je	 $LN39@deflate_fa
$LN22@deflate_fa:
  00301	5f		 pop	 edi
  00302	5e		 pop	 esi

; 1721 :     return block_done;

  00303	b8 01 00 00 00	 mov	 eax, 1
  00308	5b		 pop	 ebx

; 1722 : }

  00309	5d		 pop	 ebp
  0030a	c3		 ret	 0
_deflate_fast ENDP
_TEXT	ENDS
; Function compile flags: /Ogtp
; File d:\downloads\tgl-master\tgl-master\zlib\deflate.c
;	COMDAT _deflate_slow
_TEXT	SEGMENT
_bflush$1$ = -4						; size = 4
_max_insert$1$ = 8					; size = 4
_s$ = 8							; size = 4
_flush$ = 12						; size = 4
_deflate_slow PROC					; COMDAT

; 1733 : {

  00000	55		 push	 ebp
  00001	8b ec		 mov	 ebp, esp
  00003	51		 push	 ecx
  00004	53		 push	 ebx
  00005	8b 5d 0c	 mov	 ebx, DWORD PTR _flush$[ebp]
  00008	56		 push	 esi
  00009	8b 75 08	 mov	 esi, DWORD PTR _s$[ebp]
  0000c	57		 push	 edi
  0000d	0f 1f 00	 npad	 3
$LL2@deflate_sl:

; 1734 :     IPos hash_head;          /* head of hash chain */
; 1735 :     int bflush;              /* set if current block must be flushed */
; 1736 : 
; 1737 :     /* Process the input block. */
; 1738 :     for (;;) {
; 1739 :         /* Make sure that we always have enough lookahead, except
; 1740 :          * at the end of the input file. We need MAX_MATCH bytes
; 1741 :          * for the next match, plus MIN_MATCH bytes to insert the
; 1742 :          * string following the next match.
; 1743 :          */
; 1744 :         if (s->lookahead < MIN_LOOKAHEAD) {

  00010	8b 46 74	 mov	 eax, DWORD PTR [esi+116]
  00013	3d 06 01 00 00	 cmp	 eax, 262		; 00000106H
  00018	73 21		 jae	 SHORT $LN10@deflate_sl

; 1745 :             fill_window(s);

  0001a	8b ce		 mov	 ecx, esi
  0001c	e8 00 00 00 00	 call	 _fill_window

; 1746 :             if (s->lookahead < MIN_LOOKAHEAD && flush == Z_NO_FLUSH) {

  00021	8b 46 74	 mov	 eax, DWORD PTR [esi+116]
  00024	3d 06 01 00 00	 cmp	 eax, 262		; 00000106H
  00029	73 08		 jae	 SHORT $LN9@deflate_sl
  0002b	85 db		 test	 ebx, ebx
  0002d	0f 84 28 02 00
	00		 je	 $LN48@deflate_sl
$LN9@deflate_sl:

; 1747 :                 return need_more;
; 1748 :             }
; 1749 :             if (s->lookahead == 0) break; /* flush the current block */

  00033	85 c0		 test	 eax, eax
  00035	0f 84 d9 02 00
	00		 je	 $LN46@deflate_sl
$LN10@deflate_sl:

; 1750 :         }
; 1751 : 
; 1752 :         /* Insert the string window[strstart .. strstart+2] in the
; 1753 :          * dictionary, and set hash_head to the head of the hash chain:
; 1754 :          */
; 1755 :         hash_head = NIL;

  0003b	33 ff		 xor	 edi, edi

; 1756 :         if (s->lookahead >= MIN_MATCH) {

  0003d	83 f8 03	 cmp	 eax, 3
  00040	72 4c		 jb	 SHORT $LN11@deflate_sl

; 1757 :             INSERT_STRING(s, s->strstart, hash_head);

  00042	8b 7e 6c	 mov	 edi, DWORD PTR [esi+108]
  00045	8b 46 38	 mov	 eax, DWORD PTR [esi+56]
  00048	8b 5e 48	 mov	 ebx, DWORD PTR [esi+72]
  0004b	8b 4e 58	 mov	 ecx, DWORD PTR [esi+88]
  0004e	8b 56 34	 mov	 edx, DWORD PTR [esi+52]
  00051	0f b6 44 38 02	 movzx	 eax, BYTE PTR [eax+edi+2]
  00056	23 d7		 and	 edx, edi
  00058	d3 e3		 shl	 ebx, cl
  0005a	8b 4e 40	 mov	 ecx, DWORD PTR [esi+64]
  0005d	33 d8		 xor	 ebx, eax
  0005f	23 5e 54	 and	 ebx, DWORD PTR [esi+84]
  00062	8b 46 44	 mov	 eax, DWORD PTR [esi+68]
  00065	89 5e 48	 mov	 DWORD PTR [esi+72], ebx
  00068	0f b7 04 58	 movzx	 eax, WORD PTR [eax+ebx*2]
  0006c	8b 5d 0c	 mov	 ebx, DWORD PTR _flush$[ebp]
  0006f	66 89 04 51	 mov	 WORD PTR [ecx+edx*2], ax
  00073	8b 4e 6c	 mov	 ecx, DWORD PTR [esi+108]
  00076	23 4e 34	 and	 ecx, DWORD PTR [esi+52]
  00079	8b 46 40	 mov	 eax, DWORD PTR [esi+64]
  0007c	8b 56 48	 mov	 edx, DWORD PTR [esi+72]
  0007f	0f b7 3c 48	 movzx	 edi, WORD PTR [eax+ecx*2]
  00083	8b 4e 44	 mov	 ecx, DWORD PTR [esi+68]
  00086	0f b7 46 6c	 movzx	 eax, WORD PTR [esi+108]
  0008a	66 89 04 51	 mov	 WORD PTR [ecx+edx*2], ax
$LN11@deflate_sl:

; 1758 :         }
; 1759 : 
; 1760 :         /* Find the longest match, discarding those <= prev_length.
; 1761 :          */
; 1762 :         s->prev_length = s->match_length, s->prev_match = s->match_start;

  0008e	8b 46 60	 mov	 eax, DWORD PTR [esi+96]
  00091	89 46 78	 mov	 DWORD PTR [esi+120], eax
  00094	8b 46 70	 mov	 eax, DWORD PTR [esi+112]
  00097	89 46 64	 mov	 DWORD PTR [esi+100], eax

; 1763 :         s->match_length = MIN_MATCH-1;

  0009a	c7 46 60 02 00
	00 00		 mov	 DWORD PTR [esi+96], 2

; 1764 : 
; 1765 :         if (hash_head != NIL && s->prev_length < s->max_lazy_match &&

  000a1	85 ff		 test	 edi, edi
  000a3	74 4f		 je	 SHORT $LN13@deflate_sl
  000a5	8b 46 78	 mov	 eax, DWORD PTR [esi+120]
  000a8	3b 86 80 00 00
	00		 cmp	 eax, DWORD PTR [esi+128]
  000ae	73 44		 jae	 SHORT $LN13@deflate_sl
  000b0	8b 4e 6c	 mov	 ecx, DWORD PTR [esi+108]
  000b3	8b 46 2c	 mov	 eax, DWORD PTR [esi+44]
  000b6	2b cf		 sub	 ecx, edi
  000b8	2d 06 01 00 00	 sub	 eax, 262		; 00000106H
  000bd	3b c8		 cmp	 ecx, eax
  000bf	77 33		 ja	 SHORT $LN13@deflate_sl

; 1766 :             s->strstart - hash_head <= MAX_DIST(s)) {
; 1767 :             /* To simplify the code, we prevent matches with the string
; 1768 :              * of window index 0 (in particular we have to avoid a match
; 1769 :              * of the string with itself at the start of the input file).
; 1770 :              */
; 1771 :             s->match_length = longest_match (s, hash_head);

  000c1	8b d7		 mov	 edx, edi
  000c3	8b ce		 mov	 ecx, esi
  000c5	e8 00 00 00 00	 call	 _longest_match
  000ca	89 46 60	 mov	 DWORD PTR [esi+96], eax

; 1772 :             /* longest_match() sets match_start */
; 1773 : 
; 1774 :             if (s->match_length <= 5 && (s->strategy == Z_FILTERED

  000cd	83 f8 05	 cmp	 eax, 5
  000d0	77 22		 ja	 SHORT $LN13@deflate_sl
  000d2	83 be 88 00 00
	00 01		 cmp	 DWORD PTR [esi+136], 1
  000d9	74 12		 je	 SHORT $LN14@deflate_sl
  000db	83 f8 03	 cmp	 eax, 3
  000de	75 14		 jne	 SHORT $LN13@deflate_sl
  000e0	8b 46 6c	 mov	 eax, DWORD PTR [esi+108]
  000e3	2b 46 70	 sub	 eax, DWORD PTR [esi+112]
  000e6	3d 00 10 00 00	 cmp	 eax, 4096		; 00001000H
  000eb	76 07		 jbe	 SHORT $LN13@deflate_sl
$LN14@deflate_sl:

; 1775 : #if TOO_FAR <= 32767
; 1776 :                 || (s->match_length == MIN_MATCH &&
; 1777 :                     s->strstart - s->match_start > TOO_FAR)
; 1778 : #endif
; 1779 :                 )) {
; 1780 : 
; 1781 :                 /* If prev_match is also MIN_MATCH, match_start is garbage
; 1782 :                  * but we will ignore the current match anyway.
; 1783 :                  */
; 1784 :                 s->match_length = MIN_MATCH-1;

  000ed	c7 46 60 02 00
	00 00		 mov	 DWORD PTR [esi+96], 2
$LN13@deflate_sl:

; 1785 :             }
; 1786 :         }
; 1787 :         /* If there was a match at the previous step and the current
; 1788 :          * match is not better, output the previous match:
; 1789 :          */
; 1790 :         if (s->prev_length >= MIN_MATCH && s->match_length <= s->prev_length) {

  000f4	8b 46 78	 mov	 eax, DWORD PTR [esi+120]
  000f7	83 f8 03	 cmp	 eax, 3
  000fa	0f 82 64 01 00
	00		 jb	 $LN15@deflate_sl
  00100	39 46 60	 cmp	 DWORD PTR [esi+96], eax
  00103	0f 87 5b 01 00
	00		 ja	 $LN15@deflate_sl

; 1791 :             uInt max_insert = s->strstart + s->lookahead - MIN_MATCH;

  00109	8b 4e 6c	 mov	 ecx, DWORD PTR [esi+108]

; 1792 :             /* Do not insert strings in hash table beyond this. */
; 1793 : 
; 1794 :             check_match(s, s->strstart-1, s->prev_match, s->prev_length);
; 1795 : 
; 1796 :             _tr_tally_dist(s, s->strstart -1 - s->prev_match,

  0010c	8a d0		 mov	 dl, al
  0010e	66 8b 46 6c	 mov	 ax, WORD PTR [esi+108]
  00112	83 c1 fd	 add	 ecx, -3			; fffffffdH
  00115	66 2b 46 64	 sub	 ax, WORD PTR [esi+100]
  00119	80 ea 03	 sub	 dl, 3
  0011c	8b 7e 74	 mov	 edi, DWORD PTR [esi+116]
  0011f	66 48		 dec	 ax
  00121	0f b7 d8	 movzx	 ebx, ax
  00124	03 f9		 add	 edi, ecx
  00126	8b 8e a0 16 00
	00		 mov	 ecx, DWORD PTR [esi+5792]
  0012c	8b 86 a4 16 00
	00		 mov	 eax, DWORD PTR [esi+5796]
  00132	89 7d 08	 mov	 DWORD PTR _max_insert$1$[ebp], edi
  00135	66 89 1c 48	 mov	 WORD PTR [eax+ecx*2], bx
  00139	81 c3 ff ff 00
	00		 add	 ebx, 65535		; 0000ffffH
  0013f	8b 86 a0 16 00
	00		 mov	 eax, DWORD PTR [esi+5792]
  00145	8b 8e 98 16 00
	00		 mov	 ecx, DWORD PTR [esi+5784]
  0014b	88 14 01	 mov	 BYTE PTR [ecx+eax], dl
  0014e	ff 86 a0 16 00
	00		 inc	 DWORD PTR [esi+5792]
  00154	0f b6 c2	 movzx	 eax, dl
  00157	0f b6 80 00 00
	00 00		 movzx	 eax, BYTE PTR __length_code[eax]
  0015e	66 ff 84 86 98
	04 00 00	 inc	 WORD PTR [esi+eax*4+1176]
  00166	b8 00 01 00 00	 mov	 eax, 256		; 00000100H
  0016b	66 3b d8	 cmp	 bx, ax
  0016e	0f b7 c3	 movzx	 eax, bx
  00171	73 09		 jae	 SHORT $LN30@deflate_sl
  00173	0f b6 80 00 00
	00 00		 movzx	 eax, BYTE PTR __dist_code[eax]
  0017a	eb 0a		 jmp	 SHORT $LN31@deflate_sl
$LN30@deflate_sl:
  0017c	c1 e8 07	 shr	 eax, 7
  0017f	0f b6 80 00 01
	00 00		 movzx	 eax, BYTE PTR __dist_code[eax+256]
$LN31@deflate_sl:
  00186	66 ff 84 86 88
	09 00 00	 inc	 WORD PTR [esi+eax*4+2440]
  0018e	33 c9		 xor	 ecx, ecx
  00190	8b 86 9c 16 00
	00		 mov	 eax, DWORD PTR [esi+5788]
  00196	48		 dec	 eax
  00197	39 86 a0 16 00
	00		 cmp	 DWORD PTR [esi+5792], eax

; 1797 :                            s->prev_length - MIN_MATCH, bflush);
; 1798 : 
; 1799 :             /* Insert in hash table all strings up to the end of the match.
; 1800 :              * strstart-1 and strstart are already inserted. If there is not
; 1801 :              * enough lookahead, the last two strings are not inserted in
; 1802 :              * the hash table.
; 1803 :              */
; 1804 :             s->lookahead -= s->prev_length-1;

  0019d	b8 01 00 00 00	 mov	 eax, 1
  001a2	0f 94 c1	 sete	 cl
  001a5	89 4d fc	 mov	 DWORD PTR _bflush$1$[ebp], ecx
  001a8	8b 4e 78	 mov	 ecx, DWORD PTR [esi+120]
  001ab	2b c1		 sub	 eax, ecx
  001ad	01 46 74	 add	 DWORD PTR [esi+116], eax

; 1805 :             s->prev_length -= 2;

  001b0	8d 41 fe	 lea	 eax, DWORD PTR [ecx-2]
  001b3	89 46 78	 mov	 DWORD PTR [esi+120], eax
$LL7@deflate_sl:

; 1806 :             do {
; 1807 :                 if (++s->strstart <= max_insert) {

  001b6	ff 46 6c	 inc	 DWORD PTR [esi+108]
  001b9	8b 5e 6c	 mov	 ebx, DWORD PTR [esi+108]
  001bc	3b df		 cmp	 ebx, edi
  001be	77 3c		 ja	 SHORT $LN5@deflate_sl

; 1808 :                     INSERT_STRING(s, s->strstart, hash_head);

  001c0	8b 46 38	 mov	 eax, DWORD PTR [esi+56]
  001c3	8b 7e 48	 mov	 edi, DWORD PTR [esi+72]
  001c6	8b 4e 58	 mov	 ecx, DWORD PTR [esi+88]
  001c9	8b 56 34	 mov	 edx, DWORD PTR [esi+52]
  001cc	0f b6 44 18 02	 movzx	 eax, BYTE PTR [eax+ebx+2]
  001d1	d3 e7		 shl	 edi, cl
  001d3	8b 4e 40	 mov	 ecx, DWORD PTR [esi+64]
  001d6	33 f8		 xor	 edi, eax
  001d8	23 7e 54	 and	 edi, DWORD PTR [esi+84]
  001db	23 d3		 and	 edx, ebx
  001dd	8b 46 44	 mov	 eax, DWORD PTR [esi+68]
  001e0	89 7e 48	 mov	 DWORD PTR [esi+72], edi
  001e3	0f b7 04 78	 movzx	 eax, WORD PTR [eax+edi*2]
  001e7	8b 7d 08	 mov	 edi, DWORD PTR _max_insert$1$[ebp]
  001ea	66 89 04 51	 mov	 WORD PTR [ecx+edx*2], ax
  001ee	8b 56 48	 mov	 edx, DWORD PTR [esi+72]
  001f1	8b 4e 44	 mov	 ecx, DWORD PTR [esi+68]
  001f4	0f b7 46 6c	 movzx	 eax, WORD PTR [esi+108]
  001f8	66 89 04 51	 mov	 WORD PTR [ecx+edx*2], ax
$LN5@deflate_sl:

; 1809 :                 }
; 1810 :             } while (--s->prev_length != 0);

  001fc	83 46 78 ff	 add	 DWORD PTR [esi+120], -1
  00200	75 b4		 jne	 SHORT $LL7@deflate_sl

; 1811 :             s->match_available = 0;
; 1812 :             s->match_length = MIN_MATCH-1;
; 1813 :             s->strstart++;

  00202	ff 46 6c	 inc	 DWORD PTR [esi+108]

; 1814 : 
; 1815 :             if (bflush) FLUSH_BLOCK(s, 0);

  00205	83 7d fc 00	 cmp	 DWORD PTR _bflush$1$[ebp], 0
  00209	8b 4e 6c	 mov	 ecx, DWORD PTR [esi+108]
  0020c	8b 5d 0c	 mov	 ebx, DWORD PTR _flush$[ebp]
  0020f	c7 46 68 00 00
	00 00		 mov	 DWORD PTR [esi+104], 0
  00216	c7 46 60 02 00
	00 00		 mov	 DWORD PTR [esi+96], 2
  0021d	0f 84 ed fd ff
	ff		 je	 $LL2@deflate_sl
  00223	8b 46 5c	 mov	 eax, DWORD PTR [esi+92]
  00226	85 c0		 test	 eax, eax
  00228	78 07		 js	 SHORT $LN32@deflate_sl
  0022a	8b 56 38	 mov	 edx, DWORD PTR [esi+56]
  0022d	03 d0		 add	 edx, eax
  0022f	eb 02		 jmp	 SHORT $LN33@deflate_sl
$LN32@deflate_sl:
  00231	33 d2		 xor	 edx, edx
$LN33@deflate_sl:
  00233	2b c8		 sub	 ecx, eax
  00235	6a 00		 push	 0
  00237	51		 push	 ecx
  00238	8b ce		 mov	 ecx, esi
  0023a	e8 00 00 00 00	 call	 __tr_flush_block
  0023f	8b 46 6c	 mov	 eax, DWORD PTR [esi+108]
  00242	83 c4 08	 add	 esp, 8
  00245	8b 0e		 mov	 ecx, DWORD PTR [esi]
  00247	89 46 5c	 mov	 DWORD PTR [esi+92], eax
  0024a	e8 00 00 00 00	 call	 _flush_pending
  0024f	8b 06		 mov	 eax, DWORD PTR [esi]
  00251	83 78 10 00	 cmp	 DWORD PTR [eax+16], 0
  00255	0f 85 b5 fd ff
	ff		 jne	 $LL2@deflate_sl
$LN48@deflate_sl:
  0025b	5f		 pop	 edi
  0025c	5e		 pop	 esi

; 1826 :             }
; 1827 :             s->strstart++;
; 1828 :             s->lookahead--;
; 1829 :             if (s->strm->avail_out == 0) return need_more;

  0025d	33 c0		 xor	 eax, eax
  0025f	5b		 pop	 ebx

; 1853 : }

  00260	8b e5		 mov	 esp, ebp
  00262	5d		 pop	 ebp
  00263	c3		 ret	 0
$LN15@deflate_sl:

; 1816 : 
; 1817 :         } else if (s->match_available) {

  00264	83 7e 68 00	 cmp	 DWORD PTR [esi+104], 0
  00268	0f 84 94 00 00
	00		 je	 $LN20@deflate_sl

; 1818 :             /* If there was no match at the previous position, output a
; 1819 :              * single literal. If there was a match but the current match
; 1820 :              * is longer, truncate the previous match to a single literal.
; 1821 :              */
; 1822 :             Tracevv((stderr,"%c", s->window[s->strstart-1]));
; 1823 :             _tr_tally_lit(s, s->window[s->strstart-1], bflush);

  0026e	8b 4e 6c	 mov	 ecx, DWORD PTR [esi+108]
  00271	33 ff		 xor	 edi, edi
  00273	8b 46 38	 mov	 eax, DWORD PTR [esi+56]
  00276	8a 54 01 ff	 mov	 dl, BYTE PTR [ecx+eax-1]
  0027a	8b 8e a0 16 00
	00		 mov	 ecx, DWORD PTR [esi+5792]
  00280	8b 86 a4 16 00
	00		 mov	 eax, DWORD PTR [esi+5796]
  00286	66 89 3c 48	 mov	 WORD PTR [eax+ecx*2], di
  0028a	8b 86 a0 16 00
	00		 mov	 eax, DWORD PTR [esi+5792]
  00290	8b 8e 98 16 00
	00		 mov	 ecx, DWORD PTR [esi+5784]
  00296	88 14 01	 mov	 BYTE PTR [ecx+eax], dl
  00299	ff 86 a0 16 00
	00		 inc	 DWORD PTR [esi+5792]
  0029f	0f b6 c2	 movzx	 eax, dl
  002a2	66 ff 84 86 94
	00 00 00	 inc	 WORD PTR [esi+eax*4+148]
  002aa	8b 86 9c 16 00
	00		 mov	 eax, DWORD PTR [esi+5788]
  002b0	48		 dec	 eax
  002b1	39 86 a0 16 00
	00		 cmp	 DWORD PTR [esi+5792], eax

; 1824 :             if (bflush) {

  002b7	75 2f		 jne	 SHORT $LN22@deflate_sl

; 1825 :                 FLUSH_BLOCK_ONLY(s, 0);

  002b9	8b 4e 5c	 mov	 ecx, DWORD PTR [esi+92]
  002bc	85 c9		 test	 ecx, ecx
  002be	78 07		 js	 SHORT $LN34@deflate_sl
  002c0	8b 56 38	 mov	 edx, DWORD PTR [esi+56]
  002c3	03 d1		 add	 edx, ecx
  002c5	eb 02		 jmp	 SHORT $LN35@deflate_sl
$LN34@deflate_sl:
  002c7	33 d2		 xor	 edx, edx
$LN35@deflate_sl:
  002c9	8b 46 6c	 mov	 eax, DWORD PTR [esi+108]
  002cc	2b c1		 sub	 eax, ecx
  002ce	8b ce		 mov	 ecx, esi
  002d0	6a 00		 push	 0
  002d2	50		 push	 eax
  002d3	e8 00 00 00 00	 call	 __tr_flush_block
  002d8	8b 46 6c	 mov	 eax, DWORD PTR [esi+108]
  002db	83 c4 08	 add	 esp, 8
  002de	8b 0e		 mov	 ecx, DWORD PTR [esi]
  002e0	89 46 5c	 mov	 DWORD PTR [esi+92], eax
  002e3	e8 00 00 00 00	 call	 _flush_pending
$LN22@deflate_sl:

; 1826 :             }
; 1827 :             s->strstart++;
; 1828 :             s->lookahead--;
; 1829 :             if (s->strm->avail_out == 0) return need_more;

  002e8	8b 06		 mov	 eax, DWORD PTR [esi]
  002ea	ff 46 6c	 inc	 DWORD PTR [esi+108]
  002ed	ff 4e 74	 dec	 DWORD PTR [esi+116]
  002f0	39 78 10	 cmp	 DWORD PTR [eax+16], edi
  002f3	0f 85 17 fd ff
	ff		 jne	 $LL2@deflate_sl
  002f9	5f		 pop	 edi
  002fa	5e		 pop	 esi
  002fb	33 c0		 xor	 eax, eax
  002fd	5b		 pop	 ebx

; 1853 : }

  002fe	8b e5		 mov	 esp, ebp
  00300	5d		 pop	 ebp
  00301	c3		 ret	 0
$LN20@deflate_sl:

; 1830 :         } else {
; 1831 :             /* There is no previous match to compare with, wait for
; 1832 :              * the next step to decide.
; 1833 :              */
; 1834 :             s->match_available = 1;
; 1835 :             s->strstart++;

  00302	ff 46 6c	 inc	 DWORD PTR [esi+108]

; 1836 :             s->lookahead--;

  00305	ff 4e 74	 dec	 DWORD PTR [esi+116]
  00308	c7 46 68 01 00
	00 00		 mov	 DWORD PTR [esi+104], 1

; 1837 :         }
; 1838 :     }

  0030f	e9 fc fc ff ff	 jmp	 $LL2@deflate_sl
$LN46@deflate_sl:

; 1839 :     Assert (flush != Z_NO_FLUSH, "no flush?");
; 1840 :     if (s->match_available) {

  00314	83 7e 68 00	 cmp	 DWORD PTR [esi+104], 0
  00318	74 3f		 je	 SHORT $LN24@deflate_sl

; 1841 :         Tracevv((stderr,"%c", s->window[s->strstart-1]));
; 1842 :         _tr_tally_lit(s, s->window[s->strstart-1], bflush);

  0031a	8b 4e 6c	 mov	 ecx, DWORD PTR [esi+108]
  0031d	33 ff		 xor	 edi, edi
  0031f	8b 46 38	 mov	 eax, DWORD PTR [esi+56]
  00322	8a 54 01 ff	 mov	 dl, BYTE PTR [ecx+eax-1]
  00326	8b 8e a0 16 00
	00		 mov	 ecx, DWORD PTR [esi+5792]
  0032c	8b 86 a4 16 00
	00		 mov	 eax, DWORD PTR [esi+5796]
  00332	66 89 3c 48	 mov	 WORD PTR [eax+ecx*2], di
  00336	8b 86 a0 16 00
	00		 mov	 eax, DWORD PTR [esi+5792]
  0033c	8b 8e 98 16 00
	00		 mov	 ecx, DWORD PTR [esi+5784]
  00342	88 14 01	 mov	 BYTE PTR [ecx+eax], dl
  00345	ff 86 a0 16 00
	00		 inc	 DWORD PTR [esi+5792]
  0034b	0f b6 c2	 movzx	 eax, dl
  0034e	66 ff 84 86 94
	00 00 00	 inc	 WORD PTR [esi+eax*4+148]

; 1843 :         s->match_available = 0;

  00356	89 7e 68	 mov	 DWORD PTR [esi+104], edi
$LN24@deflate_sl:

; 1844 :     }
; 1845 :     s->insert = s->strstart < MIN_MATCH-1 ? s->strstart : MIN_MATCH-1;

  00359	8b 4e 6c	 mov	 ecx, DWORD PTR [esi+108]
  0035c	b8 02 00 00 00	 mov	 eax, 2
  00361	3b c8		 cmp	 ecx, eax
  00363	0f 42 c1	 cmovb	 eax, ecx
  00366	89 86 b4 16 00
	00		 mov	 DWORD PTR [esi+5812], eax

; 1846 :     if (flush == Z_FINISH) {

  0036c	83 fb 04	 cmp	 ebx, 4
  0036f	75 40		 jne	 SHORT $LN25@deflate_sl

; 1847 :         FLUSH_BLOCK(s, 1);

  00371	8b 46 5c	 mov	 eax, DWORD PTR [esi+92]
  00374	85 c0		 test	 eax, eax
  00376	78 07		 js	 SHORT $LN38@deflate_sl
  00378	8b 56 38	 mov	 edx, DWORD PTR [esi+56]
  0037b	03 d0		 add	 edx, eax
  0037d	eb 02		 jmp	 SHORT $LN39@deflate_sl
$LN38@deflate_sl:
  0037f	33 d2		 xor	 edx, edx
$LN39@deflate_sl:
  00381	2b c8		 sub	 ecx, eax
  00383	6a 01		 push	 1
  00385	51		 push	 ecx
  00386	8b ce		 mov	 ecx, esi
  00388	e8 00 00 00 00	 call	 __tr_flush_block
  0038d	8b 46 6c	 mov	 eax, DWORD PTR [esi+108]
  00390	83 c4 08	 add	 esp, 8
  00393	8b 0e		 mov	 ecx, DWORD PTR [esi]
  00395	89 46 5c	 mov	 DWORD PTR [esi+92], eax
  00398	e8 00 00 00 00	 call	 _flush_pending
  0039d	8b 06		 mov	 eax, DWORD PTR [esi]
  0039f	33 c9		 xor	 ecx, ecx
  003a1	5f		 pop	 edi
  003a2	5e		 pop	 esi
  003a3	5b		 pop	 ebx
  003a4	39 48 10	 cmp	 DWORD PTR [eax+16], ecx
  003a7	0f 95 c1	 setne	 cl
  003aa	8d 41 02	 lea	 eax, DWORD PTR [ecx+2]

; 1853 : }

  003ad	8b e5		 mov	 esp, ebp
  003af	5d		 pop	 ebp
  003b0	c3		 ret	 0
$LN25@deflate_sl:

; 1848 :         return finish_done;
; 1849 :     }
; 1850 :     if (s->last_lit)

  003b1	83 be a0 16 00
	00 00		 cmp	 DWORD PTR [esi+5792], 0
  003b8	74 38		 je	 SHORT $LN28@deflate_sl

; 1851 :         FLUSH_BLOCK(s, 0);

  003ba	8b 46 5c	 mov	 eax, DWORD PTR [esi+92]
  003bd	85 c0		 test	 eax, eax
  003bf	78 07		 js	 SHORT $LN40@deflate_sl
  003c1	8b 56 38	 mov	 edx, DWORD PTR [esi+56]
  003c4	03 d0		 add	 edx, eax
  003c6	eb 02		 jmp	 SHORT $LN41@deflate_sl
$LN40@deflate_sl:
  003c8	33 d2		 xor	 edx, edx
$LN41@deflate_sl:
  003ca	2b c8		 sub	 ecx, eax
  003cc	6a 00		 push	 0
  003ce	51		 push	 ecx
  003cf	8b ce		 mov	 ecx, esi
  003d1	e8 00 00 00 00	 call	 __tr_flush_block
  003d6	8b 46 6c	 mov	 eax, DWORD PTR [esi+108]
  003d9	83 c4 08	 add	 esp, 8
  003dc	8b 0e		 mov	 ecx, DWORD PTR [esi]
  003de	89 46 5c	 mov	 DWORD PTR [esi+92], eax
  003e1	e8 00 00 00 00	 call	 _flush_pending
  003e6	8b 06		 mov	 eax, DWORD PTR [esi]
  003e8	83 78 10 00	 cmp	 DWORD PTR [eax+16], 0
  003ec	0f 84 69 fe ff
	ff		 je	 $LN48@deflate_sl
$LN28@deflate_sl:
  003f2	5f		 pop	 edi
  003f3	5e		 pop	 esi

; 1852 :     return block_done;

  003f4	b8 01 00 00 00	 mov	 eax, 1
  003f9	5b		 pop	 ebx

; 1853 : }

  003fa	8b e5		 mov	 esp, ebp
  003fc	5d		 pop	 ebp
  003fd	c3		 ret	 0
_deflate_slow ENDP
_TEXT	ENDS
; Function compile flags: /Ogtp
; File d:\downloads\tgl-master\tgl-master\zlib\deflate.c
;	COMDAT _deflate_rle
_TEXT	SEGMENT
_flush$1$ = -4						; size = 4
_deflate_rle PROC					; COMDAT
; _s$ = ecx
; _flush$ = edx

; 1864 : {

  00000	55		 push	 ebp
  00001	8b ec		 mov	 ebp, esp
  00003	51		 push	 ecx
  00004	53		 push	 ebx
  00005	56		 push	 esi
  00006	8b da		 mov	 ebx, edx
  00008	8b f1		 mov	 esi, ecx
  0000a	57		 push	 edi
  0000b	89 5d fc	 mov	 DWORD PTR _flush$1$[ebp], ebx
  0000e	66 90		 npad	 2
$LL2@deflate_rl:

; 1865 :     int bflush;             /* set if current block must be flushed */
; 1866 :     uInt prev;              /* byte at distance one to match */
; 1867 :     Bytef *scan, *strend;   /* scan goes up to strend for length of run */
; 1868 : 
; 1869 :     for (;;) {
; 1870 :         /* Make sure that we always have enough lookahead, except
; 1871 :          * at the end of the input file. We need MAX_MATCH bytes
; 1872 :          * for the longest run, plus one for the unrolled loop.
; 1873 :          */
; 1874 :         if (s->lookahead <= MAX_MATCH) {

  00010	8b 7e 74	 mov	 edi, DWORD PTR [esi+116]
  00013	81 ff 02 01 00
	00		 cmp	 edi, 258		; 00000102H
  00019	77 22		 ja	 SHORT $LN10@deflate_rl

; 1875 :             fill_window(s);

  0001b	8b ce		 mov	 ecx, esi
  0001d	e8 00 00 00 00	 call	 _fill_window

; 1876 :             if (s->lookahead <= MAX_MATCH && flush == Z_NO_FLUSH) {

  00022	8b 7e 74	 mov	 edi, DWORD PTR [esi+116]
  00025	81 ff 02 01 00
	00		 cmp	 edi, 258		; 00000102H
  0002b	77 08		 ja	 SHORT $LN9@deflate_rl
  0002d	85 db		 test	 ebx, ebx
  0002f	0f 84 b6 01 00
	00		 je	 $LN37@deflate_rl
$LN9@deflate_rl:

; 1877 :                 return need_more;
; 1878 :             }
; 1879 :             if (s->lookahead == 0) break; /* flush the current block */

  00035	85 ff		 test	 edi, edi
  00037	0f 84 b7 01 00
	00		 je	 $LN36@deflate_rl
$LN10@deflate_rl:

; 1880 :         }
; 1881 : 
; 1882 :         /* See how many times the previous byte repeats */
; 1883 :         s->match_length = 0;

  0003d	c7 46 60 00 00
	00 00		 mov	 DWORD PTR [esi+96], 0

; 1884 :         if (s->lookahead >= MIN_MATCH && s->strstart > 0) {

  00044	83 ff 03	 cmp	 edi, 3
  00047	0f 82 95 00 00
	00		 jb	 $LN14@deflate_rl
  0004d	8b 4e 6c	 mov	 ecx, DWORD PTR [esi+108]
  00050	85 c9		 test	 ecx, ecx
  00052	0f 84 8a 00 00
	00		 je	 $LN14@deflate_rl

; 1885 :             scan = s->window + s->strstart - 1;

  00058	8b 5e 38	 mov	 ebx, DWORD PTR [esi+56]
  0005b	03 d9		 add	 ebx, ecx

; 1886 :             prev = *scan;
; 1887 :             if (prev == *++scan && prev == *++scan && prev == *++scan) {

  0005d	0f b6 0b	 movzx	 ecx, BYTE PTR [ebx]
  00060	0f b6 53 ff	 movzx	 edx, BYTE PTR [ebx-1]
  00064	8d 43 ff	 lea	 eax, DWORD PTR [ebx-1]
  00067	3b d1		 cmp	 edx, ecx
  00069	75 74		 jne	 SHORT $LN44@deflate_rl
  0006b	0f b6 48 02	 movzx	 ecx, BYTE PTR [eax+2]
  0006f	3b d1		 cmp	 edx, ecx
  00071	75 6c		 jne	 SHORT $LN44@deflate_rl
  00073	0f b6 48 03	 movzx	 ecx, BYTE PTR [eax+3]
  00077	83 c0 03	 add	 eax, 3
  0007a	3b d1		 cmp	 edx, ecx
  0007c	75 61		 jne	 SHORT $LN44@deflate_rl

; 1888 :                 strend = s->window + s->strstart + MAX_MATCH;

  0007e	81 c3 02 01 00
	00		 add	 ebx, 258		; 00000102H
$LL7@deflate_rl:

; 1889 :                 do {
; 1890 :                 } while (prev == *++scan && prev == *++scan &&
; 1891 :                          prev == *++scan && prev == *++scan &&
; 1892 :                          prev == *++scan && prev == *++scan &&
; 1893 :                          prev == *++scan && prev == *++scan &&

  00084	0f b6 48 01	 movzx	 ecx, BYTE PTR [eax+1]
  00088	40		 inc	 eax
  00089	3b d1		 cmp	 edx, ecx
  0008b	75 43		 jne	 SHORT $LN13@deflate_rl
  0008d	0f b6 48 01	 movzx	 ecx, BYTE PTR [eax+1]
  00091	40		 inc	 eax
  00092	3b d1		 cmp	 edx, ecx
  00094	75 3a		 jne	 SHORT $LN13@deflate_rl
  00096	0f b6 48 01	 movzx	 ecx, BYTE PTR [eax+1]
  0009a	40		 inc	 eax
  0009b	3b d1		 cmp	 edx, ecx
  0009d	75 31		 jne	 SHORT $LN13@deflate_rl
  0009f	0f b6 48 01	 movzx	 ecx, BYTE PTR [eax+1]
  000a3	40		 inc	 eax
  000a4	3b d1		 cmp	 edx, ecx
  000a6	75 28		 jne	 SHORT $LN13@deflate_rl
  000a8	0f b6 48 01	 movzx	 ecx, BYTE PTR [eax+1]
  000ac	40		 inc	 eax
  000ad	3b d1		 cmp	 edx, ecx
  000af	75 1f		 jne	 SHORT $LN13@deflate_rl
  000b1	0f b6 48 01	 movzx	 ecx, BYTE PTR [eax+1]
  000b5	40		 inc	 eax
  000b6	3b d1		 cmp	 edx, ecx
  000b8	75 16		 jne	 SHORT $LN13@deflate_rl
  000ba	0f b6 48 01	 movzx	 ecx, BYTE PTR [eax+1]
  000be	40		 inc	 eax
  000bf	3b d1		 cmp	 edx, ecx
  000c1	75 0d		 jne	 SHORT $LN13@deflate_rl
  000c3	0f b6 48 01	 movzx	 ecx, BYTE PTR [eax+1]
  000c7	40		 inc	 eax
  000c8	3b d1		 cmp	 edx, ecx
  000ca	75 04		 jne	 SHORT $LN13@deflate_rl
  000cc	3b c3		 cmp	 eax, ebx
  000ce	72 b4		 jb	 SHORT $LL7@deflate_rl
$LN13@deflate_rl:

; 1894 :                          scan < strend);
; 1895 :                 s->match_length = MAX_MATCH - (int)(strend - scan);

  000d0	2b c3		 sub	 eax, ebx
  000d2	05 02 01 00 00	 add	 eax, 258		; 00000102H

; 1896 :                 if (s->match_length > s->lookahead)

  000d7	3b c7		 cmp	 eax, edi
  000d9	0f 47 c7	 cmova	 eax, edi
  000dc	89 46 60	 mov	 DWORD PTR [esi+96], eax
$LN44@deflate_rl:
  000df	8b 5d fc	 mov	 ebx, DWORD PTR _flush$1$[ebp]
$LN14@deflate_rl:

; 1897 :                     s->match_length = s->lookahead;
; 1898 :             }
; 1899 :             Assert(scan <= s->window+(uInt)(s->window_size-1), "wild scan");
; 1900 :         }
; 1901 : 
; 1902 :         /* Emit match if have run of MIN_MATCH or longer, else emit literal */
; 1903 :         if (s->match_length >= MIN_MATCH) {

  000e2	83 7e 60 03	 cmp	 DWORD PTR [esi+96], 3
  000e6	72 6d		 jb	 SHORT $LN15@deflate_rl

; 1904 :             check_match(s, s->strstart, s->strstart - 1, s->match_length);
; 1905 : 
; 1906 :             _tr_tally_dist(s, 1, s->match_length - MIN_MATCH, bflush);

  000e8	8b 8e a0 16 00
	00		 mov	 ecx, DWORD PTR [esi+5792]
  000ee	bf 01 00 00 00	 mov	 edi, 1
  000f3	8b 86 a4 16 00
	00		 mov	 eax, DWORD PTR [esi+5796]
  000f9	8a 56 60	 mov	 dl, BYTE PTR [esi+96]
  000fc	80 ea 03	 sub	 dl, 3
  000ff	66 89 3c 48	 mov	 WORD PTR [eax+ecx*2], di
  00103	8b 86 a0 16 00
	00		 mov	 eax, DWORD PTR [esi+5792]
  00109	8b 8e 98 16 00
	00		 mov	 ecx, DWORD PTR [esi+5784]
  0010f	88 14 01	 mov	 BYTE PTR [ecx+eax], dl
  00112	33 c9		 xor	 ecx, ecx
  00114	ff 86 a0 16 00
	00		 inc	 DWORD PTR [esi+5792]
  0011a	0f b6 c2	 movzx	 eax, dl
  0011d	0f b6 80 00 00
	00 00		 movzx	 eax, BYTE PTR __length_code[eax]
  00124	66 ff 84 86 98
	04 00 00	 inc	 WORD PTR [esi+eax*4+1176]
  0012c	66 ff 86 88 09
	00 00		 inc	 WORD PTR [esi+2440]
  00133	8b 86 9c 16 00
	00		 mov	 eax, DWORD PTR [esi+5788]
  00139	48		 dec	 eax
  0013a	39 86 a0 16 00
	00		 cmp	 DWORD PTR [esi+5792], eax

; 1907 : 
; 1908 :             s->lookahead -= s->match_length;

  00140	8b 46 60	 mov	 eax, DWORD PTR [esi+96]
  00143	0f 94 c1	 sete	 cl

; 1909 :             s->strstart += s->match_length;
; 1910 :             s->match_length = 0;

  00146	c7 46 60 00 00
	00 00		 mov	 DWORD PTR [esi+96], 0
  0014d	29 46 74	 sub	 DWORD PTR [esi+116], eax
  00150	01 46 6c	 add	 DWORD PTR [esi+108], eax

; 1911 :         } else {

  00153	eb 53		 jmp	 SHORT $LN16@deflate_rl
$LN15@deflate_rl:

; 1912 :             /* No match, output a literal byte */
; 1913 :             Tracevv((stderr,"%c", s->window[s->strstart]));
; 1914 :             _tr_tally_lit (s, s->window[s->strstart], bflush);

  00155	8b 46 6c	 mov	 eax, DWORD PTR [esi+108]
  00158	33 ff		 xor	 edi, edi
  0015a	8b 4e 38	 mov	 ecx, DWORD PTR [esi+56]
  0015d	8a 14 01	 mov	 dl, BYTE PTR [ecx+eax]
  00160	8b 8e a0 16 00
	00		 mov	 ecx, DWORD PTR [esi+5792]
  00166	8b 86 a4 16 00
	00		 mov	 eax, DWORD PTR [esi+5796]
  0016c	66 89 3c 48	 mov	 WORD PTR [eax+ecx*2], di
  00170	8b 86 a0 16 00
	00		 mov	 eax, DWORD PTR [esi+5792]
  00176	8b 8e 98 16 00
	00		 mov	 ecx, DWORD PTR [esi+5784]
  0017c	88 14 01	 mov	 BYTE PTR [ecx+eax], dl
  0017f	33 c9		 xor	 ecx, ecx
  00181	ff 86 a0 16 00
	00		 inc	 DWORD PTR [esi+5792]
  00187	0f b6 c2	 movzx	 eax, dl
  0018a	66 ff 84 86 94
	00 00 00	 inc	 WORD PTR [esi+eax*4+148]
  00192	8b 86 9c 16 00
	00		 mov	 eax, DWORD PTR [esi+5788]
  00198	48		 dec	 eax
  00199	39 86 a0 16 00
	00		 cmp	 DWORD PTR [esi+5792], eax
  0019f	0f 94 c1	 sete	 cl

; 1915 :             s->lookahead--;

  001a2	ff 4e 74	 dec	 DWORD PTR [esi+116]

; 1916 :             s->strstart++;

  001a5	ff 46 6c	 inc	 DWORD PTR [esi+108]
$LN16@deflate_rl:

; 1917 :         }
; 1918 :         if (bflush) FLUSH_BLOCK(s, 0);

  001a8	85 c9		 test	 ecx, ecx
  001aa	0f 84 60 fe ff
	ff		 je	 $LL2@deflate_rl
  001b0	8b 4e 5c	 mov	 ecx, DWORD PTR [esi+92]
  001b3	85 c9		 test	 ecx, ecx
  001b5	78 07		 js	 SHORT $LN26@deflate_rl
  001b7	8b 56 38	 mov	 edx, DWORD PTR [esi+56]
  001ba	03 d1		 add	 edx, ecx
  001bc	eb 02		 jmp	 SHORT $LN27@deflate_rl
$LN26@deflate_rl:
  001be	33 d2		 xor	 edx, edx
$LN27@deflate_rl:
  001c0	8b 46 6c	 mov	 eax, DWORD PTR [esi+108]
  001c3	2b c1		 sub	 eax, ecx
  001c5	8b ce		 mov	 ecx, esi
  001c7	6a 00		 push	 0
  001c9	50		 push	 eax
  001ca	e8 00 00 00 00	 call	 __tr_flush_block
  001cf	8b 46 6c	 mov	 eax, DWORD PTR [esi+108]
  001d2	83 c4 08	 add	 esp, 8
  001d5	8b 0e		 mov	 ecx, DWORD PTR [esi]
  001d7	89 46 5c	 mov	 DWORD PTR [esi+92], eax
  001da	e8 00 00 00 00	 call	 _flush_pending
  001df	8b 06		 mov	 eax, DWORD PTR [esi]
  001e1	83 78 10 00	 cmp	 DWORD PTR [eax+16], 0
  001e5	0f 85 25 fe ff
	ff		 jne	 $LL2@deflate_rl
$LN37@deflate_rl:
  001eb	5f		 pop	 edi
  001ec	5e		 pop	 esi
  001ed	33 c0		 xor	 eax, eax
  001ef	5b		 pop	 ebx

; 1928 : }

  001f0	8b e5		 mov	 esp, ebp
  001f2	5d		 pop	 ebp
  001f3	c3		 ret	 0
$LN36@deflate_rl:

; 1919 :     }
; 1920 :     s->insert = 0;

  001f4	c7 86 b4 16 00
	00 00 00 00 00	 mov	 DWORD PTR [esi+5812], 0

; 1921 :     if (flush == Z_FINISH) {

  001fe	83 fb 04	 cmp	 ebx, 4
  00201	75 43		 jne	 SHORT $LN19@deflate_rl

; 1922 :         FLUSH_BLOCK(s, 1);

  00203	8b 4e 5c	 mov	 ecx, DWORD PTR [esi+92]
  00206	85 c9		 test	 ecx, ecx
  00208	78 07		 js	 SHORT $LN28@deflate_rl
  0020a	8b 56 38	 mov	 edx, DWORD PTR [esi+56]
  0020d	03 d1		 add	 edx, ecx
  0020f	eb 02		 jmp	 SHORT $LN29@deflate_rl
$LN28@deflate_rl:
  00211	33 d2		 xor	 edx, edx
$LN29@deflate_rl:
  00213	8b 46 6c	 mov	 eax, DWORD PTR [esi+108]
  00216	2b c1		 sub	 eax, ecx
  00218	8b ce		 mov	 ecx, esi
  0021a	6a 01		 push	 1
  0021c	50		 push	 eax
  0021d	e8 00 00 00 00	 call	 __tr_flush_block
  00222	8b 46 6c	 mov	 eax, DWORD PTR [esi+108]
  00225	83 c4 08	 add	 esp, 8
  00228	8b 0e		 mov	 ecx, DWORD PTR [esi]
  0022a	89 46 5c	 mov	 DWORD PTR [esi+92], eax
  0022d	e8 00 00 00 00	 call	 _flush_pending
  00232	8b 06		 mov	 eax, DWORD PTR [esi]
  00234	33 c9		 xor	 ecx, ecx
  00236	5f		 pop	 edi
  00237	5e		 pop	 esi
  00238	5b		 pop	 ebx
  00239	39 48 10	 cmp	 DWORD PTR [eax+16], ecx
  0023c	0f 95 c1	 setne	 cl
  0023f	8d 41 02	 lea	 eax, DWORD PTR [ecx+2]

; 1928 : }

  00242	8b e5		 mov	 esp, ebp
  00244	5d		 pop	 ebp
  00245	c3		 ret	 0
$LN19@deflate_rl:

; 1923 :         return finish_done;
; 1924 :     }
; 1925 :     if (s->last_lit)

  00246	83 be a0 16 00
	00 00		 cmp	 DWORD PTR [esi+5792], 0
  0024d	74 3b		 je	 SHORT $LN22@deflate_rl

; 1926 :         FLUSH_BLOCK(s, 0);

  0024f	8b 4e 5c	 mov	 ecx, DWORD PTR [esi+92]
  00252	85 c9		 test	 ecx, ecx
  00254	78 07		 js	 SHORT $LN30@deflate_rl
  00256	8b 56 38	 mov	 edx, DWORD PTR [esi+56]
  00259	03 d1		 add	 edx, ecx
  0025b	eb 02		 jmp	 SHORT $LN31@deflate_rl
$LN30@deflate_rl:
  0025d	33 d2		 xor	 edx, edx
$LN31@deflate_rl:
  0025f	8b 46 6c	 mov	 eax, DWORD PTR [esi+108]
  00262	2b c1		 sub	 eax, ecx
  00264	8b ce		 mov	 ecx, esi
  00266	6a 00		 push	 0
  00268	50		 push	 eax
  00269	e8 00 00 00 00	 call	 __tr_flush_block
  0026e	8b 46 6c	 mov	 eax, DWORD PTR [esi+108]
  00271	83 c4 08	 add	 esp, 8
  00274	8b 0e		 mov	 ecx, DWORD PTR [esi]
  00276	89 46 5c	 mov	 DWORD PTR [esi+92], eax
  00279	e8 00 00 00 00	 call	 _flush_pending
  0027e	8b 06		 mov	 eax, DWORD PTR [esi]
  00280	83 78 10 00	 cmp	 DWORD PTR [eax+16], 0
  00284	0f 84 61 ff ff
	ff		 je	 $LN37@deflate_rl
$LN22@deflate_rl:
  0028a	5f		 pop	 edi
  0028b	5e		 pop	 esi

; 1927 :     return block_done;

  0028c	b8 01 00 00 00	 mov	 eax, 1
  00291	5b		 pop	 ebx

; 1928 : }

  00292	8b e5		 mov	 esp, ebp
  00294	5d		 pop	 ebp
  00295	c3		 ret	 0
_deflate_rle ENDP
_TEXT	ENDS
; Function compile flags: /Ogtp
; File d:\downloads\tgl-master\tgl-master\zlib\deflate.c
;	COMDAT _deflate_huff
_TEXT	SEGMENT
_deflate_huff PROC					; COMDAT
; _s$ = ecx
; _flush$ = edx

; 1937 : {

  00000	53		 push	 ebx
  00001	56		 push	 esi
  00002	57		 push	 edi
  00003	8b fa		 mov	 edi, edx
  00005	8b f1		 mov	 esi, ecx
$LL2@deflate_hu:

; 1938 :     int bflush;             /* set if current block must be flushed */
; 1939 : 
; 1940 :     for (;;) {
; 1941 :         /* Make sure that we have a literal to write. */
; 1942 :         if (s->lookahead == 0) {

  00007	83 7e 74 00	 cmp	 DWORD PTR [esi+116], 0
  0000b	75 11		 jne	 SHORT $LN6@deflate_hu

; 1943 :             fill_window(s);

  0000d	8b ce		 mov	 ecx, esi
  0000f	e8 00 00 00 00	 call	 _fill_window

; 1944 :             if (s->lookahead == 0) {

  00014	83 7e 74 00	 cmp	 DWORD PTR [esi+116], 0
  00018	0f 84 97 00 00
	00		 je	 $LN23@deflate_hu
$LN6@deflate_hu:

; 1946 :                     return need_more;
; 1947 :                 break;      /* flush the current block */
; 1948 :             }
; 1949 :         }
; 1950 : 
; 1951 :         /* Output a literal byte */
; 1952 :         s->match_length = 0;
; 1953 :         Tracevv((stderr,"%c", s->window[s->strstart]));
; 1954 :         _tr_tally_lit (s, s->window[s->strstart], bflush);

  0001e	8b 4e 6c	 mov	 ecx, DWORD PTR [esi+108]
  00021	33 db		 xor	 ebx, ebx
  00023	8b 46 38	 mov	 eax, DWORD PTR [esi+56]
  00026	c7 46 60 00 00
	00 00		 mov	 DWORD PTR [esi+96], 0
  0002d	8a 14 01	 mov	 dl, BYTE PTR [ecx+eax]
  00030	8b 8e a0 16 00
	00		 mov	 ecx, DWORD PTR [esi+5792]
  00036	8b 86 a4 16 00
	00		 mov	 eax, DWORD PTR [esi+5796]
  0003c	66 89 1c 48	 mov	 WORD PTR [eax+ecx*2], bx
  00040	8b 86 a0 16 00
	00		 mov	 eax, DWORD PTR [esi+5792]
  00046	8b 8e 98 16 00
	00		 mov	 ecx, DWORD PTR [esi+5784]
  0004c	88 14 01	 mov	 BYTE PTR [ecx+eax], dl
  0004f	ff 86 a0 16 00
	00		 inc	 DWORD PTR [esi+5792]
  00055	0f b6 c2	 movzx	 eax, dl
  00058	66 ff 84 86 94
	00 00 00	 inc	 WORD PTR [esi+eax*4+148]
  00060	8b 86 9c 16 00
	00		 mov	 eax, DWORD PTR [esi+5788]

; 1955 :         s->lookahead--;
; 1956 :         s->strstart++;

  00066	ff 46 6c	 inc	 DWORD PTR [esi+108]
  00069	48		 dec	 eax
  0006a	ff 4e 74	 dec	 DWORD PTR [esi+116]
  0006d	8b 4e 6c	 mov	 ecx, DWORD PTR [esi+108]
  00070	39 86 a0 16 00
	00		 cmp	 DWORD PTR [esi+5792], eax

; 1957 :         if (bflush) FLUSH_BLOCK(s, 0);

  00076	75 8f		 jne	 SHORT $LL2@deflate_hu
  00078	8b 46 5c	 mov	 eax, DWORD PTR [esi+92]
  0007b	85 c0		 test	 eax, eax
  0007d	78 07		 js	 SHORT $LN15@deflate_hu
  0007f	8b 56 38	 mov	 edx, DWORD PTR [esi+56]
  00082	03 d0		 add	 edx, eax
  00084	eb 02		 jmp	 SHORT $LN16@deflate_hu
$LN15@deflate_hu:
  00086	33 d2		 xor	 edx, edx
$LN16@deflate_hu:
  00088	2b c8		 sub	 ecx, eax
  0008a	6a 00		 push	 0
  0008c	51		 push	 ecx
  0008d	8b ce		 mov	 ecx, esi
  0008f	e8 00 00 00 00	 call	 __tr_flush_block
  00094	8b 46 6c	 mov	 eax, DWORD PTR [esi+108]
  00097	83 c4 08	 add	 esp, 8
  0009a	8b 0e		 mov	 ecx, DWORD PTR [esi]
  0009c	89 46 5c	 mov	 DWORD PTR [esi+92], eax
  0009f	e8 00 00 00 00	 call	 _flush_pending
  000a4	8b 06		 mov	 eax, DWORD PTR [esi]
  000a6	39 58 10	 cmp	 DWORD PTR [eax+16], ebx
  000a9	0f 85 58 ff ff
	ff		 jne	 $LL2@deflate_hu
$LN24@deflate_hu:
  000af	5f		 pop	 edi
  000b0	5e		 pop	 esi
  000b1	33 c0		 xor	 eax, eax
  000b3	5b		 pop	 ebx

; 1967 : }

  000b4	c3		 ret	 0
$LN23@deflate_hu:

; 1945 :                 if (flush == Z_NO_FLUSH)

  000b5	85 ff		 test	 edi, edi
  000b7	74 f6		 je	 SHORT $LN24@deflate_hu

; 1958 :     }
; 1959 :     s->insert = 0;

  000b9	c7 86 b4 16 00
	00 00 00 00 00	 mov	 DWORD PTR [esi+5812], 0

; 1960 :     if (flush == Z_FINISH) {

  000c3	83 ff 04	 cmp	 edi, 4
  000c6	75 40		 jne	 SHORT $LN10@deflate_hu

; 1961 :         FLUSH_BLOCK(s, 1);

  000c8	8b 4e 5c	 mov	 ecx, DWORD PTR [esi+92]
  000cb	85 c9		 test	 ecx, ecx
  000cd	78 07		 js	 SHORT $LN17@deflate_hu
  000cf	8b 56 38	 mov	 edx, DWORD PTR [esi+56]
  000d2	03 d1		 add	 edx, ecx
  000d4	eb 02		 jmp	 SHORT $LN18@deflate_hu
$LN17@deflate_hu:
  000d6	33 d2		 xor	 edx, edx
$LN18@deflate_hu:
  000d8	8b 46 6c	 mov	 eax, DWORD PTR [esi+108]
  000db	2b c1		 sub	 eax, ecx
  000dd	8b ce		 mov	 ecx, esi
  000df	6a 01		 push	 1
  000e1	50		 push	 eax
  000e2	e8 00 00 00 00	 call	 __tr_flush_block
  000e7	8b 46 6c	 mov	 eax, DWORD PTR [esi+108]
  000ea	83 c4 08	 add	 esp, 8
  000ed	8b 0e		 mov	 ecx, DWORD PTR [esi]
  000ef	89 46 5c	 mov	 DWORD PTR [esi+92], eax
  000f2	e8 00 00 00 00	 call	 _flush_pending
  000f7	8b 0e		 mov	 ecx, DWORD PTR [esi]
  000f9	33 c0		 xor	 eax, eax
  000fb	5f		 pop	 edi
  000fc	5e		 pop	 esi
  000fd	5b		 pop	 ebx
  000fe	39 41 10	 cmp	 DWORD PTR [ecx+16], eax
  00101	0f 95 c0	 setne	 al
  00104	83 c0 02	 add	 eax, 2

; 1967 : }

  00107	c3		 ret	 0
$LN10@deflate_hu:

; 1962 :         return finish_done;
; 1963 :     }
; 1964 :     if (s->last_lit)

  00108	83 be a0 16 00
	00 00		 cmp	 DWORD PTR [esi+5792], 0
  0010f	74 3b		 je	 SHORT $LN13@deflate_hu

; 1965 :         FLUSH_BLOCK(s, 0);

  00111	8b 4e 5c	 mov	 ecx, DWORD PTR [esi+92]
  00114	85 c9		 test	 ecx, ecx
  00116	78 07		 js	 SHORT $LN19@deflate_hu
  00118	8b 56 38	 mov	 edx, DWORD PTR [esi+56]
  0011b	03 d1		 add	 edx, ecx
  0011d	eb 02		 jmp	 SHORT $LN20@deflate_hu
$LN19@deflate_hu:
  0011f	33 d2		 xor	 edx, edx
$LN20@deflate_hu:
  00121	8b 46 6c	 mov	 eax, DWORD PTR [esi+108]
  00124	2b c1		 sub	 eax, ecx
  00126	8b ce		 mov	 ecx, esi
  00128	6a 00		 push	 0
  0012a	50		 push	 eax
  0012b	e8 00 00 00 00	 call	 __tr_flush_block
  00130	8b 46 6c	 mov	 eax, DWORD PTR [esi+108]
  00133	83 c4 08	 add	 esp, 8
  00136	8b 0e		 mov	 ecx, DWORD PTR [esi]
  00138	89 46 5c	 mov	 DWORD PTR [esi+92], eax
  0013b	e8 00 00 00 00	 call	 _flush_pending
  00140	8b 06		 mov	 eax, DWORD PTR [esi]
  00142	83 78 10 00	 cmp	 DWORD PTR [eax+16], 0
  00146	0f 84 63 ff ff
	ff		 je	 $LN24@deflate_hu
$LN13@deflate_hu:
  0014c	5f		 pop	 edi
  0014d	5e		 pop	 esi

; 1966 :     return block_done;

  0014e	b8 01 00 00 00	 mov	 eax, 1
  00153	5b		 pop	 ebx

; 1967 : }

  00154	c3		 ret	 0
_deflate_huff ENDP
_TEXT	ENDS
END
