; Listing generated by Microsoft (R) Optimizing Compiler Version 19.00.23506.0 

	TITLE	d:\downloads\tgl-master\tgl-master\zlib\gzread.c
	.686P
	.XMM
	include listing.inc
	.model	flat

INCLUDELIB OLDNAMES

PUBLIC	??_C@_0BH@CFIIDOJD@unexpected?5end?5of?5file?$AA@ ; `string'
PUBLIC	??_C@_0CH@CPOLIEKA@internal?5error?3?5inflate?5stream?5c@ ; `string'
PUBLIC	??_C@_0BG@HCKBMIHF@compressed?5data?5error?$AA@	; `string'
PUBLIC	??_C@_0CF@MLPJFDMM@requested?5length?5does?5not?5fit?5in@ ; `string'
PUBLIC	??_C@_0BP@IIKIGMCC@out?5of?5room?5to?5push?5characters?$AA@ ; `string'
EXTRN	__imp__strerror:PROC
EXTRN	__imp__memchr:PROC
EXTRN	__imp___errno:PROC
EXTRN	__imp___close:PROC
EXTRN	__imp___read:PROC
;	COMDAT ??_C@_0BP@IIKIGMCC@out?5of?5room?5to?5push?5characters?$AA@
CONST	SEGMENT
??_C@_0BP@IIKIGMCC@out?5of?5room?5to?5push?5characters?$AA@ DB 'out of ro'
	DB	'om to push characters', 00H			; `string'
CONST	ENDS
;	COMDAT ??_C@_0CF@MLPJFDMM@requested?5length?5does?5not?5fit?5in@
CONST	SEGMENT
??_C@_0CF@MLPJFDMM@requested?5length?5does?5not?5fit?5in@ DB 'requested l'
	DB	'ength does not fit in int', 00H		; `string'
CONST	ENDS
;	COMDAT ??_C@_0BG@HCKBMIHF@compressed?5data?5error?$AA@
CONST	SEGMENT
??_C@_0BG@HCKBMIHF@compressed?5data?5error?$AA@ DB 'compressed data error'
	DB	00H						; `string'
CONST	ENDS
;	COMDAT ??_C@_0CH@CPOLIEKA@internal?5error?3?5inflate?5stream?5c@
CONST	SEGMENT
??_C@_0CH@CPOLIEKA@internal?5error?3?5inflate?5stream?5c@ DB 'internal er'
	DB	'ror: inflate stream corrupt', 00H		; `string'
CONST	ENDS
;	COMDAT ??_C@_0BH@CFIIDOJD@unexpected?5end?5of?5file?$AA@
CONST	SEGMENT
??_C@_0BH@CFIIDOJD@unexpected?5end?5of?5file?$AA@ DB 'unexpected end of f'
	DB	'ile', 00H					; `string'
PUBLIC	_gzdirect@4
PUBLIC	_gzgets@12
PUBLIC	_gzungetc@8
PUBLIC	_gzgetc_@4
PUBLIC	_gzgetc@4
PUBLIC	_gzread@12
PUBLIC	_gzclose_r@4
; Function compile flags: /Ogtp
; File d:\downloads\tgl-master\tgl-master\zlib\gzread.c
;	COMDAT _gzclose_r@4
_TEXT	SEGMENT
_file$ = 8						; size = 4
_gzclose_r@4 PROC					; COMDAT

; 569  : {

  00000	55		 push	 ebp
  00001	8b ec		 mov	 ebp, esp
  00003	53		 push	 ebx

; 570  :     int ret, err;
; 571  :     gz_statep state;
; 572  : 
; 573  :     /* get internal structure */
; 574  :     if (file == NULL)

  00004	8b 5d 08	 mov	 ebx, DWORD PTR _file$[ebp]
  00007	85 db		 test	 ebx, ebx
  00009	75 0a		 jne	 SHORT $LN2@gzclose_r
$LN6@gzclose_r:

; 575  :         return Z_STREAM_ERROR;

  0000b	b8 fe ff ff ff	 mov	 eax, -2			; fffffffeH
  00010	5b		 pop	 ebx

; 594  : }

  00011	5d		 pop	 ebp
  00012	c2 04 00	 ret	 4
$LN2@gzclose_r:

; 576  :     state = (gz_statep)file;
; 577  : 
; 578  :     /* check that we're reading */
; 579  :     if (state->mode != GZ_READ)

  00015	81 7b 10 4f 1c
	00 00		 cmp	 DWORD PTR [ebx+16], 7247 ; 00001c4fH
  0001c	75 ed		 jne	 SHORT $LN6@gzclose_r

; 580  :         return Z_STREAM_ERROR;
; 581  : 
; 582  :     /* free memory and close file */
; 583  :     if (state->size) {

  0001e	83 7b 1c 00	 cmp	 DWORD PTR [ebx+28], 0
  00022	56		 push	 esi
  00023	8b 35 00 00 00
	00		 mov	 esi, DWORD PTR __imp__free
  00029	57		 push	 edi
  0002a	74 16		 je	 SHORT $LN4@gzclose_r

; 584  :         inflateEnd(&(state->strm));

  0002c	8d 43 64	 lea	 eax, DWORD PTR [ebx+100]
  0002f	50		 push	 eax
  00030	e8 00 00 00 00	 call	 _inflateEnd@4

; 585  :         free(state->out);

  00035	ff 73 28	 push	 DWORD PTR [ebx+40]
  00038	ff d6		 call	 esi

; 586  :         free(state->in);

  0003a	ff 73 24	 push	 DWORD PTR [ebx+36]
  0003d	ff d6		 call	 esi
  0003f	83 c4 08	 add	 esp, 8
$LN4@gzclose_r:

; 587  :     }
; 588  :     err = state->err == Z_BUF_ERROR ? Z_BUF_ERROR : Z_OK;

  00042	b8 fb ff ff ff	 mov	 eax, -5			; fffffffbH
  00047	33 ff		 xor	 edi, edi
  00049	39 43 5c	 cmp	 DWORD PTR [ebx+92], eax

; 589  :     gz_error(state, Z_OK, NULL);

  0004c	8b cb		 mov	 ecx, ebx
  0004e	6a 00		 push	 0
  00050	0f 44 f8	 cmove	 edi, eax
  00053	33 d2		 xor	 edx, edx
  00055	e8 00 00 00 00	 call	 _gz_error

; 590  :     free(state->path);

  0005a	ff 73 18	 push	 DWORD PTR [ebx+24]
  0005d	ff d6		 call	 esi

; 591  :     ret = close(state->fd);

  0005f	ff 73 14	 push	 DWORD PTR [ebx+20]
  00062	ff 15 00 00 00
	00		 call	 DWORD PTR __imp___close

; 592  :     free(state);

  00068	53		 push	 ebx
  00069	8b f0		 mov	 esi, eax
  0006b	ff 15 00 00 00
	00		 call	 DWORD PTR __imp__free
  00071	83 c4 10	 add	 esp, 16			; 00000010H

; 593  :     return ret ? Z_ERRNO : err;

  00074	83 c8 ff	 or	 eax, -1
  00077	85 f6		 test	 esi, esi
  00079	0f 45 f8	 cmovne	 edi, eax
  0007c	8b c7		 mov	 eax, edi
  0007e	5f		 pop	 edi
  0007f	5e		 pop	 esi
  00080	5b		 pop	 ebx

; 594  : }

  00081	5d		 pop	 ebp
  00082	c2 04 00	 ret	 4
_gzclose_r@4 ENDP
_TEXT	ENDS
; Function compile flags: /Ogtp
; File d:\downloads\tgl-master\tgl-master\zlib\gzread.c
;	COMDAT _gz_load
_TEXT	SEGMENT
_buf$1$ = -4						; size = 4
_len$ = 8						; size = 4
_have$ = 12						; size = 4
_gz_load PROC						; COMDAT
; _state$ = ecx
; _buf$ = edx

; 25   : {

  00000	55		 push	 ebp
  00001	8b ec		 mov	 ebp, esp
  00003	51		 push	 ecx
  00004	53		 push	 ebx
  00005	56		 push	 esi

; 26   :     int ret;
; 27   : 
; 28   :     *have = 0;

  00006	8b 75 0c	 mov	 esi, DWORD PTR _have$[ebp]
  00009	8b d9		 mov	 ebx, ecx
  0000b	57		 push	 edi
  0000c	8b 7d 08	 mov	 edi, DWORD PTR _len$[ebp]
  0000f	89 55 fc	 mov	 DWORD PTR _buf$1$[ebp], edx
  00012	c7 06 00 00 00
	00		 mov	 DWORD PTR [esi], 0
$LL4@gz_load:

; 29   :     do {
; 30   :         ret = read(state->fd, buf + *have, len - *have);

  00018	8b 0e		 mov	 ecx, DWORD PTR [esi]
  0001a	8b c7		 mov	 eax, edi
  0001c	2b c1		 sub	 eax, ecx
  0001e	50		 push	 eax
  0001f	8d 04 11	 lea	 eax, DWORD PTR [ecx+edx]
  00022	50		 push	 eax
  00023	ff 73 14	 push	 DWORD PTR [ebx+20]
  00026	ff 15 00 00 00
	00		 call	 DWORD PTR __imp___read
  0002c	83 c4 0c	 add	 esp, 12			; 0000000cH

; 31   :         if (ret <= 0)

  0002f	85 c0		 test	 eax, eax
  00031	7e 0b		 jle	 SHORT $LN13@gz_load

; 32   :             break;
; 33   :         *have += ret;

  00033	01 06		 add	 DWORD PTR [esi], eax

; 34   :     } while (*have < len);

  00035	8b 55 fc	 mov	 edx, DWORD PTR _buf$1$[ebp]
  00038	39 3e		 cmp	 DWORD PTR [esi], edi
  0003a	72 dc		 jb	 SHORT $LL4@gz_load

; 35   :     if (ret < 0) {

  0003c	85 c0		 test	 eax, eax
$LN13@gz_load:
  0003e	79 26		 jns	 SHORT $LN6@gz_load

; 36   :         gz_error(state, Z_ERRNO, zstrerror());

  00040	ff 15 00 00 00
	00		 call	 DWORD PTR __imp___errno
  00046	ff 30		 push	 DWORD PTR [eax]
  00048	ff 15 00 00 00
	00		 call	 DWORD PTR __imp__strerror
  0004e	50		 push	 eax
  0004f	83 ca ff	 or	 edx, -1
  00052	8b cb		 mov	 ecx, ebx
  00054	e8 00 00 00 00	 call	 _gz_error
  00059	83 c4 08	 add	 esp, 8

; 37   :         return -1;

  0005c	83 c8 ff	 or	 eax, -1
  0005f	5f		 pop	 edi
  00060	5e		 pop	 esi
  00061	5b		 pop	 ebx

; 42   : }

  00062	8b e5		 mov	 esp, ebp
  00064	5d		 pop	 ebp
  00065	c3		 ret	 0
$LN6@gz_load:

; 38   :     }
; 39   :     if (ret == 0)

  00066	85 c0		 test	 eax, eax
  00068	75 07		 jne	 SHORT $LN7@gz_load

; 40   :         state->eof = 1;

  0006a	c7 43 40 01 00
	00 00		 mov	 DWORD PTR [ebx+64], 1
$LN7@gz_load:
  00071	5f		 pop	 edi
  00072	5e		 pop	 esi

; 41   :     return 0;

  00073	33 c0		 xor	 eax, eax
  00075	5b		 pop	 ebx

; 42   : }

  00076	8b e5		 mov	 esp, ebp
  00078	5d		 pop	 ebp
  00079	c3		 ret	 0
_gz_load ENDP
_TEXT	ENDS
; Function compile flags: /Ogtp
; File d:\downloads\tgl-master\tgl-master\zlib\gzread.c
;	COMDAT _gz_avail
_TEXT	SEGMENT
_got$ = -4						; size = 4
_gz_avail PROC						; COMDAT
; _state$ = ecx

; 53   : {

  00000	55		 push	 ebp
  00001	8b ec		 mov	 ebp, esp
  00003	51		 push	 ecx
  00004	56		 push	 esi
  00005	8b f1		 mov	 esi, ecx

; 54   :     unsigned got;
; 55   :     z_streamp strm = &(state->strm);
; 56   : 
; 57   :     if (state->err != Z_OK && state->err != Z_BUF_ERROR)

  00007	8b 46 5c	 mov	 eax, DWORD PTR [esi+92]
  0000a	85 c0		 test	 eax, eax
  0000c	74 0d		 je	 SHORT $LN5@gz_avail
  0000e	83 f8 fb	 cmp	 eax, -5			; fffffffbH
  00011	74 08		 je	 SHORT $LN5@gz_avail
$LN13@gz_avail:

; 58   :         return -1;

  00013	83 c8 ff	 or	 eax, -1
  00016	5e		 pop	 esi

; 75   : }

  00017	8b e5		 mov	 esp, ebp
  00019	5d		 pop	 ebp
  0001a	c3		 ret	 0
$LN5@gz_avail:

; 59   :     if (state->eof == 0) {

  0001b	83 7e 40 00	 cmp	 DWORD PTR [esi+64], 0
  0001f	75 4c		 jne	 SHORT $LN6@gz_avail

; 60   :         if (strm->avail_in) {       /* copy what's there to the start */

  00021	57		 push	 edi
  00022	8b 7e 68	 mov	 edi, DWORD PTR [esi+104]
  00025	85 ff		 test	 edi, edi
  00027	74 17		 je	 SHORT $LN3@gz_avail

; 61   :             unsigned char *p = state->in;

  00029	8b 4e 24	 mov	 ecx, DWORD PTR [esi+36]

; 62   :             unsigned const char *q = strm->next_in;

  0002c	8b 56 64	 mov	 edx, DWORD PTR [esi+100]
  0002f	90		 npad	 1
$LL4@gz_avail:

; 63   :             unsigned n = strm->avail_in;
; 64   :             do {
; 65   :                 *p++ = *q++;

  00030	8a 02		 mov	 al, BYTE PTR [edx]
  00032	8d 49 01	 lea	 ecx, DWORD PTR [ecx+1]
  00035	88 41 ff	 mov	 BYTE PTR [ecx-1], al
  00038	8d 52 01	 lea	 edx, DWORD PTR [edx+1]

; 66   :             } while (--n);

  0003b	83 ef 01	 sub	 edi, 1
  0003e	75 f0		 jne	 SHORT $LL4@gz_avail
$LN3@gz_avail:

; 67   :         }
; 68   :         if (gz_load(state, state->in + strm->avail_in,
; 69   :                     state->size - strm->avail_in, &got) == -1)

  00040	8b 56 24	 mov	 edx, DWORD PTR [esi+36]
  00043	8d 45 fc	 lea	 eax, DWORD PTR _got$[ebp]
  00046	03 56 68	 add	 edx, DWORD PTR [esi+104]
  00049	8b ce		 mov	 ecx, esi
  0004b	50		 push	 eax
  0004c	8b 46 1c	 mov	 eax, DWORD PTR [esi+28]
  0004f	2b 46 68	 sub	 eax, DWORD PTR [esi+104]
  00052	50		 push	 eax
  00053	e8 00 00 00 00	 call	 _gz_load
  00058	83 c4 08	 add	 esp, 8
  0005b	5f		 pop	 edi
  0005c	83 f8 ff	 cmp	 eax, -1
  0005f	74 b2		 je	 SHORT $LN13@gz_avail

; 70   :             return -1;
; 71   :         strm->avail_in += got;

  00061	8b 45 fc	 mov	 eax, DWORD PTR _got$[ebp]
  00064	01 46 68	 add	 DWORD PTR [esi+104], eax

; 72   :         strm->next_in = state->in;

  00067	8b 46 24	 mov	 eax, DWORD PTR [esi+36]
  0006a	89 46 64	 mov	 DWORD PTR [esi+100], eax
$LN6@gz_avail:

; 73   :     }
; 74   :     return 0;

  0006d	33 c0		 xor	 eax, eax
  0006f	5e		 pop	 esi

; 75   : }

  00070	8b e5		 mov	 esp, ebp
  00072	5d		 pop	 ebp
  00073	c3		 ret	 0
_gz_avail ENDP
_TEXT	ENDS
; Function compile flags: /Ogtp
; File d:\downloads\tgl-master\tgl-master\zlib\gzread.c
;	COMDAT _gz_look
_TEXT	SEGMENT
_gz_look PROC						; COMDAT
; _state$ = ecx

; 88   : {

  00000	53		 push	 ebx
  00001	56		 push	 esi
  00002	57		 push	 edi
  00003	8b f9		 mov	 edi, ecx

; 89   :     z_streamp strm = &(state->strm);
; 90   : 
; 91   :     /* allocate read buffers and inflate memory */
; 92   :     if (state->size == 0) {

  00005	83 7f 1c 00	 cmp	 DWORD PTR [edi+28], 0
  00009	8d 5f 64	 lea	 ebx, DWORD PTR [edi+100]
  0000c	0f 85 ce 00 00
	00		 jne	 $LN7@gz_look

; 93   :         /* allocate buffers */
; 94   :         state->in = (unsigned char *)malloc(state->want);

  00012	ff 77 20	 push	 DWORD PTR [edi+32]
  00015	8b 35 00 00 00
	00		 mov	 esi, DWORD PTR __imp__malloc
  0001b	ff d6		 call	 esi
  0001d	89 47 24	 mov	 DWORD PTR [edi+36], eax

; 95   :         state->out = (unsigned char *)malloc(state->want << 1);

  00020	8b 47 20	 mov	 eax, DWORD PTR [edi+32]
  00023	03 c0		 add	 eax, eax
  00025	50		 push	 eax
  00026	ff d6		 call	 esi

; 96   :         if (state->in == NULL || state->out == NULL) {

  00028	8b 35 00 00 00
	00		 mov	 esi, DWORD PTR __imp__free
  0002e	83 c4 08	 add	 esp, 8
  00031	83 7f 24 00	 cmp	 DWORD PTR [edi+36], 0
  00035	89 47 28	 mov	 DWORD PTR [edi+40], eax
  00038	74 74		 je	 SHORT $LN4@gz_look
  0003a	85 c0		 test	 eax, eax
  0003c	74 7a		 je	 SHORT $LN5@gz_look

; 103  :         }
; 104  :         state->size = state->want;

  0003e	8b 47 20	 mov	 eax, DWORD PTR [edi+32]

; 105  : 
; 106  :         /* allocate inflate memory */
; 107  :         state->strm.zalloc = Z_NULL;
; 108  :         state->strm.zfree = Z_NULL;
; 109  :         state->strm.opaque = Z_NULL;
; 110  :         state->strm.avail_in = 0;
; 111  :         state->strm.next_in = Z_NULL;
; 112  :         if (inflateInit2(&(state->strm), 15 + 16) != Z_OK) {    /* gunzip */

  00041	6a 38		 push	 56			; 00000038H
  00043	68 00 00 00 00	 push	 OFFSET ??_C@_05IAIEPMAK@1?42?48?$AA@
  00048	6a 1f		 push	 31			; 0000001fH
  0004a	53		 push	 ebx
  0004b	89 47 1c	 mov	 DWORD PTR [edi+28], eax
  0004e	c7 87 84 00 00
	00 00 00 00 00	 mov	 DWORD PTR [edi+132], 0
  00058	c7 87 88 00 00
	00 00 00 00 00	 mov	 DWORD PTR [edi+136], 0
  00062	c7 87 8c 00 00
	00 00 00 00 00	 mov	 DWORD PTR [edi+140], 0
  0006c	c7 47 68 00 00
	00 00		 mov	 DWORD PTR [edi+104], 0
  00073	c7 03 00 00 00
	00		 mov	 DWORD PTR [ebx], 0
  00079	e8 00 00 00 00	 call	 _inflateInit2_@16
  0007e	85 c0		 test	 eax, eax
  00080	74 5e		 je	 SHORT $LN7@gz_look

; 113  :             free(state->out);

  00082	ff 77 28	 push	 DWORD PTR [edi+40]
  00085	ff d6		 call	 esi

; 114  :             free(state->in);

  00087	ff 77 24	 push	 DWORD PTR [edi+36]
  0008a	ff d6		 call	 esi

; 115  :             state->size = 0;
; 116  :             gz_error(state, Z_MEM_ERROR, "out of memory");

  0008c	68 00 00 00 00	 push	 OFFSET ??_C@_0O@BNNCBLEN@out?5of?5memory?$AA@
  00091	ba fc ff ff ff	 mov	 edx, -4			; fffffffcH
  00096	c7 47 1c 00 00
	00 00		 mov	 DWORD PTR [edi+28], 0
  0009d	8b cf		 mov	 ecx, edi
  0009f	e8 00 00 00 00	 call	 _gz_error
  000a4	83 c4 0c	 add	 esp, 12			; 0000000cH

; 117  :             return -1;

  000a7	83 c8 ff	 or	 eax, -1
  000aa	5f		 pop	 edi
  000ab	5e		 pop	 esi
  000ac	5b		 pop	 ebx

; 165  : }

  000ad	c3		 ret	 0
$LN4@gz_look:

; 97   :             if (state->out != NULL)

  000ae	85 c0		 test	 eax, eax
  000b0	74 06		 je	 SHORT $LN5@gz_look

; 98   :                 free(state->out);

  000b2	50		 push	 eax
  000b3	ff d6		 call	 esi
  000b5	83 c4 04	 add	 esp, 4
$LN5@gz_look:

; 99   :             if (state->in != NULL)

  000b8	8b 47 24	 mov	 eax, DWORD PTR [edi+36]
  000bb	85 c0		 test	 eax, eax
  000bd	74 06		 je	 SHORT $LN6@gz_look

; 100  :                 free(state->in);

  000bf	50		 push	 eax
  000c0	ff d6		 call	 esi
  000c2	83 c4 04	 add	 esp, 4
$LN6@gz_look:

; 101  :             gz_error(state, Z_MEM_ERROR, "out of memory");

  000c5	68 00 00 00 00	 push	 OFFSET ??_C@_0O@BNNCBLEN@out?5of?5memory?$AA@
  000ca	ba fc ff ff ff	 mov	 edx, -4			; fffffffcH
  000cf	8b cf		 mov	 ecx, edi
  000d1	e8 00 00 00 00	 call	 _gz_error
  000d6	83 c4 04	 add	 esp, 4
$LN16@gz_look:

; 102  :             return -1;

  000d9	5f		 pop	 edi
  000da	5e		 pop	 esi
  000db	83 c8 ff	 or	 eax, -1
  000de	5b		 pop	 ebx

; 165  : }

  000df	c3		 ret	 0
$LN7@gz_look:

; 118  :         }
; 119  :     }
; 120  : 
; 121  :     /* get at least the magic bytes in the input buffer */
; 122  :     if (strm->avail_in < 2) {

  000e0	8b 43 04	 mov	 eax, DWORD PTR [ebx+4]
  000e3	83 f8 02	 cmp	 eax, 2
  000e6	73 13		 jae	 SHORT $LN10@gz_look

; 123  :         if (gz_avail(state) == -1)

  000e8	8b cf		 mov	 ecx, edi
  000ea	e8 00 00 00 00	 call	 _gz_avail
  000ef	83 f8 ff	 cmp	 eax, -1
  000f2	74 e5		 je	 SHORT $LN16@gz_look

; 124  :             return -1;
; 125  :         if (strm->avail_in == 0)

  000f4	8b 43 04	 mov	 eax, DWORD PTR [ebx+4]
  000f7	85 c0		 test	 eax, eax
  000f9	74 7f		 je	 SHORT $LN15@gz_look
$LN10@gz_look:

; 126  :             return 0;
; 127  :     }
; 128  : 
; 129  :     /* look for gzip magic bytes -- if there, do gzip decoding (note: there is
; 130  :        a logical dilemma here when considering the case of a partially written
; 131  :        gzip file, to wit, if a single 31 byte is written, then we cannot tell
; 132  :        whether this is a single-byte file, or just a partially written gzip
; 133  :        file -- for here we assume that if a gzip file is being written, then
; 134  :        the header will be written in a single operation, so that reading a
; 135  :        single byte is sufficient indication that it is not a gzip file) */
; 136  :     if (strm->avail_in > 1 &&
; 137  :             strm->next_in[0] == 31 && strm->next_in[1] == 139) {

  000fb	83 f8 01	 cmp	 eax, 1
  000fe	76 27		 jbe	 SHORT $LN11@gz_look
  00100	8b 03		 mov	 eax, DWORD PTR [ebx]
  00102	80 38 1f	 cmp	 BYTE PTR [eax], 31	; 0000001fH
  00105	75 20		 jne	 SHORT $LN11@gz_look
  00107	80 78 01 8b	 cmp	 BYTE PTR [eax+1], 139	; 0000008bH
  0010b	75 1a		 jne	 SHORT $LN11@gz_look

; 138  :         inflateReset(strm);

  0010d	53		 push	 ebx
  0010e	e8 00 00 00 00	 call	 _inflateReset@4

; 139  :         state->how = GZIP;

  00113	c7 47 30 02 00
	00 00		 mov	 DWORD PTR [edi+48], 2

; 164  :     return 0;

  0011a	33 c0		 xor	 eax, eax
  0011c	c7 47 2c 00 00
	00 00		 mov	 DWORD PTR [edi+44], 0
  00123	5f		 pop	 edi
  00124	5e		 pop	 esi
  00125	5b		 pop	 ebx

; 165  : }

  00126	c3		 ret	 0
$LN11@gz_look:

; 140  :         state->direct = 0;
; 141  :         return 0;
; 142  :     }
; 143  : 
; 144  :     /* no gzip header -- if we were decoding gzip before, then this is trailing
; 145  :        garbage.  Ignore the trailing garbage and finish. */
; 146  :     if (state->direct == 0) {

  00127	83 7f 2c 00	 cmp	 DWORD PTR [edi+44], 0
  0012b	75 1a		 jne	 SHORT $LN12@gz_look

; 147  :         strm->avail_in = 0;

  0012d	c7 43 04 00 00
	00 00		 mov	 DWORD PTR [ebx+4], 0

; 164  :     return 0;

  00134	33 c0		 xor	 eax, eax
  00136	c7 47 40 01 00
	00 00		 mov	 DWORD PTR [edi+64], 1
  0013d	c7 07 00 00 00
	00		 mov	 DWORD PTR [edi], 0
  00143	5f		 pop	 edi
  00144	5e		 pop	 esi
  00145	5b		 pop	 ebx

; 165  : }

  00146	c3		 ret	 0
$LN12@gz_look:

; 148  :         state->eof = 1;
; 149  :         state->x.have = 0;
; 150  :         return 0;
; 151  :     }
; 152  : 
; 153  :     /* doing raw i/o, copy any leftover input to output -- this assumes that
; 154  :        the output buffer is larger than the input buffer, which also assures
; 155  :        space for gzungetc() */
; 156  :     state->x.next = state->out;

  00147	8b 47 28	 mov	 eax, DWORD PTR [edi+40]
  0014a	89 47 04	 mov	 DWORD PTR [edi+4], eax

; 157  :     if (strm->avail_in) {

  0014d	8b 4b 04	 mov	 ecx, DWORD PTR [ebx+4]
  00150	85 c9		 test	 ecx, ecx
  00152	74 18		 je	 SHORT $LN13@gz_look

; 158  :         memcpy(state->x.next, strm->next_in, strm->avail_in);

  00154	51		 push	 ecx
  00155	ff 33		 push	 DWORD PTR [ebx]
  00157	50		 push	 eax
  00158	e8 00 00 00 00	 call	 _memcpy

; 159  :         state->x.have = strm->avail_in;

  0015d	8b 43 04	 mov	 eax, DWORD PTR [ebx+4]
  00160	83 c4 0c	 add	 esp, 12			; 0000000cH
  00163	89 07		 mov	 DWORD PTR [edi], eax

; 160  :         strm->avail_in = 0;

  00165	c7 43 04 00 00
	00 00		 mov	 DWORD PTR [ebx+4], 0
$LN13@gz_look:

; 161  :     }
; 162  :     state->how = COPY;

  0016c	c7 47 30 01 00
	00 00		 mov	 DWORD PTR [edi+48], 1

; 163  :     state->direct = 1;

  00173	c7 47 2c 01 00
	00 00		 mov	 DWORD PTR [edi+44], 1
$LN15@gz_look:

; 164  :     return 0;

  0017a	5f		 pop	 edi
  0017b	5e		 pop	 esi
  0017c	33 c0		 xor	 eax, eax
  0017e	5b		 pop	 ebx

; 165  : }

  0017f	c3		 ret	 0
_gz_look ENDP
_TEXT	ENDS
; Function compile flags: /Ogtp
; File d:\downloads\tgl-master\tgl-master\zlib\gzread.c
;	COMDAT _gz_decomp
_TEXT	SEGMENT
_had$1$ = -4						; size = 4
_gz_decomp PROC						; COMDAT
; _state$ = ecx

; 174  : {

  00000	55		 push	 ebp
  00001	8b ec		 mov	 ebp, esp
  00003	51		 push	 ecx
  00004	53		 push	 ebx
  00005	8b d9		 mov	 ebx, ecx

; 175  :     int ret = Z_OK;
; 176  :     unsigned had;
; 177  :     z_streamp strm = &(state->strm);
; 178  : 
; 179  :     /* fill output buffer up to end of deflate stream */
; 180  :     had = strm->avail_out;

  00007	8b 43 74	 mov	 eax, DWORD PTR [ebx+116]
  0000a	56		 push	 esi
  0000b	57		 push	 edi
  0000c	8d 7b 64	 lea	 edi, DWORD PTR [ebx+100]
  0000f	89 45 fc	 mov	 DWORD PTR _had$1$[ebp], eax
  00012	33 f6		 xor	 esi, esi
$LL4@gz_decomp:

; 181  :     do {
; 182  :         /* get more input for inflate() */
; 183  :         if (strm->avail_in == 0 && gz_avail(state) == -1)

  00014	83 7f 04 00	 cmp	 DWORD PTR [edi+4], 0
  00018	75 16		 jne	 SHORT $LN24@gz_decomp
  0001a	8b cb		 mov	 ecx, ebx
  0001c	e8 00 00 00 00	 call	 _gz_avail
  00021	83 f8 ff	 cmp	 eax, -1
  00024	0f 84 cb 00 00
	00		 je	 $LN17@gz_decomp

; 184  :             return -1;
; 185  :         if (strm->avail_in == 0) {

  0002a	83 7f 04 00	 cmp	 DWORD PTR [edi+4], 0
  0002e	74 33		 je	 SHORT $LN18@gz_decomp
$LN24@gz_decomp:

; 187  :             break;
; 188  :         }
; 189  : 
; 190  :         /* decompress and handle errors */
; 191  :         ret = inflate(strm, Z_NO_FLUSH);

  00030	6a 00		 push	 0
  00032	57		 push	 edi
  00033	e8 00 00 00 00	 call	 _inflate@8
  00038	8b f0		 mov	 esi, eax

; 192  :         if (ret == Z_STREAM_ERROR || ret == Z_NEED_DICT) {

  0003a	83 fe fe	 cmp	 esi, -2			; fffffffeH
  0003d	0f 84 9e 00 00
	00		 je	 $LN8@gz_decomp
  00043	83 fe 02	 cmp	 esi, 2
  00046	0f 84 95 00 00
	00		 je	 $LN8@gz_decomp

; 196  :         }
; 197  :         if (ret == Z_MEM_ERROR) {

  0004c	83 fe fc	 cmp	 esi, -4			; fffffffcH
  0004f	74 72		 je	 SHORT $LN20@gz_decomp

; 199  :             return -1;
; 200  :         }
; 201  :         if (ret == Z_DATA_ERROR) {              /* deflate stream invalid */

  00051	83 fe fd	 cmp	 esi, -3			; fffffffdH
  00054	74 46		 je	 SHORT $LN21@gz_decomp

; 203  :                      strm->msg == NULL ? "compressed data error" : strm->msg);
; 204  :             return -1;
; 205  :         }
; 206  :     } while (strm->avail_out && ret != Z_STREAM_END);

  00056	83 7f 10 00	 cmp	 DWORD PTR [edi+16], 0
  0005a	74 1b		 je	 SHORT $LN3@gz_decomp
  0005c	83 fe 01	 cmp	 esi, 1
  0005f	75 b3		 jne	 SHORT $LL4@gz_decomp
  00061	eb 14		 jmp	 SHORT $LN3@gz_decomp
$LN18@gz_decomp:

; 186  :             gz_error(state, Z_BUF_ERROR, "unexpected end of file");

  00063	68 00 00 00 00	 push	 OFFSET ??_C@_0BH@CFIIDOJD@unexpected?5end?5of?5file?$AA@
  00068	ba fb ff ff ff	 mov	 edx, -5			; fffffffbH
  0006d	8b cb		 mov	 ecx, ebx
  0006f	e8 00 00 00 00	 call	 _gz_error
  00074	83 c4 04	 add	 esp, 4
$LN3@gz_decomp:

; 207  : 
; 208  :     /* update available output */
; 209  :     state->x.have = had - strm->avail_out;

  00077	8b 4d fc	 mov	 ecx, DWORD PTR _had$1$[ebp]
  0007a	2b 4f 10	 sub	 ecx, DWORD PTR [edi+16]
  0007d	89 0b		 mov	 DWORD PTR [ebx], ecx

; 210  :     state->x.next = strm->next_out - state->x.have;

  0007f	8b 47 0c	 mov	 eax, DWORD PTR [edi+12]
  00082	2b c1		 sub	 eax, ecx
  00084	89 43 04	 mov	 DWORD PTR [ebx+4], eax

; 211  : 
; 212  :     /* if the gzip stream completed successfully, look for another */
; 213  :     if (ret == Z_STREAM_END)

  00087	83 fe 01	 cmp	 esi, 1
  0008a	75 07		 jne	 SHORT $LN12@gz_decomp

; 214  :         state->how = LOOK;

  0008c	c7 43 30 00 00
	00 00		 mov	 DWORD PTR [ebx+48], 0
$LN12@gz_decomp:
  00093	5f		 pop	 edi
  00094	5e		 pop	 esi

; 215  : 
; 216  :     /* good decompression */
; 217  :     return 0;

  00095	33 c0		 xor	 eax, eax
  00097	5b		 pop	 ebx

; 218  : }

  00098	8b e5		 mov	 esp, ebp
  0009a	5d		 pop	 ebp
  0009b	c3		 ret	 0
$LN21@gz_decomp:

; 202  :             gz_error(state, Z_DATA_ERROR,

  0009c	8b 47 18	 mov	 eax, DWORD PTR [edi+24]
  0009f	b9 00 00 00 00	 mov	 ecx, OFFSET ??_C@_0BG@HCKBMIHF@compressed?5data?5error?$AA@
  000a4	85 c0		 test	 eax, eax
  000a6	ba fd ff ff ff	 mov	 edx, -3			; fffffffdH
  000ab	0f 45 c8	 cmovne	 ecx, eax
  000ae	51		 push	 ecx
  000af	8b cb		 mov	 ecx, ebx
  000b1	e8 00 00 00 00	 call	 _gz_error
  000b6	83 c4 04	 add	 esp, 4
  000b9	83 c8 ff	 or	 eax, -1
  000bc	5f		 pop	 edi
  000bd	5e		 pop	 esi
  000be	5b		 pop	 ebx

; 218  : }

  000bf	8b e5		 mov	 esp, ebp
  000c1	5d		 pop	 ebp
  000c2	c3		 ret	 0
$LN20@gz_decomp:

; 198  :             gz_error(state, Z_MEM_ERROR, "out of memory");

  000c3	68 00 00 00 00	 push	 OFFSET ??_C@_0O@BNNCBLEN@out?5of?5memory?$AA@
  000c8	ba fc ff ff ff	 mov	 edx, -4			; fffffffcH
  000cd	8b cb		 mov	 ecx, ebx
  000cf	e8 00 00 00 00	 call	 _gz_error
  000d4	83 c4 04	 add	 esp, 4
  000d7	83 c8 ff	 or	 eax, -1
  000da	5f		 pop	 edi
  000db	5e		 pop	 esi
  000dc	5b		 pop	 ebx

; 218  : }

  000dd	8b e5		 mov	 esp, ebp
  000df	5d		 pop	 ebp
  000e0	c3		 ret	 0
$LN8@gz_decomp:

; 193  :             gz_error(state, Z_STREAM_ERROR,

  000e1	68 00 00 00 00	 push	 OFFSET ??_C@_0CH@CPOLIEKA@internal?5error?3?5inflate?5stream?5c@
  000e6	ba fe ff ff ff	 mov	 edx, -2			; fffffffeH
  000eb	8b cb		 mov	 ecx, ebx
  000ed	e8 00 00 00 00	 call	 _gz_error
  000f2	83 c4 04	 add	 esp, 4
$LN17@gz_decomp:

; 194  :                      "internal error: inflate stream corrupt");
; 195  :             return -1;

  000f5	5f		 pop	 edi
  000f6	5e		 pop	 esi
  000f7	83 c8 ff	 or	 eax, -1
  000fa	5b		 pop	 ebx

; 218  : }

  000fb	8b e5		 mov	 esp, ebp
  000fd	5d		 pop	 ebp
  000fe	c3		 ret	 0
_gz_decomp ENDP
_TEXT	ENDS
; Function compile flags: /Ogtp
; File d:\downloads\tgl-master\tgl-master\zlib\gzread.c
;	COMDAT _gz_fetch
_TEXT	SEGMENT
_gz_fetch PROC						; COMDAT
; _state$ = ecx

; 228  : {

  00000	56		 push	 esi
  00001	8b f1		 mov	 esi, ecx
$LL4@gz_fetch:

; 229  :     z_streamp strm = &(state->strm);
; 230  : 
; 231  :     do {
; 232  :         switch(state->how) {

  00003	8b 46 30	 mov	 eax, DWORD PTR [esi+48]
  00006	83 e8 00	 sub	 eax, 0
  00009	74 29		 je	 SHORT $LN7@gz_fetch
  0000b	83 e8 01	 sub	 eax, 1
  0000e	74 4b		 je	 SHORT $LN10@gz_fetch
  00010	83 e8 01	 sub	 eax, 1
  00013	75 31		 jne	 SHORT $LN2@gz_fetch

; 245  :         case GZIP:      /* -> GZIP or LOOK (if end of gzip stream) */
; 246  :             strm->avail_out = state->size << 1;

  00015	8b 46 1c	 mov	 eax, DWORD PTR [esi+28]

; 247  :             strm->next_out = state->out;
; 248  :             if (gz_decomp(state) == -1)

  00018	8b ce		 mov	 ecx, esi
  0001a	03 c0		 add	 eax, eax
  0001c	89 46 74	 mov	 DWORD PTR [esi+116], eax
  0001f	8b 46 28	 mov	 eax, DWORD PTR [esi+40]
  00022	89 46 70	 mov	 DWORD PTR [esi+112], eax
  00025	e8 00 00 00 00	 call	 _gz_decomp
  0002a	83 f8 ff	 cmp	 eax, -1
  0002d	75 17		 jne	 SHORT $LN2@gz_fetch
$LN19@gz_fetch:

; 235  :                 return -1;

  0002f	83 c8 ff	 or	 eax, -1
  00032	5e		 pop	 esi

; 252  :     return 0;
; 253  : }

  00033	c3		 ret	 0
$LN7@gz_fetch:

; 233  :         case LOOK:      /* -> LOOK, COPY (only if never GZIP), or GZIP */
; 234  :             if (gz_look(state) == -1)

  00034	8b ce		 mov	 ecx, esi
  00036	e8 00 00 00 00	 call	 _gz_look
  0003b	83 f8 ff	 cmp	 eax, -1
  0003e	74 ef		 je	 SHORT $LN19@gz_fetch

; 236  :             if (state->how == LOOK)

  00040	83 7e 30 00	 cmp	 DWORD PTR [esi+48], 0
  00044	74 34		 je	 SHORT $LN20@gz_fetch
$LN2@gz_fetch:

; 249  :                 return -1;
; 250  :         }
; 251  :     } while (state->x.have == 0 && (!state->eof || strm->avail_in));

  00046	83 3e 00	 cmp	 DWORD PTR [esi], 0
  00049	75 2f		 jne	 SHORT $LN20@gz_fetch
  0004b	83 7e 40 00	 cmp	 DWORD PTR [esi+64], 0
  0004f	74 b2		 je	 SHORT $LL4@gz_fetch
  00051	83 7e 68 00	 cmp	 DWORD PTR [esi+104], 0
  00055	75 ac		 jne	 SHORT $LL4@gz_fetch

; 244  :             return 0;

  00057	33 c0		 xor	 eax, eax
  00059	5e		 pop	 esi

; 252  :     return 0;
; 253  : }

  0005a	c3		 ret	 0
$LN10@gz_fetch:

; 237  :                 return 0;
; 238  :             break;
; 239  :         case COPY:      /* -> COPY */
; 240  :             if (gz_load(state, state->out, state->size << 1, &(state->x.have))
; 241  :                     == -1)

  0005b	8b 46 1c	 mov	 eax, DWORD PTR [esi+28]
  0005e	8b ce		 mov	 ecx, esi
  00060	8b 56 28	 mov	 edx, DWORD PTR [esi+40]
  00063	03 c0		 add	 eax, eax
  00065	56		 push	 esi
  00066	50		 push	 eax
  00067	e8 00 00 00 00	 call	 _gz_load
  0006c	83 c4 08	 add	 esp, 8
  0006f	83 f8 ff	 cmp	 eax, -1
  00072	74 bb		 je	 SHORT $LN19@gz_fetch

; 242  :                 return -1;
; 243  :             state->x.next = state->out;

  00074	8b 46 28	 mov	 eax, DWORD PTR [esi+40]
  00077	89 46 04	 mov	 DWORD PTR [esi+4], eax
$LN20@gz_fetch:

; 244  :             return 0;

  0007a	33 c0		 xor	 eax, eax
  0007c	5e		 pop	 esi

; 252  :     return 0;
; 253  : }

  0007d	c3		 ret	 0
_gz_fetch ENDP
_TEXT	ENDS
; Function compile flags: /Ogtp
; File d:\downloads\tgl-master\tgl-master\zlib\gzread.c
;	COMDAT _gz_skip
_TEXT	SEGMENT
_len$ = 8						; size = 8
_gz_skip PROC						; COMDAT
; _state$ = ecx

; 259  : {

  00000	55		 push	 ebp
  00001	8b ec		 mov	 ebp, esp
  00003	53		 push	 ebx

; 260  :     unsigned n;
; 261  : 
; 262  :     /* skip over len bytes or reach end-of-file, whichever comes first */
; 263  :     while (len)

  00004	8b 5d 0c	 mov	 ebx, DWORD PTR _len$[ebp+4]
  00007	56		 push	 esi
  00008	57		 push	 edi
  00009	8b 7d 08	 mov	 edi, DWORD PTR _len$[ebp]
  0000c	8b f1		 mov	 esi, ecx
  0000e	8b c7		 mov	 eax, edi
  00010	0b c3		 or	 eax, ebx
  00012	74 4b		 je	 SHORT $LN3@gz_skip
$LL2@gz_skip:

; 264  :         /* skip over whatever is in output buffer */
; 265  :         if (state->x.have) {

  00014	8b 06		 mov	 eax, DWORD PTR [esi]
  00016	85 c0		 test	 eax, eax
  00018	74 27		 je	 SHORT $LN4@gz_skip

; 266  :             n = GT_OFF(state->x.have) || (z_off64_t)state->x.have > len ?

  0001a	33 c9		 xor	 ecx, ecx
  0001c	3b cb		 cmp	 ecx, ebx
  0001e	7f 0a		 jg	 SHORT $LN10@gz_skip
  00020	7c 04		 jl	 SHORT $LN17@gz_skip
  00022	3b c7		 cmp	 eax, edi
  00024	77 04		 ja	 SHORT $LN10@gz_skip
$LN17@gz_skip:
  00026	8b c8		 mov	 ecx, eax
  00028	eb 02		 jmp	 SHORT $LN11@gz_skip
$LN10@gz_skip:
  0002a	8b cf		 mov	 ecx, edi
$LN11@gz_skip:

; 267  :                 (unsigned)len : state->x.have;
; 268  :             state->x.have -= n;
; 269  :             state->x.next += n;

  0002c	01 4e 04	 add	 DWORD PTR [esi+4], ecx
  0002f	2b c1		 sub	 eax, ecx

; 270  :             state->x.pos += n;

  00031	01 4e 08	 add	 DWORD PTR [esi+8], ecx
  00034	89 06		 mov	 DWORD PTR [esi], eax
  00036	83 56 0c 00	 adc	 DWORD PTR [esi+12], 0

; 271  :             len -= n;

  0003a	2b f9		 sub	 edi, ecx
  0003c	83 db 00	 sbb	 ebx, 0

; 272  :         }

  0003f	eb 18		 jmp	 SHORT $LN8@gz_skip
$LN4@gz_skip:

; 273  : 
; 274  :         /* output buffer empty -- return if we're at the end of the input */
; 275  :         else if (state->eof && state->strm.avail_in == 0)

  00041	83 7e 40 00	 cmp	 DWORD PTR [esi+64], 0
  00045	74 06		 je	 SHORT $LN6@gz_skip
  00047	83 7e 68 00	 cmp	 DWORD PTR [esi+104], 0
  0004b	74 12		 je	 SHORT $LN3@gz_skip
$LN6@gz_skip:

; 276  :             break;
; 277  : 
; 278  :         /* need more data to skip -- load up output buffer */
; 279  :         else {
; 280  :             /* get more output, looking for header if required */
; 281  :             if (gz_fetch(state) == -1)

  0004d	8b ce		 mov	 ecx, esi
  0004f	e8 00 00 00 00	 call	 _gz_fetch
  00054	83 f8 ff	 cmp	 eax, -1
  00057	74 0d		 je	 SHORT $LN14@gz_skip
$LN8@gz_skip:

; 260  :     unsigned n;
; 261  : 
; 262  :     /* skip over len bytes or reach end-of-file, whichever comes first */
; 263  :     while (len)

  00059	8b c7		 mov	 eax, edi
  0005b	0b c3		 or	 eax, ebx
  0005d	75 b5		 jne	 SHORT $LL2@gz_skip
$LN3@gz_skip:
  0005f	5f		 pop	 edi
  00060	5e		 pop	 esi

; 283  :         }
; 284  :     return 0;

  00061	33 c0		 xor	 eax, eax
  00063	5b		 pop	 ebx

; 285  : }

  00064	5d		 pop	 ebp
  00065	c3		 ret	 0
$LN14@gz_skip:
  00066	5f		 pop	 edi
  00067	5e		 pop	 esi

; 282  :                 return -1;

  00068	83 c8 ff	 or	 eax, -1
  0006b	5b		 pop	 ebx

; 285  : }

  0006c	5d		 pop	 ebp
  0006d	c3		 ret	 0
_gz_skip ENDP
_TEXT	ENDS
; Function compile flags: /Ogtp
; File d:\downloads\tgl-master\tgl-master\zlib\gzread.c
;	COMDAT _gzread@12
_TEXT	SEGMENT
_n$ = 8							; size = 4
_file$ = 8						; size = 4
_buf$ = 12						; size = 4
_got$1$ = 16						; size = 4
_len$ = 16						; size = 4
_gzread@12 PROC						; COMDAT

; 292  : {

  00000	55		 push	 ebp
  00001	8b ec		 mov	 ebp, esp
  00003	56		 push	 esi

; 293  :     unsigned got, n;
; 294  :     gz_statep state;
; 295  :     z_streamp strm;
; 296  : 
; 297  :     /* get internal structure */
; 298  :     if (file == NULL)

  00004	8b 75 08	 mov	 esi, DWORD PTR _file$[ebp]
  00007	85 f6		 test	 esi, esi
  00009	75 08		 jne	 SHORT $LN5@gzread
$LN7@gzread:

; 299  :         return -1;

  0000b	83 c8 ff	 or	 eax, -1
  0000e	5e		 pop	 esi

; 376  : 
; 377  :     /* return number of bytes read into user buffer (will fit in int) */
; 378  :     return (int)got;
; 379  : }

  0000f	5d		 pop	 ebp
  00010	c2 0c 00	 ret	 12			; 0000000cH
$LN5@gzread:

; 300  :     state = (gz_statep)file;
; 301  :     strm = &(state->strm);
; 302  : 
; 303  :     /* check that we're reading and that there's no (serious) error */
; 304  :     if (state->mode != GZ_READ ||

  00013	81 7e 10 4f 1c
	00 00		 cmp	 DWORD PTR [esi+16], 7247 ; 00001c4fH
  0001a	75 ef		 jne	 SHORT $LN7@gzread
  0001c	8b 46 5c	 mov	 eax, DWORD PTR [esi+92]
  0001f	85 c0		 test	 eax, eax
  00021	74 05		 je	 SHORT $LN6@gzread
  00023	83 f8 fb	 cmp	 eax, -5			; fffffffbH
  00026	75 e3		 jne	 SHORT $LN7@gzread
$LN6@gzread:
  00028	53		 push	 ebx

; 305  :             (state->err != Z_OK && state->err != Z_BUF_ERROR))
; 306  :         return -1;
; 307  : 
; 308  :     /* since an int is returned, make sure len fits in one, otherwise return
; 309  :        with an error (this avoids the flaw in the interface) */
; 310  :     if ((int)len < 0) {

  00029	8b 5d 10	 mov	 ebx, DWORD PTR _len$[ebp]
  0002c	85 db		 test	 ebx, ebx
  0002e	79 1d		 jns	 SHORT $LN36@gzread

; 311  :         gz_error(state, Z_DATA_ERROR, "requested length does not fit in int");

  00030	68 00 00 00 00	 push	 OFFSET ??_C@_0CF@MLPJFDMM@requested?5length?5does?5not?5fit?5in@
  00035	ba fd ff ff ff	 mov	 edx, -3			; fffffffdH
  0003a	8b ce		 mov	 ecx, esi
  0003c	e8 00 00 00 00	 call	 _gz_error
  00041	83 c4 04	 add	 esp, 4
$LN37@gzread:

; 312  :         return -1;

  00044	5b		 pop	 ebx
  00045	83 c8 ff	 or	 eax, -1
  00048	5e		 pop	 esi

; 376  : 
; 377  :     /* return number of bytes read into user buffer (will fit in int) */
; 378  :     return (int)got;
; 379  : }

  00049	5d		 pop	 ebp
  0004a	c2 0c 00	 ret	 12			; 0000000cH
$LN36@gzread:

; 313  :     }
; 314  : 
; 315  :     /* if len is zero, avoid unnecessary operations */
; 316  :     if (len == 0)

  0004d	75 08		 jne	 SHORT $LN9@gzread

; 317  :         return 0;

  0004f	5b		 pop	 ebx
  00050	33 c0		 xor	 eax, eax
  00052	5e		 pop	 esi

; 376  : 
; 377  :     /* return number of bytes read into user buffer (will fit in int) */
; 378  :     return (int)got;
; 379  : }

  00053	5d		 pop	 ebp
  00054	c2 0c 00	 ret	 12			; 0000000cH
$LN9@gzread:

; 318  : 
; 319  :     /* process a skip request */
; 320  :     if (state->seek) {

  00057	83 7e 58 00	 cmp	 DWORD PTR [esi+88], 0
  0005b	74 1c		 je	 SHORT $LN11@gzread

; 321  :         state->seek = 0;
; 322  :         if (gz_skip(state, state->skip) == -1)

  0005d	ff 76 54	 push	 DWORD PTR [esi+84]
  00060	8b ce		 mov	 ecx, esi
  00062	c7 46 58 00 00
	00 00		 mov	 DWORD PTR [esi+88], 0
  00069	ff 76 50	 push	 DWORD PTR [esi+80]
  0006c	e8 00 00 00 00	 call	 _gz_skip
  00071	83 c4 08	 add	 esp, 8
  00074	83 f8 ff	 cmp	 eax, -1
  00077	74 cb		 je	 SHORT $LN37@gzread
$LN11@gzread:

; 323  :             return -1;
; 324  :     }
; 325  : 
; 326  :     /* get len bytes to buf, or less than len if at the end */
; 327  :     got = 0;

  00079	33 c0		 xor	 eax, eax
  0007b	89 45 10	 mov	 DWORD PTR _got$1$[ebp], eax
  0007e	57		 push	 edi
  0007f	90		 npad	 1
$LL4@gzread:

; 328  :     do {
; 329  :         /* first just try copying data from the output buffer */
; 330  :         if (state->x.have) {

  00080	8b 3e		 mov	 edi, DWORD PTR [esi]
  00082	85 ff		 test	 edi, edi
  00084	74 1f		 je	 SHORT $LN12@gzread

; 331  :             n = state->x.have > len ? len : state->x.have;
; 332  :             memcpy(buf, state->x.next, n);

  00086	8b 45 0c	 mov	 eax, DWORD PTR _buf$[ebp]
  00089	3b fb		 cmp	 edi, ebx
  0008b	0f 47 fb	 cmova	 edi, ebx
  0008e	57		 push	 edi
  0008f	ff 76 04	 push	 DWORD PTR [esi+4]
  00092	89 7d 08	 mov	 DWORD PTR _n$[ebp], edi
  00095	50		 push	 eax
  00096	e8 00 00 00 00	 call	 _memcpy

; 333  :             state->x.next += n;

  0009b	01 7e 04	 add	 DWORD PTR [esi+4], edi
  0009e	83 c4 0c	 add	 esp, 12			; 0000000cH

; 334  :             state->x.have -= n;

  000a1	29 3e		 sub	 DWORD PTR [esi], edi

; 335  :         }

  000a3	eb 5f		 jmp	 SHORT $LN21@gzread
$LN12@gzread:

; 336  : 
; 337  :         /* output buffer empty -- return if we're at the end of the input */
; 338  :         else if (state->eof && strm->avail_in == 0) {

  000a5	83 7e 40 00	 cmp	 DWORD PTR [esi+64], 0
  000a9	74 0a		 je	 SHORT $LN14@gzread
  000ab	83 7e 68 00	 cmp	 DWORD PTR [esi+104], 0
  000af	0f 84 83 00 00
	00		 je	 $LN28@gzread
$LN14@gzread:

; 340  :             break;
; 341  :         }
; 342  : 
; 343  :         /* need output data -- for small len or new stream load up our output
; 344  :            buffer */
; 345  :         else if (state->how == LOOK || len < (state->size << 1)) {

  000b5	8b 4e 30	 mov	 ecx, DWORD PTR [esi+48]
  000b8	85 c9		 test	 ecx, ecx
  000ba	74 5e		 je	 SHORT $LN18@gzread
  000bc	8b 46 1c	 mov	 eax, DWORD PTR [esi+28]
  000bf	03 c0		 add	 eax, eax
  000c1	3b d8		 cmp	 ebx, eax
  000c3	72 55		 jb	 SHORT $LN18@gzread

; 349  :             continue;       /* no progress yet -- go back to copy above */
; 350  :             /* the copy above assures that we will leave with space in the
; 351  :                output buffer, allowing at least one gzungetc() to succeed */
; 352  :         }
; 353  : 
; 354  :         /* large len -- read directly into user buffer */
; 355  :         else if (state->how == COPY) {      /* read directly */

  000c5	83 f9 01	 cmp	 ecx, 1

; 356  :             if (gz_load(state, (unsigned char *)buf, len, &n) == -1)

  000c8	8b ce		 mov	 ecx, esi
  000ca	75 1a		 jne	 SHORT $LN20@gzread
  000cc	8b 55 0c	 mov	 edx, DWORD PTR _buf$[ebp]
  000cf	8d 45 08	 lea	 eax, DWORD PTR _n$[ebp]
  000d2	50		 push	 eax
  000d3	53		 push	 ebx
  000d4	e8 00 00 00 00	 call	 _gz_load
  000d9	83 c4 08	 add	 esp, 8
  000dc	83 f8 ff	 cmp	 eax, -1
  000df	74 65		 je	 SHORT $LN31@gzread

; 357  :                 return -1;
; 358  :         }

  000e1	8b 7d 08	 mov	 edi, DWORD PTR _n$[ebp]
  000e4	eb 1e		 jmp	 SHORT $LN21@gzread
$LN20@gzread:

; 359  : 
; 360  :         /* large len -- decompress directly into user buffer */
; 361  :         else {  /* state->how == GZIP */
; 362  :             strm->avail_out = len;
; 363  :             strm->next_out = (unsigned char *)buf;

  000e6	8b 45 0c	 mov	 eax, DWORD PTR _buf$[ebp]
  000e9	89 5e 74	 mov	 DWORD PTR [esi+116], ebx
  000ec	89 46 70	 mov	 DWORD PTR [esi+112], eax

; 364  :             if (gz_decomp(state) == -1)

  000ef	e8 00 00 00 00	 call	 _gz_decomp
  000f4	83 f8 ff	 cmp	 eax, -1
  000f7	74 4d		 je	 SHORT $LN31@gzread

; 365  :                 return -1;
; 366  :             n = state->x.have;

  000f9	8b 3e		 mov	 edi, DWORD PTR [esi]
  000fb	89 7d 08	 mov	 DWORD PTR _n$[ebp], edi

; 367  :             state->x.have = 0;

  000fe	c7 06 00 00 00
	00		 mov	 DWORD PTR [esi], 0
$LN21@gzread:

; 368  :         }
; 369  : 
; 370  :         /* update progress */
; 371  :         len -= n;
; 372  :         buf = (char *)buf + n;
; 373  :         got += n;

  00104	8b 45 10	 mov	 eax, DWORD PTR _got$1$[ebp]
  00107	2b df		 sub	 ebx, edi
  00109	01 7d 0c	 add	 DWORD PTR _buf$[ebp], edi
  0010c	03 c7		 add	 eax, edi

; 374  :         state->x.pos += n;

  0010e	01 7e 08	 add	 DWORD PTR [esi+8], edi
  00111	89 45 10	 mov	 DWORD PTR _got$1$[ebp], eax
  00114	83 56 0c 00	 adc	 DWORD PTR [esi+12], 0
  00118	eb 0f		 jmp	 SHORT $LN2@gzread
$LN18@gzread:

; 346  :             /* get more output, looking for header if required */
; 347  :             if (gz_fetch(state) == -1)

  0011a	8b ce		 mov	 ecx, esi
  0011c	e8 00 00 00 00	 call	 _gz_fetch
  00121	83 f8 ff	 cmp	 eax, -1
  00124	74 20		 je	 SHORT $LN31@gzread
  00126	8b 45 10	 mov	 eax, DWORD PTR _got$1$[ebp]
$LN2@gzread:

; 375  :     } while (len);

  00129	85 db		 test	 ebx, ebx
  0012b	0f 85 4f ff ff
	ff		 jne	 $LL4@gzread
  00131	5f		 pop	 edi
  00132	5b		 pop	 ebx
  00133	5e		 pop	 esi

; 376  : 
; 377  :     /* return number of bytes read into user buffer (will fit in int) */
; 378  :     return (int)got;
; 379  : }

  00134	5d		 pop	 ebp
  00135	c2 0c 00	 ret	 12			; 0000000cH
$LN28@gzread:
  00138	5f		 pop	 edi
  00139	5b		 pop	 ebx

; 339  :             state->past = 1;        /* tried to read past end */

  0013a	c7 46 44 01 00
	00 00		 mov	 DWORD PTR [esi+68], 1
  00141	5e		 pop	 esi

; 376  : 
; 377  :     /* return number of bytes read into user buffer (will fit in int) */
; 378  :     return (int)got;
; 379  : }

  00142	5d		 pop	 ebp
  00143	c2 0c 00	 ret	 12			; 0000000cH
$LN31@gzread:
  00146	5f		 pop	 edi
  00147	5b		 pop	 ebx

; 348  :                 return -1;

  00148	83 c8 ff	 or	 eax, -1
  0014b	5e		 pop	 esi

; 376  : 
; 377  :     /* return number of bytes read into user buffer (will fit in int) */
; 378  :     return (int)got;
; 379  : }

  0014c	5d		 pop	 ebp
  0014d	c2 0c 00	 ret	 12			; 0000000cH
_gzread@12 ENDP
_TEXT	ENDS
; Function compile flags: /Ogtp
; File d:\downloads\tgl-master\tgl-master\zlib\gzread.c
;	COMDAT _gzgetc@4
_TEXT	SEGMENT
_file$ = 8						; size = 4
_buf$ = 11						; size = 1
_gzgetc@4 PROC						; COMDAT

; 389  : {

  00000	55		 push	 ebp
  00001	8b ec		 mov	 ebp, esp

; 390  :     int ret;
; 391  :     unsigned char buf[1];
; 392  :     gz_statep state;
; 393  : 
; 394  :     /* get internal structure */
; 395  :     if (file == NULL)

  00003	8b 55 08	 mov	 edx, DWORD PTR _file$[ebp]
  00006	85 d2		 test	 edx, edx
  00008	74 4f		 je	 SHORT $LN4@gzgetc

; 396  :         return -1;
; 397  :     state = (gz_statep)file;
; 398  : 
; 399  :     /* check that we're reading and that there's no (serious) error */
; 400  :     if (state->mode != GZ_READ ||

  0000a	81 7a 10 4f 1c
	00 00		 cmp	 DWORD PTR [edx+16], 7247 ; 00001c4fH
  00011	75 46		 jne	 SHORT $LN4@gzgetc
  00013	8b 42 5c	 mov	 eax, DWORD PTR [edx+92]
  00016	85 c0		 test	 eax, eax
  00018	74 05		 je	 SHORT $LN3@gzgetc
  0001a	83 f8 fb	 cmp	 eax, -5			; fffffffbH
  0001d	75 3a		 jne	 SHORT $LN4@gzgetc
$LN3@gzgetc:

; 403  : 
; 404  :     /* try output buffer (no need to check for skip request) */
; 405  :     if (state->x.have) {

  0001f	8b 02		 mov	 eax, DWORD PTR [edx]
  00021	85 c0		 test	 eax, eax
  00023	74 1b		 je	 SHORT $LN5@gzgetc

; 406  :         state->x.have--;

  00025	48		 dec	 eax

; 407  :         state->x.pos++;

  00026	83 42 08 01	 add	 DWORD PTR [edx+8], 1
  0002a	89 02		 mov	 DWORD PTR [edx], eax

; 408  :         return *(state->x.next)++;

  0002c	8b 42 04	 mov	 eax, DWORD PTR [edx+4]
  0002f	83 52 0c 00	 adc	 DWORD PTR [edx+12], 0
  00033	8a 08		 mov	 cl, BYTE PTR [eax]
  00035	40		 inc	 eax
  00036	89 42 04	 mov	 DWORD PTR [edx+4], eax
  00039	0f b6 c1	 movzx	 eax, cl

; 414  : }

  0003c	5d		 pop	 ebp
  0003d	c2 04 00	 ret	 4
$LN5@gzgetc:

; 409  :     }
; 410  : 
; 411  :     /* nothing there -- try gzread() */
; 412  :     ret = gzread(file, buf, 1);

  00040	6a 01		 push	 1
  00042	8d 45 0b	 lea	 eax, DWORD PTR _buf$[ebp]
  00045	50		 push	 eax
  00046	52		 push	 edx
  00047	e8 00 00 00 00	 call	 _gzread@12

; 413  :     return ret < 1 ? -1 : buf[0];

  0004c	83 f8 01	 cmp	 eax, 1
  0004f	7c 08		 jl	 SHORT $LN4@gzgetc
  00051	0f b6 45 0b	 movzx	 eax, BYTE PTR _buf$[ebp]

; 414  : }

  00055	5d		 pop	 ebp
  00056	c2 04 00	 ret	 4
$LN4@gzgetc:

; 401  :         (state->err != Z_OK && state->err != Z_BUF_ERROR))
; 402  :         return -1;

  00059	83 c8 ff	 or	 eax, -1

; 414  : }

  0005c	5d		 pop	 ebp
  0005d	c2 04 00	 ret	 4
_gzgetc@4 ENDP
_TEXT	ENDS
; Function compile flags: /Ogtp
; File d:\downloads\tgl-master\tgl-master\zlib\gzread.c
;	COMDAT _gzgetc_@4
_TEXT	SEGMENT
_file$ = 8						; size = 4
_gzgetc_@4 PROC						; COMDAT

; 418  : {

  00000	55		 push	 ebp
  00001	8b ec		 mov	 ebp, esp

; 420  : }

  00003	5d		 pop	 ebp

; 419  :     return gzgetc(file);

  00004	e9 00 00 00 00	 jmp	 _gzgetc@4
_gzgetc_@4 ENDP
_TEXT	ENDS
; Function compile flags: /Ogtp
; File d:\downloads\tgl-master\tgl-master\zlib\gzread.c
;	COMDAT _gzungetc@8
_TEXT	SEGMENT
_c$ = 8							; size = 4
_file$ = 12						; size = 4
_gzungetc@8 PROC					; COMDAT

; 426  : {

  00000	55		 push	 ebp
  00001	8b ec		 mov	 ebp, esp
  00003	56		 push	 esi

; 427  :     gz_statep state;
; 428  : 
; 429  :     /* get internal structure */
; 430  :     if (file == NULL)

  00004	8b 75 0c	 mov	 esi, DWORD PTR _file$[ebp]
  00007	85 f6		 test	 esi, esi
  00009	75 08		 jne	 SHORT $LN4@gzungetc
$LN21@gzungetc:

; 431  :         return -1;

  0000b	83 c8 ff	 or	 eax, -1
  0000e	5e		 pop	 esi

; 480  : }

  0000f	5d		 pop	 ebp
  00010	c2 08 00	 ret	 8
$LN4@gzungetc:

; 432  :     state = (gz_statep)file;
; 433  : 
; 434  :     /* check that we're reading and that there's no (serious) error */
; 435  :     if (state->mode != GZ_READ ||

  00013	81 7e 10 4f 1c
	00 00		 cmp	 DWORD PTR [esi+16], 7247 ; 00001c4fH
  0001a	75 ef		 jne	 SHORT $LN21@gzungetc
  0001c	8b 46 5c	 mov	 eax, DWORD PTR [esi+92]
  0001f	85 c0		 test	 eax, eax
  00021	74 05		 je	 SHORT $LN5@gzungetc
  00023	83 f8 fb	 cmp	 eax, -5			; fffffffbH
  00026	75 e3		 jne	 SHORT $LN21@gzungetc
$LN5@gzungetc:

; 436  :         (state->err != Z_OK && state->err != Z_BUF_ERROR))
; 437  :         return -1;
; 438  : 
; 439  :     /* process a skip request */
; 440  :     if (state->seek) {

  00028	83 7e 58 00	 cmp	 DWORD PTR [esi+88], 0
  0002c	74 1c		 je	 SHORT $LN8@gzungetc

; 441  :         state->seek = 0;
; 442  :         if (gz_skip(state, state->skip) == -1)

  0002e	ff 76 54	 push	 DWORD PTR [esi+84]
  00031	8b ce		 mov	 ecx, esi
  00033	c7 46 58 00 00
	00 00		 mov	 DWORD PTR [esi+88], 0
  0003a	ff 76 50	 push	 DWORD PTR [esi+80]
  0003d	e8 00 00 00 00	 call	 _gz_skip
  00042	83 c4 08	 add	 esp, 8
  00045	83 f8 ff	 cmp	 eax, -1
  00048	74 c1		 je	 SHORT $LN21@gzungetc
$LN8@gzungetc:
  0004a	53		 push	 ebx

; 443  :             return -1;
; 444  :     }
; 445  : 
; 446  :     /* can't push EOF */
; 447  :     if (c < 0)

  0004b	8b 5d 08	 mov	 ebx, DWORD PTR _c$[ebp]
  0004e	85 db		 test	 ebx, ebx
  00050	78 38		 js	 SHORT $LN20@gzungetc

; 448  :         return -1;
; 449  : 
; 450  :     /* if output buffer empty, put byte at end (allows more pushing) */
; 451  :     if (state->x.have == 0) {

  00052	8b 0e		 mov	 ecx, DWORD PTR [esi]

; 452  :         state->x.have = 1;
; 453  :         state->x.next = state->out + (state->size << 1) - 1;

  00054	8b 56 1c	 mov	 edx, DWORD PTR [esi+28]
  00057	85 c9		 test	 ecx, ecx
  00059	75 14		 jne	 SHORT $LN10@gzungetc
  0005b	8b 4e 28	 mov	 ecx, DWORD PTR [esi+40]
  0005e	c7 06 01 00 00
	00		 mov	 DWORD PTR [esi], 1
  00064	8d 0c 51	 lea	 ecx, DWORD PTR [ecx+edx*2]
  00067	49		 dec	 ecx
  00068	89 4e 04	 mov	 DWORD PTR [esi+4], ecx

; 454  :         state->x.next[0] = c;

  0006b	88 19		 mov	 BYTE PTR [ecx], bl

; 455  :         state->x.pos--;
; 456  :         state->past = 0;
; 457  :         return c;

  0006d	eb 4e		 jmp	 SHORT $LN19@gzungetc
$LN10@gzungetc:

; 458  :     }
; 459  : 
; 460  :     /* if no room, give up (must have already done a gzungetc()) */
; 461  :     if (state->x.have == (state->size << 1)) {

  0006f	8d 04 12	 lea	 eax, DWORD PTR [edx+edx]
  00072	3b c8		 cmp	 ecx, eax
  00074	75 1d		 jne	 SHORT $LN11@gzungetc

; 462  :         gz_error(state, Z_DATA_ERROR, "out of room to push characters");

  00076	68 00 00 00 00	 push	 OFFSET ??_C@_0BP@IIKIGMCC@out?5of?5room?5to?5push?5characters?$AA@
  0007b	ba fd ff ff ff	 mov	 edx, -3			; fffffffdH
  00080	8b ce		 mov	 ecx, esi
  00082	e8 00 00 00 00	 call	 _gz_error
  00087	83 c4 04	 add	 esp, 4
$LN20@gzungetc:

; 463  :         return -1;

  0008a	5b		 pop	 ebx
  0008b	83 c8 ff	 or	 eax, -1
  0008e	5e		 pop	 esi

; 480  : }

  0008f	5d		 pop	 ebp
  00090	c2 08 00	 ret	 8
$LN11@gzungetc:

; 464  :     }
; 465  : 
; 466  :     /* slide output data if needed and insert byte before existing data */
; 467  :     if (state->x.next == state->out) {

  00093	8b 46 28	 mov	 eax, DWORD PTR [esi+40]
  00096	39 46 04	 cmp	 DWORD PTR [esi+4], eax
  00099	75 18		 jne	 SHORT $LN12@gzungetc

; 468  :         unsigned char *src = state->out + state->x.have;

  0009b	03 c8		 add	 ecx, eax

; 469  :         unsigned char *dest = state->out + (state->size << 1);

  0009d	8d 14 50	 lea	 edx, DWORD PTR [eax+edx*2]

; 470  :         while (src > state->out)

  000a0	3b c8		 cmp	 ecx, eax
  000a2	76 0c		 jbe	 SHORT $LN3@gzungetc
$LL2@gzungetc:

; 471  :             *--dest = *--src;

  000a4	8a 41 ff	 mov	 al, BYTE PTR [ecx-1]
  000a7	49		 dec	 ecx
  000a8	4a		 dec	 edx
  000a9	88 02		 mov	 BYTE PTR [edx], al
  000ab	3b 4e 28	 cmp	 ecx, DWORD PTR [esi+40]
  000ae	77 f4		 ja	 SHORT $LL2@gzungetc
$LN3@gzungetc:

; 472  :         state->x.next = dest;

  000b0	89 56 04	 mov	 DWORD PTR [esi+4], edx
$LN12@gzungetc:

; 473  :     }
; 474  :     state->x.have++;

  000b3	ff 06		 inc	 DWORD PTR [esi]

; 475  :     state->x.next--;

  000b5	ff 4e 04	 dec	 DWORD PTR [esi+4]
  000b8	8b 46 04	 mov	 eax, DWORD PTR [esi+4]

; 476  :     state->x.next[0] = c;

  000bb	88 18		 mov	 BYTE PTR [eax], bl
$LN19@gzungetc:

; 477  :     state->x.pos--;

  000bd	83 46 08 ff	 add	 DWORD PTR [esi+8], -1

; 478  :     state->past = 0;
; 479  :     return c;

  000c1	8b c3		 mov	 eax, ebx
  000c3	5b		 pop	 ebx
  000c4	83 56 0c ff	 adc	 DWORD PTR [esi+12], -1
  000c8	c7 46 44 00 00
	00 00		 mov	 DWORD PTR [esi+68], 0
  000cf	5e		 pop	 esi

; 480  : }

  000d0	5d		 pop	 ebp
  000d1	c2 08 00	 ret	 8
_gzungetc@8 ENDP
_TEXT	ENDS
; Function compile flags: /Ogtp
; File d:\downloads\tgl-master\tgl-master\zlib\gzread.c
;	COMDAT _gzgets@12
_TEXT	SEGMENT
_left$1$ = 8						; size = 4
_file$ = 8						; size = 4
_eol$1$ = 12						; size = 4
_buf$ = 12						; size = 4
_str$1$ = 16						; size = 4
_len$ = 16						; size = 4
_gzgets@12 PROC						; COMDAT

; 487  : {

  00000	55		 push	 ebp
  00001	8b ec		 mov	 ebp, esp
  00003	53		 push	 ebx
  00004	56		 push	 esi
  00005	57		 push	 edi

; 488  :     unsigned left, n;
; 489  :     char *str;
; 490  :     unsigned char *eol;
; 491  :     gz_statep state;
; 492  : 
; 493  :     /* check parameters and get internal structure */
; 494  :     if (file == NULL || buf == NULL || len < 1)

  00006	8b 7d 08	 mov	 edi, DWORD PTR _file$[ebp]
  00009	85 ff		 test	 edi, edi
  0000b	0f 84 f2 00 00
	00		 je	 $LN6@gzgets
  00011	8b 5d 0c	 mov	 ebx, DWORD PTR _buf$[ebp]
  00014	85 db		 test	 ebx, ebx
  00016	0f 84 e7 00 00
	00		 je	 $LN6@gzgets
  0001c	8b 75 10	 mov	 esi, DWORD PTR _len$[ebp]
  0001f	83 fe 01	 cmp	 esi, 1
  00022	0f 8c db 00 00
	00		 jl	 $LN6@gzgets

; 496  :     state = (gz_statep)file;
; 497  : 
; 498  :     /* check that we're reading and that there's no (serious) error */
; 499  :     if (state->mode != GZ_READ ||

  00028	81 7f 10 4f 1c
	00 00		 cmp	 DWORD PTR [edi+16], 7247 ; 00001c4fH
  0002f	0f 85 ce 00 00
	00		 jne	 $LN6@gzgets
  00035	8b 47 5c	 mov	 eax, DWORD PTR [edi+92]
  00038	85 c0		 test	 eax, eax
  0003a	74 09		 je	 SHORT $LN7@gzgets
  0003c	83 f8 fb	 cmp	 eax, -5			; fffffffbH
  0003f	0f 85 be 00 00
	00		 jne	 $LN6@gzgets
$LN7@gzgets:

; 500  :         (state->err != Z_OK && state->err != Z_BUF_ERROR))
; 501  :         return NULL;
; 502  : 
; 503  :     /* process a skip request */
; 504  :     if (state->seek) {

  00045	83 7f 58 00	 cmp	 DWORD PTR [edi+88], 0
  00049	74 20		 je	 SHORT $LN10@gzgets

; 505  :         state->seek = 0;
; 506  :         if (gz_skip(state, state->skip) == -1)

  0004b	ff 77 54	 push	 DWORD PTR [edi+84]
  0004e	8b cf		 mov	 ecx, edi
  00050	c7 47 58 00 00
	00 00		 mov	 DWORD PTR [edi+88], 0
  00057	ff 77 50	 push	 DWORD PTR [edi+80]
  0005a	e8 00 00 00 00	 call	 _gz_skip
  0005f	83 c4 08	 add	 esp, 8
  00062	83 f8 ff	 cmp	 eax, -1
  00065	0f 84 98 00 00
	00		 je	 $LN6@gzgets
$LN10@gzgets:

; 507  :             return NULL;
; 508  :     }
; 509  : 
; 510  :     /* copy output bytes up to new line or len - 1, whichever comes first --
; 511  :        append a terminating zero to the string (we don't check for a zero in
; 512  :        the contents, let the user worry about that) */
; 513  :     str = buf;
; 514  :     left = (unsigned)len - 1;

  0006b	8d 46 ff	 lea	 eax, DWORD PTR [esi-1]
  0006e	89 5d 10	 mov	 DWORD PTR _str$1$[ebp], ebx
  00071	89 45 08	 mov	 DWORD PTR _left$1$[ebp], eax

; 515  :     if (left) do {

  00074	85 c0		 test	 eax, eax
  00076	0f 84 87 00 00
	00		 je	 $LN6@gzgets
  0007c	0f 1f 40 00	 npad	 4
$LL4@gzgets:

; 516  :         /* assure that something is in the output buffer */
; 517  :         if (state->x.have == 0 && gz_fetch(state) == -1)

  00080	8b 37		 mov	 esi, DWORD PTR [edi]
  00082	85 f6		 test	 esi, esi
  00084	75 15		 jne	 SHORT $LN26@gzgets
  00086	8b cf		 mov	 ecx, edi
  00088	e8 00 00 00 00	 call	 _gz_fetch
  0008d	83 f8 ff	 cmp	 eax, -1
  00090	74 71		 je	 SHORT $LN6@gzgets

; 518  :             return NULL;                /* error */
; 519  :         if (state->x.have == 0) {       /* end of file */

  00092	8b 37		 mov	 esi, DWORD PTR [edi]
  00094	85 f6		 test	 esi, esi
  00096	74 53		 je	 SHORT $LN22@gzgets
  00098	8b 45 08	 mov	 eax, DWORD PTR _left$1$[ebp]
$LN26@gzgets:

; 521  :             break;                      /* return what we have */
; 522  :         }
; 523  : 
; 524  :         /* look for end-of-line in current output buffer */
; 525  :         n = state->x.have > left ? left : state->x.have;

  0009b	3b f0		 cmp	 esi, eax
  0009d	0f 47 f0	 cmova	 esi, eax

; 526  :         eol = (unsigned char *)memchr(state->x.next, '\n', n);

  000a0	56		 push	 esi
  000a1	6a 0a		 push	 10			; 0000000aH
  000a3	ff 77 04	 push	 DWORD PTR [edi+4]
  000a6	ff 15 00 00 00
	00		 call	 DWORD PTR __imp__memchr
  000ac	83 c4 0c	 add	 esp, 12			; 0000000cH
  000af	89 45 0c	 mov	 DWORD PTR _eol$1$[ebp], eax

; 527  :         if (eol != NULL)

  000b2	85 c0		 test	 eax, eax
  000b4	74 06		 je	 SHORT $LN14@gzgets

; 528  :             n = (unsigned)(eol - state->x.next) + 1;

  000b6	8b f0		 mov	 esi, eax
  000b8	2b 77 04	 sub	 esi, DWORD PTR [edi+4]
  000bb	46		 inc	 esi
$LN14@gzgets:

; 529  : 
; 530  :         /* copy through end-of-line, or remainder if not found */
; 531  :         memcpy(buf, state->x.next, n);

  000bc	56		 push	 esi
  000bd	ff 77 04	 push	 DWORD PTR [edi+4]
  000c0	53		 push	 ebx
  000c1	e8 00 00 00 00	 call	 _memcpy

; 532  :         state->x.have -= n;

  000c6	29 37		 sub	 DWORD PTR [edi], esi
  000c8	83 c4 0c	 add	 esp, 12			; 0000000cH

; 533  :         state->x.next += n;

  000cb	01 77 04	 add	 DWORD PTR [edi+4], esi

; 534  :         state->x.pos += n;

  000ce	01 77 08	 add	 DWORD PTR [edi+8], esi

; 535  :         left -= n;

  000d1	8b 45 08	 mov	 eax, DWORD PTR _left$1$[ebp]
  000d4	83 57 0c 00	 adc	 DWORD PTR [edi+12], 0
  000d8	2b c6		 sub	 eax, esi

; 536  :         buf += n;

  000da	03 de		 add	 ebx, esi
  000dc	89 45 08	 mov	 DWORD PTR _left$1$[ebp], eax

; 537  :     } while (left && eol == NULL);

  000df	85 c0		 test	 eax, eax
  000e1	74 0f		 je	 SHORT $LN15@gzgets
  000e3	83 7d 0c 00	 cmp	 DWORD PTR _eol$1$[ebp], 0
  000e7	74 97		 je	 SHORT $LL4@gzgets
  000e9	eb 07		 jmp	 SHORT $LN15@gzgets
$LN22@gzgets:

; 520  :             state->past = 1;            /* read past end */

  000eb	c7 47 44 01 00
	00 00		 mov	 DWORD PTR [edi+68], 1
$LN15@gzgets:

; 538  : 
; 539  :     /* return terminated string, or if nothing, end of file */
; 540  :     if (buf == str)

  000f2	8b 45 10	 mov	 eax, DWORD PTR _str$1$[ebp]
  000f5	3b d8		 cmp	 ebx, eax
  000f7	74 0a		 je	 SHORT $LN6@gzgets

; 541  :         return NULL;
; 542  :     buf[0] = 0;

  000f9	5f		 pop	 edi
  000fa	5e		 pop	 esi
  000fb	c6 03 00	 mov	 BYTE PTR [ebx], 0
  000fe	5b		 pop	 ebx

; 543  :     return str;
; 544  : }

  000ff	5d		 pop	 ebp
  00100	c2 0c 00	 ret	 12			; 0000000cH
$LN6@gzgets:
  00103	5f		 pop	 edi
  00104	5e		 pop	 esi

; 495  :         return NULL;

  00105	33 c0		 xor	 eax, eax
  00107	5b		 pop	 ebx

; 543  :     return str;
; 544  : }

  00108	5d		 pop	 ebp
  00109	c2 0c 00	 ret	 12			; 0000000cH
_gzgets@12 ENDP
_TEXT	ENDS
; Function compile flags: /Ogtp
; File d:\downloads\tgl-master\tgl-master\zlib\gzread.c
;	COMDAT _gzdirect@4
_TEXT	SEGMENT
_file$ = 8						; size = 4
_gzdirect@4 PROC					; COMDAT

; 549  : {

  00000	55		 push	 ebp
  00001	8b ec		 mov	 ebp, esp
  00003	56		 push	 esi

; 550  :     gz_statep state;
; 551  : 
; 552  :     /* get internal structure */
; 553  :     if (file == NULL)

  00004	8b 75 08	 mov	 esi, DWORD PTR _file$[ebp]
  00007	85 f6		 test	 esi, esi
  00009	75 07		 jne	 SHORT $LN2@gzdirect

; 554  :         return 0;

  0000b	33 c0		 xor	 eax, eax
  0000d	5e		 pop	 esi

; 564  : }

  0000e	5d		 pop	 ebp
  0000f	c2 04 00	 ret	 4
$LN2@gzdirect:

; 555  :     state = (gz_statep)file;
; 556  : 
; 557  :     /* if the state is not known, but we can find out, then do so (this is
; 558  :        mainly for right after a gzopen() or gzdopen()) */
; 559  :     if (state->mode == GZ_READ && state->how == LOOK && state->x.have == 0)

  00012	81 7e 10 4f 1c
	00 00		 cmp	 DWORD PTR [esi+16], 7247 ; 00001c4fH
  00019	75 12		 jne	 SHORT $LN3@gzdirect
  0001b	83 7e 30 00	 cmp	 DWORD PTR [esi+48], 0
  0001f	75 0c		 jne	 SHORT $LN3@gzdirect
  00021	83 3e 00	 cmp	 DWORD PTR [esi], 0
  00024	75 07		 jne	 SHORT $LN3@gzdirect

; 560  :         (void)gz_look(state);

  00026	8b ce		 mov	 ecx, esi
  00028	e8 00 00 00 00	 call	 _gz_look
$LN3@gzdirect:

; 561  : 
; 562  :     /* return 1 if transparent, 0 if processing a gzip stream */
; 563  :     return state->direct;

  0002d	8b 46 2c	 mov	 eax, DWORD PTR [esi+44]
  00030	5e		 pop	 esi

; 564  : }

  00031	5d		 pop	 ebp
  00032	c2 04 00	 ret	 4
_gzdirect@4 ENDP
_TEXT	ENDS
END
