; Listing generated by Microsoft (R) Optimizing Compiler Version 19.00.23506.0 

	TITLE	d:\downloads\tgl-master\tgl-master\zlib\inftrees.c
	.686P
	.XMM
	include listing.inc
	.model	flat

INCLUDELIB OLDNAMES

	ORG $+2
?dext@?1??inflate_table@@9@9 DW 010H			; `inflate_table'::`2'::dext
	DW	010H
	DW	010H
	DW	010H
	DW	011H
	DW	011H
	DW	012H
	DW	012H
	DW	013H
	DW	013H
	DW	014H
	DW	014H
	DW	015H
	DW	015H
	DW	016H
	DW	016H
	DW	017H
	DW	017H
	DW	018H
	DW	018H
	DW	019H
	DW	019H
	DW	01aH
	DW	01aH
	DW	01bH
	DW	01bH
	DW	01cH
	DW	01cH
	DW	01dH
	DW	01dH
	DW	040H
	DW	040H
?lext@?1??inflate_table@@9@9 DW 010H			; `inflate_table'::`2'::lext
	DW	010H
	DW	010H
	DW	010H
	DW	010H
	DW	010H
	DW	010H
	DW	010H
	DW	011H
	DW	011H
	DW	011H
	DW	011H
	DW	012H
	DW	012H
	DW	012H
	DW	012H
	DW	013H
	DW	013H
	DW	013H
	DW	013H
	DW	014H
	DW	014H
	DW	014H
	DW	014H
	DW	015H
	DW	015H
	DW	015H
	DW	015H
	DW	010H
	DW	048H
	DW	04eH
	ORG $+2
?lbase@?1??inflate_table@@9@9 DW 03H			; `inflate_table'::`2'::lbase
	DW	04H
	DW	05H
	DW	06H
	DW	07H
	DW	08H
	DW	09H
	DW	0aH
	DW	0bH
	DW	0dH
	DW	0fH
	DW	011H
	DW	013H
	DW	017H
	DW	01bH
	DW	01fH
	DW	023H
	DW	02bH
	DW	033H
	DW	03bH
	DW	043H
	DW	053H
	DW	063H
	DW	073H
	DW	083H
	DW	0a3H
	DW	0c3H
	DW	0e3H
	DW	0102H
	DW	00H
	DW	00H
	ORG $+2
?dbase@?1??inflate_table@@9@9 DW 01H			; `inflate_table'::`2'::dbase
	DW	02H
	DW	03H
	DW	04H
	DW	05H
	DW	07H
	DW	09H
	DW	0dH
	DW	011H
	DW	019H
	DW	021H
	DW	031H
	DW	041H
	DW	061H
	DW	081H
	DW	0c1H
	DW	0101H
	DW	0181H
	DW	0201H
	DW	0301H
	DW	0401H
	DW	0601H
	DW	0801H
	DW	0c01H
	DW	01001H
	DW	01801H
	DW	02001H
	DW	03001H
	DW	04001H
	DW	06001H
	DW	00H
	DW	00H
PUBLIC	_inflate_table
; Function compile flags: /Ogtp
; File d:\downloads\tgl-master\tgl-master\zlib\inftrees.c
;	COMDAT _inflate_table
_TEXT	SEGMENT
_offs$ = -128						; size = 32
_count$ = -96						; size = 32
_min$2$ = -64						; size = 4
_mask$1$ = -60						; size = 4
tv1501 = -56						; size = 4
tv1495 = -56						; size = 4
_low$1$ = -52						; size = 4
_used$1$ = -48						; size = 4
tv1502 = -44						; size = 4
_lens$1$ = -40						; size = 4
_base$1$ = -36						; size = 4
_extra$1$ = -32						; size = 4
_end$1$ = -28						; size = 4
_root$3$ = -24						; size = 4
_len$2$ = -20						; size = 4
_type$1$ = -16						; size = 4
_huff$1$ = -12						; size = 4
_next$1$ = -8						; size = 4
_drop$1$ = -4						; size = 4
_here$ = 8						; size = 4
_codes$ = 8						; size = 4
_table$ = 12						; size = 4
_bits$ = 16						; size = 4
_work$ = 20						; size = 4
_inflate_table PROC					; COMDAT
; _type$ = ecx
; _lens$ = edx

; 39   : {

  00000	55		 push	 ebp
  00001	8b ec		 mov	 ebp, esp
  00003	81 ec 80 00 00
	00		 sub	 esp, 128		; 00000080H
  00009	53		 push	 ebx
  0000a	56		 push	 esi
  0000b	89 4d f0	 mov	 DWORD PTR _type$1$[ebp], ecx
  0000e	0f 57 c0	 xorps	 xmm0, xmm0

; 40   :     unsigned len;               /* a code's length in bits */
; 41   :     unsigned sym;               /* index of code symbols */
; 42   :     unsigned min, max;          /* minimum and maximum code lengths */
; 43   :     unsigned root;              /* number of index bits for root table */
; 44   :     unsigned curr;              /* number of index bits for current table */
; 45   :     unsigned drop;              /* code bits to drop for sub-table */
; 46   :     int left;                   /* number of prefix codes available */
; 47   :     unsigned used;              /* code entries in table used */
; 48   :     unsigned huff;              /* Huffman code */
; 49   :     unsigned incr;              /* for incrementing code, index */
; 50   :     unsigned fill;              /* index for replicating entries */
; 51   :     unsigned low;               /* low bits for current root entry */
; 52   :     unsigned mask;              /* mask for low root bits */
; 53   :     code here;                  /* table entry for duplication */
; 54   :     code FAR *next;             /* next available space in table */
; 55   :     const unsigned short FAR *base;     /* base value table to use */
; 56   :     const unsigned short FAR *extra;    /* extra bits table to use */
; 57   :     int end;                    /* use base and extra for symbol > end */
; 58   :     unsigned short count[MAXBITS+1];    /* number of codes of each length */
; 59   :     unsigned short offs[MAXBITS+1];     /* offsets in table for each length */
; 60   :     static const unsigned short lbase[31] = { /* Length codes 257..285 base */
; 61   :         3, 4, 5, 6, 7, 8, 9, 10, 11, 13, 15, 17, 19, 23, 27, 31,
; 62   :         35, 43, 51, 59, 67, 83, 99, 115, 131, 163, 195, 227, 258, 0, 0};
; 63   :     static const unsigned short lext[31] = { /* Length codes 257..285 extra */
; 64   :         16, 16, 16, 16, 16, 16, 16, 16, 17, 17, 17, 17, 18, 18, 18, 18,
; 65   :         19, 19, 19, 19, 20, 20, 20, 20, 21, 21, 21, 21, 16, 72, 78};
; 66   :     static const unsigned short dbase[32] = { /* Distance codes 0..29 base */
; 67   :         1, 2, 3, 4, 5, 7, 9, 13, 17, 25, 33, 49, 65, 97, 129, 193,
; 68   :         257, 385, 513, 769, 1025, 1537, 2049, 3073, 4097, 6145,
; 69   :         8193, 12289, 16385, 24577, 0, 0};
; 70   :     static const unsigned short dext[32] = { /* Distance codes 0..29 extra */
; 71   :         16, 16, 16, 16, 17, 17, 18, 18, 19, 19, 20, 20, 21, 21, 22, 22,
; 72   :         23, 23, 24, 24, 25, 25, 26, 26, 27, 27,
; 73   :         28, 28, 29, 29, 64, 64};
; 74   : 
; 75   :     /*
; 76   :        Process a set of code lengths to create a canonical Huffman code.  The
; 77   :        code lengths are lens[0..codes-1].  Each length corresponds to the
; 78   :        symbols 0..codes-1.  The Huffman code is generated by first sorting the
; 79   :        symbols by length from short to long, and retaining the symbol order
; 80   :        for codes with equal lengths.  Then the code starts with all zero bits
; 81   :        for the first code of the shortest length, and the codes are integer
; 82   :        increments for the same length, and zeros are appended as the length
; 83   :        increases.  For the deflate format, these bits are stored backwards
; 84   :        from their more natural integer increment ordering, and so when the
; 85   :        decoding tables are built in the large loop below, the integer codes
; 86   :        are incremented backwards.
; 87   : 
; 88   :        This routine assumes, but does not check, that all of the entries in
; 89   :        lens[] are in the range 0..MAXBITS.  The caller must assure this.
; 90   :        1..MAXBITS is interpreted as that code length.  zero means that that
; 91   :        symbol does not occur in this code.
; 92   : 
; 93   :        The codes are sorted by computing a count of codes for each length,
; 94   :        creating from that a table of starting indices for each length in the
; 95   :        sorted table, and then entering the symbols in order in the sorted
; 96   :        table.  The sorted table is work[], with that space being provided by
; 97   :        the caller.
; 98   : 
; 99   :        The length counts are used for other purposes as well, i.e. finding
; 100  :        the minimum and maximum length codes, determining if there are any
; 101  :        codes at all, checking for a valid set of lengths, and looking ahead
; 102  :        at length counts to determine sub-table sizes when building the
; 103  :        decoding tables.
; 104  :      */
; 105  : 
; 106  :     /* accumulate lengths for codes (assumes lens[] all in 0..MAXBITS) */
; 107  :     for (len = 0; len <= MAXBITS; len++)
; 108  :         count[len] = 0;
; 109  :     for (sym = 0; sym < codes; sym++)

  00011	8b 4d 08	 mov	 ecx, DWORD PTR _codes$[ebp]
  00014	8b c2		 mov	 eax, edx
  00016	33 f6		 xor	 esi, esi
  00018	89 45 d8	 mov	 DWORD PTR _lens$1$[ebp], eax
  0001b	57		 push	 edi
  0001c	0f 11 45 a0	 movups	 XMMWORD PTR _count$[ebp], xmm0
  00020	0f 11 45 b0	 movups	 XMMWORD PTR _count$[ebp+16], xmm0
  00024	85 c9		 test	 ecx, ecx
  00026	74 18		 je	 SHORT $LN6@inflate_ta
  00028	0f 1f 84 00 00
	00 00 00	 npad	 8
$LL7@inflate_ta:

; 110  :         count[lens[sym]]++;

  00030	0f b7 04 70	 movzx	 eax, WORD PTR [eax+esi*2]
  00034	46		 inc	 esi
  00035	66 ff 44 45 a0	 inc	 WORD PTR _count$[ebp+eax*2]
  0003a	8b c2		 mov	 eax, edx
  0003c	3b f1		 cmp	 esi, ecx
  0003e	72 f0		 jb	 SHORT $LL7@inflate_ta
$LN6@inflate_ta:

; 111  : 
; 112  :     /* bound code lengths, force root to be within code lengths */
; 113  :     root = *bits;

  00040	8b 5d 10	 mov	 ebx, DWORD PTR _bits$[ebp]
  00043	8d 45 ba	 lea	 eax, DWORD PTR _count$[ebp+26]

; 114  :     for (max = MAXBITS; max >= 1; max--)

  00046	bf 0f 00 00 00	 mov	 edi, 15			; 0000000fH
  0004b	8b 0b		 mov	 ecx, DWORD PTR [ebx]
  0004d	0f 1f 00	 npad	 3
$LL10@inflate_ta:

; 115  :         if (count[max] != 0) break;

  00050	66 83 78 04 00	 cmp	 WORD PTR [eax+4], 0
  00055	75 38		 jne	 SHORT $LN78@inflate_ta
  00057	66 83 78 02 00	 cmp	 WORD PTR [eax+2], 0
  0005c	75 30		 jne	 SHORT $LN111@inflate_ta
  0005e	66 83 38 00	 cmp	 WORD PTR [eax], 0
  00062	75 25		 jne	 SHORT $LN112@inflate_ta
  00064	66 83 78 fe 00	 cmp	 WORD PTR [eax-2], 0
  00069	75 19		 jne	 SHORT $LN113@inflate_ta
  0006b	66 83 78 fc 00	 cmp	 WORD PTR [eax-4], 0
  00070	75 0d		 jne	 SHORT $LN114@inflate_ta

; 114  :     for (max = MAXBITS; max >= 1; max--)

  00072	83 ef 05	 sub	 edi, 5
  00075	83 e8 0a	 sub	 eax, 10			; 0000000aH
  00078	83 ff 01	 cmp	 edi, 1
  0007b	73 d3		 jae	 SHORT $LL10@inflate_ta
  0007d	eb 10		 jmp	 SHORT $LN78@inflate_ta
$LN114@inflate_ta:

; 115  :         if (count[max] != 0) break;

  0007f	83 ef 04	 sub	 edi, 4
  00082	eb 0b		 jmp	 SHORT $LN78@inflate_ta
$LN113@inflate_ta:
  00084	83 ef 03	 sub	 edi, 3
  00087	eb 06		 jmp	 SHORT $LN78@inflate_ta
$LN112@inflate_ta:
  00089	83 ef 02	 sub	 edi, 2
  0008c	eb 01		 jmp	 SHORT $LN78@inflate_ta
$LN111@inflate_ta:
  0008e	4f		 dec	 edi
$LN78@inflate_ta:

; 116  :     if (root > max) root = max;

  0008f	3b cf		 cmp	 ecx, edi
  00091	0f 47 cf	 cmova	 ecx, edi

; 117  :     if (max == 0) {                     /* no symbols to code at all */

  00094	85 ff		 test	 edi, edi
  00096	75 2a		 jne	 SHORT $LN37@inflate_ta

; 118  :         here.op = (unsigned char)64;    /* invalid code marker */
; 119  :         here.bits = (unsigned char)1;
; 120  :         here.val = (unsigned short)0;
; 121  :         *(*table)++ = here;             /* make a table to force an error */

  00098	8b 55 0c	 mov	 edx, DWORD PTR _table$[ebp]
  0009b	c7 45 08 40 01
	00 00		 mov	 DWORD PTR _here$[ebp], 320 ; 00000140H
  000a2	8b 45 08	 mov	 eax, DWORD PTR _here$[ebp]
  000a5	5f		 pop	 edi
  000a6	8b 0a		 mov	 ecx, DWORD PTR [edx]
  000a8	5e		 pop	 esi
  000a9	89 01		 mov	 DWORD PTR [ecx], eax
  000ab	83 02 04	 add	 DWORD PTR [edx], 4
  000ae	8b 0a		 mov	 ecx, DWORD PTR [edx]

; 122  :         *(*table)++ = here;

  000b0	89 01		 mov	 DWORD PTR [ecx], eax
  000b2	83 02 04	 add	 DWORD PTR [edx], 4

; 123  :         *bits = 1;
; 124  :         return 0;     /* no symbols, but wait for decoding to report error */

  000b5	33 c0		 xor	 eax, eax
  000b7	c7 03 01 00 00
	00		 mov	 DWORD PTR [ebx], 1
  000bd	5b		 pop	 ebx

; 306  : }

  000be	8b e5		 mov	 esp, ebp
  000c0	5d		 pop	 ebp
  000c1	c3		 ret	 0
$LN37@inflate_ta:

; 125  :     }
; 126  :     for (min = 1; min < max; min++)

  000c2	bb 01 00 00 00	 mov	 ebx, 1
  000c7	89 5d ec	 mov	 DWORD PTR _len$2$[ebp], ebx
  000ca	3b fb		 cmp	 edi, ebx
  000cc	76 12		 jbe	 SHORT $LN79@inflate_ta
  000ce	66 90		 npad	 2
$LL13@inflate_ta:

; 127  :         if (count[min] != 0) break;

  000d0	66 83 7c 5d a0
	00		 cmp	 WORD PTR _count$[ebp+ebx*2], 0
  000d6	75 05		 jne	 SHORT $LN134@inflate_ta

; 125  :     }
; 126  :     for (min = 1; min < max; min++)

  000d8	43		 inc	 ebx
  000d9	3b df		 cmp	 ebx, edi
  000db	72 f3		 jb	 SHORT $LL13@inflate_ta
$LN134@inflate_ta:
  000dd	89 5d ec	 mov	 DWORD PTR _len$2$[ebp], ebx
$LN79@inflate_ta:

; 128  :     if (root < min) root = min;

  000e0	3b cb		 cmp	 ecx, ebx

; 129  : 
; 130  :     /* check for an over-subscribed or incomplete set of lengths */
; 131  :     left = 1;

  000e2	ba 01 00 00 00	 mov	 edx, 1
  000e7	0f 42 cb	 cmovb	 ecx, ebx
  000ea	89 4d e8	 mov	 DWORD PTR _root$3$[ebp], ecx

; 132  :     for (len = 1; len <= MAXBITS; len++) {

  000ed	8b ca		 mov	 ecx, edx
  000ef	90		 npad	 1
$LL16@inflate_ta:

; 133  :         left <<= 1;
; 134  :         left -= count[len];

  000f0	0f b7 44 4d a0	 movzx	 eax, WORD PTR _count$[ebp+ecx*2]
  000f5	03 d2		 add	 edx, edx
  000f7	2b d0		 sub	 edx, eax

; 135  :         if (left < 0) return -1;        /* over-subscribed */

  000f9	0f 88 04 03 00
	00		 js	 $LN80@inflate_ta

; 132  :     for (len = 1; len <= MAXBITS; len++) {

  000ff	41		 inc	 ecx
  00100	83 f9 0f	 cmp	 ecx, 15			; 0000000fH
  00103	76 eb		 jbe	 SHORT $LL16@inflate_ta

; 136  :     }
; 137  :     if (left > 0 && (type == CODES || max != 1))

  00105	85 d2		 test	 edx, edx
  00107	7e 13		 jle	 SHORT $LN41@inflate_ta
  00109	83 7d f0 00	 cmp	 DWORD PTR _type$1$[ebp], 0
  0010d	0f 84 f0 02 00
	00		 je	 $LN80@inflate_ta
  00113	83 ff 01	 cmp	 edi, 1
  00116	0f 85 e7 02 00
	00		 jne	 $LN80@inflate_ta
$LN41@inflate_ta:

; 138  :         return -1;                      /* incomplete set */
; 139  : 
; 140  :     /* generate offsets into symbol table for each length for sorting */
; 141  :     offs[1] = 0;

  0011c	33 c0		 xor	 eax, eax

; 142  :     for (len = 1; len < MAXBITS; len++)

  0011e	b9 02 00 00 00	 mov	 ecx, 2
  00123	66 89 45 82	 mov	 WORD PTR _offs$[ebp+2], ax
  00127	66 0f 1f 84 00
	00 00 00 00	 npad	 9
$LL19@inflate_ta:

; 143  :         offs[len + 1] = offs[len] + count[len];

  00130	66 8b 44 0d 80	 mov	 ax, WORD PTR _offs$[ebp+ecx]
  00135	66 03 44 0d a0	 add	 ax, WORD PTR _count$[ebp+ecx]
  0013a	66 89 44 0d 82	 mov	 WORD PTR _offs$[ebp+ecx+2], ax
  0013f	83 c1 02	 add	 ecx, 2
  00142	83 f9 1e	 cmp	 ecx, 30			; 0000001eH
  00145	72 e9		 jb	 SHORT $LL19@inflate_ta

; 144  : 
; 145  :     /* sort symbols by length, by symbol order within each length */
; 146  :     for (sym = 0; sym < codes; sym++)

  00147	8b 55 08	 mov	 edx, DWORD PTR _codes$[ebp]
  0014a	33 c9		 xor	 ecx, ecx
  0014c	8b 75 14	 mov	 esi, DWORD PTR _work$[ebp]
  0014f	85 d2		 test	 edx, edx
  00151	74 26		 je	 SHORT $LN21@inflate_ta
  00153	8b 5d d8	 mov	 ebx, DWORD PTR _lens$1$[ebp]
$LL22@inflate_ta:

; 147  :         if (lens[sym] != 0) work[offs[lens[sym]]++] = (unsigned short)sym;

  00156	0f b7 04 4b	 movzx	 eax, WORD PTR [ebx+ecx*2]
  0015a	66 85 c0	 test	 ax, ax
  0015d	74 12		 je	 SHORT $LN20@inflate_ta
  0015f	0f b7 44 45 80	 movzx	 eax, WORD PTR _offs$[ebp+eax*2]
  00164	66 89 0c 46	 mov	 WORD PTR [esi+eax*2], cx
  00168	0f b7 04 4b	 movzx	 eax, WORD PTR [ebx+ecx*2]
  0016c	66 ff 44 45 80	 inc	 WORD PTR _offs$[ebp+eax*2]
$LN20@inflate_ta:

; 144  : 
; 145  :     /* sort symbols by length, by symbol order within each length */
; 146  :     for (sym = 0; sym < codes; sym++)

  00171	41		 inc	 ecx
  00172	3b ca		 cmp	 ecx, edx
  00174	72 e0		 jb	 SHORT $LL22@inflate_ta
  00176	8b 5d ec	 mov	 ebx, DWORD PTR _len$2$[ebp]
$LN21@inflate_ta:

; 148  : 
; 149  :     /*
; 150  :        Create and fill in decoding tables.  In this loop, the table being
; 151  :        filled is at next and has curr index bits.  The code being used is huff
; 152  :        with length len.  That code is converted to an index by dropping drop
; 153  :        bits off of the bottom.  For codes where len is less than drop + curr,
; 154  :        those top drop + curr - len bits are incremented through all values to
; 155  :        fill the table with replicated entries.
; 156  : 
; 157  :        root is the number of index bits for the root table.  When len exceeds
; 158  :        root, sub-tables are created pointed to by the root entry with an index
; 159  :        of the low root bits of huff.  This is saved in low to check for when a
; 160  :        new sub-table should be started.  drop is zero when the root table is
; 161  :        being filled, and drop is root when sub-tables are being filled.
; 162  : 
; 163  :        When a new sub-table is needed, it is necessary to look ahead in the
; 164  :        code lengths to determine what size sub-table is needed.  The length
; 165  :        counts are used for this, and so count[] is decremented as codes are
; 166  :        entered in the tables.
; 167  : 
; 168  :        used keeps track of how many table entries have been allocated from the
; 169  :        provided *table space.  It is checked for LENS and DIST tables against
; 170  :        the constants ENOUGH_LENS and ENOUGH_DISTS to guard against changes in
; 171  :        the initial root table size constants.  See the comments in inftrees.h
; 172  :        for more information.
; 173  : 
; 174  :        sym increments through all symbols, and the loop terminates when
; 175  :        all codes of length max, i.e. all codes, have been processed.  This
; 176  :        routine permits incomplete codes, so another loop after this one fills
; 177  :        in the rest of the decoding tables with invalid code markers.
; 178  :      */
; 179  : 
; 180  :     /* set up for code type */
; 181  :     switch (type) {

  00179	8b 45 f0	 mov	 eax, DWORD PTR _type$1$[ebp]
  0017c	83 e8 00	 sub	 eax, 0
  0017f	74 3f		 je	 SHORT $LN44@inflate_ta
  00181	83 e8 01	 sub	 eax, 1
  00184	74 16		 je	 SHORT $LN45@inflate_ta

; 193  :     default:            /* DISTS */
; 194  :         base = dbase;
; 195  :         extra = dext;
; 196  :         end = -1;

  00186	83 c8 ff	 or	 eax, -1
  00189	c7 45 dc 00 00
	00 00		 mov	 DWORD PTR _base$1$[ebp], OFFSET ?dbase@?1??inflate_table@@9@9
  00190	c7 45 e0 00 00
	00 00		 mov	 DWORD PTR _extra$1$[ebp], OFFSET ?dext@?1??inflate_table@@9@9
  00197	89 45 e4	 mov	 DWORD PTR _end$1$[ebp], eax
  0019a	eb 31		 jmp	 SHORT $LN23@inflate_ta
$LN45@inflate_ta:

; 185  :         break;
; 186  :     case LENS:
; 187  :         base = lbase;
; 188  :         base -= 257;

  0019c	b8 00 00 00 00	 mov	 eax, OFFSET ?lbase@?1??inflate_table@@9@9
  001a1	2d 02 02 00 00	 sub	 eax, 514		; 00000202H
  001a6	89 45 dc	 mov	 DWORD PTR _base$1$[ebp], eax

; 189  :         extra = lext;
; 190  :         extra -= 257;

  001a9	b8 00 00 00 00	 mov	 eax, OFFSET ?lext@?1??inflate_table@@9@9
  001ae	2d 02 02 00 00	 sub	 eax, 514		; 00000202H
  001b3	89 45 e0	 mov	 DWORD PTR _extra$1$[ebp], eax

; 191  :         end = 256;

  001b6	b8 00 01 00 00	 mov	 eax, 256		; 00000100H
  001bb	89 45 e4	 mov	 DWORD PTR _end$1$[ebp], eax

; 192  :         break;

  001be	eb 0d		 jmp	 SHORT $LN23@inflate_ta
$LN44@inflate_ta:

; 182  :     case CODES:
; 183  :         base = extra = work;    /* dummy value--not used */

  001c0	89 75 e0	 mov	 DWORD PTR _extra$1$[ebp], esi
  001c3	89 75 dc	 mov	 DWORD PTR _base$1$[ebp], esi

; 184  :         end = 19;

  001c6	c7 45 e4 13 00
	00 00		 mov	 DWORD PTR _end$1$[ebp], 19 ; 00000013H
$LN23@inflate_ta:

; 197  :     }
; 198  : 
; 199  :     /* initialize state for loop */
; 200  :     huff = 0;                   /* starting code */
; 201  :     sym = 0;                    /* starting code symbol */
; 202  :     len = min;                  /* starting code length */
; 203  :     next = *table;              /* current table to fill in */

  001cd	8b 4d 0c	 mov	 ecx, DWORD PTR _table$[ebp]

; 204  :     curr = root;                /* current table index bits */
; 205  :     drop = 0;                   /* current bits to drop from code for index */
; 206  :     low = (unsigned)(-1);       /* trigger new sub-table when len > root */
; 207  :     used = 1U << root;          /* use root table entries */

  001d0	ba 01 00 00 00	 mov	 edx, 1
  001d5	c7 45 f4 00 00
	00 00		 mov	 DWORD PTR _huff$1$[ebp], 0
  001dc	c7 45 fc 00 00
	00 00		 mov	 DWORD PTR _drop$1$[ebp], 0
  001e3	c7 45 cc ff ff
	ff ff		 mov	 DWORD PTR _low$1$[ebp], -1
  001ea	8b 01		 mov	 eax, DWORD PTR [ecx]
  001ec	8b 4d e8	 mov	 ecx, DWORD PTR _root$3$[ebp]
  001ef	d3 e2		 shl	 edx, cl
  001f1	89 45 f8	 mov	 DWORD PTR _next$1$[ebp], eax
  001f4	8b c2		 mov	 eax, edx
  001f6	89 55 d4	 mov	 DWORD PTR tv1502[ebp], edx
  001f9	89 45 d0	 mov	 DWORD PTR _used$1$[ebp], eax

; 208  :     mask = used - 1;            /* mask for comparing low */

  001fc	8d 48 ff	 lea	 ecx, DWORD PTR [eax-1]
  001ff	89 4d c4	 mov	 DWORD PTR _mask$1$[ebp], ecx

; 209  : 
; 210  :     /* check available table space */
; 211  :     if ((type == LENS && used > ENOUGH_LENS) ||

  00202	8b 4d f0	 mov	 ecx, DWORD PTR _type$1$[ebp]
  00205	83 f9 01	 cmp	 ecx, 1
  00208	75 09		 jne	 SHORT $LN49@inflate_ta
  0020a	3d 54 03 00 00	 cmp	 eax, 852		; 00000354H
  0020f	77 0e		 ja	 SHORT $LN48@inflate_ta
  00211	eb 25		 jmp	 SHORT $LL25@inflate_ta
$LN49@inflate_ta:
  00213	83 f9 02	 cmp	 ecx, 2
  00216	75 20		 jne	 SHORT $LL25@inflate_ta
  00218	3d 50 02 00 00	 cmp	 eax, 592		; 00000250H
  0021d	76 19		 jbe	 SHORT $LL25@inflate_ta
$LN48@inflate_ta:
  0021f	5f		 pop	 edi
  00220	5e		 pop	 esi

; 212  :         (type == DISTS && used > ENOUGH_DISTS))
; 213  :         return 1;

  00221	b8 01 00 00 00	 mov	 eax, 1
  00226	5b		 pop	 ebx

; 306  : }

  00227	8b e5		 mov	 esp, ebp
  00229	5d		 pop	 ebp
  0022a	c3		 ret	 0
  0022b	0f 1f 44 00 00	 npad	 5
$LL136@inflate_ta:
  00230	8b 55 d4	 mov	 edx, DWORD PTR tv1502[ebp]
  00233	eb 03		 jmp	 SHORT $LL25@inflate_ta
$LN137@inflate_ta:
  00235	8b 75 14	 mov	 esi, DWORD PTR _work$[ebp]
$LL25@inflate_ta:

; 214  : 
; 215  :     /* process all codes and make table entries */
; 216  :     for (;;) {
; 217  :         /* create table entry */
; 218  :         here.bits = (unsigned char)(len - drop);

  00238	8a c3		 mov	 al, bl
  0023a	2a 45 fc	 sub	 al, BYTE PTR _drop$1$[ebp]
  0023d	88 45 09	 mov	 BYTE PTR _here$[ebp+1], al

; 219  :         if ((int)(work[sym]) < end) {

  00240	0f b7 06	 movzx	 eax, WORD PTR [esi]
  00243	8b 75 e4	 mov	 esi, DWORD PTR _end$1$[ebp]
  00246	8b c8		 mov	 ecx, eax
  00248	3b ce		 cmp	 ecx, esi
  0024a	7d 06		 jge	 SHORT $LN143@inflate_ta

; 220  :             here.op = (unsigned char)0;

  0024c	c6 45 08 00	 mov	 BYTE PTR _here$[ebp], 0

; 221  :             here.val = work[sym];
; 222  :         }

  00250	eb 1a		 jmp	 SHORT $LN144@inflate_ta
$LN143@inflate_ta:

; 223  :         else if ((int)(work[sym]) > end) {

  00252	7e 12		 jle	 SHORT $LN52@inflate_ta

; 224  :             here.op = (unsigned char)(extra[work[sym]]);

  00254	8b 45 e0	 mov	 eax, DWORD PTR _extra$1$[ebp]
  00257	8a 04 48	 mov	 al, BYTE PTR [eax+ecx*2]
  0025a	88 45 08	 mov	 BYTE PTR _here$[ebp], al

; 225  :             here.val = base[work[sym]];

  0025d	8b 45 dc	 mov	 eax, DWORD PTR _base$1$[ebp]
  00260	66 8b 04 48	 mov	 ax, WORD PTR [eax+ecx*2]

; 226  :         }

  00264	eb 06		 jmp	 SHORT $LN144@inflate_ta
$LN52@inflate_ta:

; 227  :         else {
; 228  :             here.op = (unsigned char)(32 + 64);         /* end of block */

  00266	c6 45 08 60	 mov	 BYTE PTR _here$[ebp], 96 ; 00000060H

; 229  :             here.val = 0;

  0026a	33 c0		 xor	 eax, eax
$LN144@inflate_ta:

; 230  :         }
; 231  : 
; 232  :         /* replicate for those indices with low len bits equal to huff */
; 233  :         incr = 1U << (len - drop);

  0026c	8b cb		 mov	 ecx, ebx
  0026e	66 89 45 0a	 mov	 WORD PTR _here$[ebp+2], ax
  00272	2b 4d fc	 sub	 ecx, DWORD PTR _drop$1$[ebp]
  00275	be 01 00 00 00	 mov	 esi, 1
  0027a	d3 e6		 shl	 esi, cl
  0027c	8b 4d fc	 mov	 ecx, DWORD PTR _drop$1$[ebp]

; 234  :         fill = 1U << curr;
; 235  :         min = fill;                 /* save offset to next table */

  0027f	89 55 c0	 mov	 DWORD PTR _min$2$[ebp], edx
  00282	8d 04 b5 00 00
	00 00		 lea	 eax, DWORD PTR [esi*4]
  00289	89 45 c8	 mov	 DWORD PTR tv1495[ebp], eax
  0028c	8b 45 f4	 mov	 eax, DWORD PTR _huff$1$[ebp]
  0028f	d3 e8		 shr	 eax, cl
  00291	8b 4d f8	 mov	 ecx, DWORD PTR _next$1$[ebp]
  00294	03 c2		 add	 eax, edx
  00296	8d 0c 81	 lea	 ecx, DWORD PTR [ecx+eax*4]
  00299	8b 45 08	 mov	 eax, DWORD PTR _here$[ebp]
  0029c	0f 1f 40 00	 npad	 4
$LL30@inflate_ta:

; 236  :         do {
; 237  :             fill -= incr;

  002a0	2b 4d c8	 sub	 ecx, DWORD PTR tv1495[ebp]

; 238  :             next[(huff >> drop) + fill] = here;

  002a3	89 01		 mov	 DWORD PTR [ecx], eax
  002a5	2b d6		 sub	 edx, esi

; 239  :         } while (fill != 0);

  002a7	75 f7		 jne	 SHORT $LL30@inflate_ta

; 240  : 
; 241  :         /* backwards increment the len-bit code huff */
; 242  :         incr = 1U << (len - 1);

  002a9	8d 4b ff	 lea	 ecx, DWORD PTR [ebx-1]
  002ac	ba 01 00 00 00	 mov	 edx, 1
  002b1	d3 e2		 shl	 edx, cl

; 243  :         while (huff & incr)

  002b3	8b 4d f4	 mov	 ecx, DWORD PTR _huff$1$[ebp]
  002b6	85 d1		 test	 edx, ecx
  002b8	74 0c		 je	 SHORT $LN32@inflate_ta
  002ba	66 0f 1f 44 00
	00		 npad	 6
$LL31@inflate_ta:

; 244  :             incr >>= 1;

  002c0	d1 ea		 shr	 edx, 1
  002c2	85 d1		 test	 edx, ecx
  002c4	75 fa		 jne	 SHORT $LL31@inflate_ta
$LN32@inflate_ta:

; 245  :         if (incr != 0) {

  002c6	85 d2		 test	 edx, edx
  002c8	74 09		 je	 SHORT $LN54@inflate_ta

; 246  :             huff &= incr - 1;

  002ca	8d 42 ff	 lea	 eax, DWORD PTR [edx-1]
  002cd	23 c1		 and	 eax, ecx

; 247  :             huff += incr;

  002cf	03 d0		 add	 edx, eax

; 248  :         }

  002d1	eb 02		 jmp	 SHORT $LN145@inflate_ta
$LN54@inflate_ta:

; 249  :         else
; 250  :             huff = 0;

  002d3	33 d2		 xor	 edx, edx
$LN145@inflate_ta:

; 251  : 
; 252  :         /* go to next symbol, update count, len */
; 253  :         sym++;

  002d5	8b 45 14	 mov	 eax, DWORD PTR _work$[ebp]

; 254  :         if (--(count[len]) == 0) {

  002d8	b9 ff ff 00 00	 mov	 ecx, 65535		; 0000ffffH
  002dd	83 c0 02	 add	 eax, 2
  002e0	89 55 f4	 mov	 DWORD PTR _huff$1$[ebp], edx
  002e3	66 01 4c 5d a0	 add	 WORD PTR _count$[ebp+ebx*2], cx
  002e8	89 45 14	 mov	 DWORD PTR _work$[ebp], eax
  002eb	75 15		 jne	 SHORT $LN56@inflate_ta

; 255  :             if (len == max) break;

  002ed	3b df		 cmp	 ebx, edi
  002ef	0f 84 d5 00 00
	00		 je	 $LN82@inflate_ta

; 256  :             len = lens[work[sym]];

  002f5	0f b7 00	 movzx	 eax, WORD PTR [eax]
  002f8	8b 4d d8	 mov	 ecx, DWORD PTR _lens$1$[ebp]
  002fb	0f b7 1c 41	 movzx	 ebx, WORD PTR [ecx+eax*2]
  002ff	89 5d ec	 mov	 DWORD PTR _len$2$[ebp], ebx
$LN56@inflate_ta:

; 257  :         }
; 258  : 
; 259  :         /* create new sub-table if needed */
; 260  :         if (len > root && (huff & mask) != low) {

  00302	8b 45 e8	 mov	 eax, DWORD PTR _root$3$[ebp]
  00305	8b 75 14	 mov	 esi, DWORD PTR _work$[ebp]
  00308	3b d8		 cmp	 ebx, eax
  0030a	0f 86 20 ff ff
	ff		 jbe	 $LL136@inflate_ta
  00310	8b 75 c4	 mov	 esi, DWORD PTR _mask$1$[ebp]
  00313	23 f2		 and	 esi, edx
  00315	8b 55 d4	 mov	 edx, DWORD PTR tv1502[ebp]
  00318	89 75 c8	 mov	 DWORD PTR tv1501[ebp], esi
  0031b	3b 75 cc	 cmp	 esi, DWORD PTR _low$1$[ebp]
  0031e	0f 84 11 ff ff
	ff		 je	 $LN137@inflate_ta

; 261  :             /* if first time, transition to sub-tables */
; 262  :             if (drop == 0)

  00324	8b 55 fc	 mov	 edx, DWORD PTR _drop$1$[ebp]
  00327	85 d2		 test	 edx, edx

; 263  :                 drop = root;
; 264  : 
; 265  :             /* increment past last table */
; 266  :             next += min;            /* here min is 1 << curr */

  00329	8b 4d f8	 mov	 ecx, DWORD PTR _next$1$[ebp]
  0032c	0f 44 d0	 cmove	 edx, eax
  0032f	8b 45 c0	 mov	 eax, DWORD PTR _min$2$[ebp]

; 267  : 
; 268  :             /* determine length of next table */
; 269  :             curr = len - drop;

  00332	2b da		 sub	 ebx, edx
  00334	89 55 fc	 mov	 DWORD PTR _drop$1$[ebp], edx

; 270  :             left = (int)(1 << curr);
; 271  :             while (curr + drop < max) {

  00337	03 d3		 add	 edx, ebx
  00339	8d 0c 81	 lea	 ecx, DWORD PTR [ecx+eax*4]
  0033c	b8 01 00 00 00	 mov	 eax, 1
  00341	89 4d f8	 mov	 DWORD PTR _next$1$[ebp], ecx
  00344	8b cb		 mov	 ecx, ebx
  00346	d3 e0		 shl	 eax, cl
  00348	3b d7		 cmp	 edx, edi
  0034a	73 1d		 jae	 SHORT $LN81@inflate_ta

; 263  :                 drop = root;
; 264  : 
; 265  :             /* increment past last table */
; 266  :             next += min;            /* here min is 1 << curr */

  0034c	8d 75 a0	 lea	 esi, DWORD PTR _count$[ebp]
  0034f	8d 34 56	 lea	 esi, DWORD PTR [esi+edx*2]
$LL33@inflate_ta:

; 272  :                 left -= count[curr + drop];

  00352	0f b7 0e	 movzx	 ecx, WORD PTR [esi]
  00355	2b c1		 sub	 eax, ecx

; 273  :                 if (left <= 0) break;

  00357	85 c0		 test	 eax, eax
  00359	7e 0b		 jle	 SHORT $LN135@inflate_ta

; 274  :                 curr++;

  0035b	42		 inc	 edx
  0035c	43		 inc	 ebx
  0035d	83 c6 02	 add	 esi, 2

; 275  :                 left <<= 1;

  00360	03 c0		 add	 eax, eax
  00362	3b d7		 cmp	 edx, edi
  00364	72 ec		 jb	 SHORT $LL33@inflate_ta
$LN135@inflate_ta:
  00366	8b 75 c8	 mov	 esi, DWORD PTR tv1501[ebp]
$LN81@inflate_ta:

; 276  :             }
; 277  : 
; 278  :             /* check for enough space */
; 279  :             used += 1U << curr;

  00369	8b 45 d0	 mov	 eax, DWORD PTR _used$1$[ebp]
  0036c	8b cb		 mov	 ecx, ebx
  0036e	ba 01 00 00 00	 mov	 edx, 1
  00373	d3 e2		 shl	 edx, cl

; 280  :             if ((type == LENS && used > ENOUGH_LENS) ||

  00375	8b 4d f0	 mov	 ecx, DWORD PTR _type$1$[ebp]
  00378	03 c2		 add	 eax, edx
  0037a	89 55 d4	 mov	 DWORD PTR tv1502[ebp], edx
  0037d	89 45 d0	 mov	 DWORD PTR _used$1$[ebp], eax
  00380	83 f9 01	 cmp	 ecx, 1
  00383	75 07		 jne	 SHORT $LN63@inflate_ta
  00385	3d 54 03 00 00	 cmp	 eax, 852		; 00000354H
  0038a	eb 0a		 jmp	 SHORT $LN146@inflate_ta
$LN63@inflate_ta:
  0038c	83 f9 02	 cmp	 ecx, 2
  0038f	75 0b		 jne	 SHORT $LN61@inflate_ta
  00391	3d 50 02 00 00	 cmp	 eax, 592		; 00000250H
$LN146@inflate_ta:
  00396	0f 87 83 fe ff
	ff		 ja	 $LN48@inflate_ta
$LN61@inflate_ta:

; 281  :                 (type == DISTS && used > ENOUGH_DISTS))
; 282  :                 return 1;
; 283  : 
; 284  :             /* point entry in root table to sub-table */
; 285  :             low = huff & mask;
; 286  :             (*table)[low].op = (unsigned char)curr;

  0039c	8b 4d 0c	 mov	 ecx, DWORD PTR _table$[ebp]
  0039f	89 75 cc	 mov	 DWORD PTR _low$1$[ebp], esi
  003a2	8b 01		 mov	 eax, DWORD PTR [ecx]
  003a4	88 1c b0	 mov	 BYTE PTR [eax+esi*4], bl

; 287  :             (*table)[low].bits = (unsigned char)root;

  003a7	8b 01		 mov	 eax, DWORD PTR [ecx]
  003a9	8b 4d e8	 mov	 ecx, DWORD PTR _root$3$[ebp]

; 288  :             (*table)[low].val = (unsigned short)(next - *table);
; 289  :         }
; 290  :     }

  003ac	8b 5d ec	 mov	 ebx, DWORD PTR _len$2$[ebp]
  003af	88 4c b0 01	 mov	 BYTE PTR [eax+esi*4+1], cl
  003b3	8b 4d 0c	 mov	 ecx, DWORD PTR _table$[ebp]
  003b6	8b 45 f8	 mov	 eax, DWORD PTR _next$1$[ebp]
  003b9	8b 09		 mov	 ecx, DWORD PTR [ecx]
  003bb	2b c1		 sub	 eax, ecx
  003bd	c1 f8 02	 sar	 eax, 2
  003c0	66 89 44 b1 02	 mov	 WORD PTR [ecx+esi*4+2], ax
  003c5	e9 6b fe ff ff	 jmp	 $LN137@inflate_ta
$LN82@inflate_ta:

; 291  : 
; 292  :     /* fill in remaining table entry if code is incomplete (guaranteed to have
; 293  :        at most one remaining entry, since if the code is incomplete, the
; 294  :        maximum code length that was allowed to get this far is one bit) */
; 295  :     if (huff != 0) {

  003ca	85 d2		 test	 edx, edx
  003cc	74 19		 je	 SHORT $LN64@inflate_ta

; 296  :         here.op = (unsigned char)64;            /* invalid code marker */
; 297  :         here.bits = (unsigned char)(len - drop);

  003ce	2a 5d fc	 sub	 bl, BYTE PTR _drop$1$[ebp]

; 298  :         here.val = (unsigned short)0;

  003d1	33 c0		 xor	 eax, eax

; 299  :         next[huff] = here;

  003d3	8b 4d f8	 mov	 ecx, DWORD PTR _next$1$[ebp]
  003d6	c6 45 08 40	 mov	 BYTE PTR _here$[ebp], 64 ; 00000040H
  003da	88 5d 09	 mov	 BYTE PTR _here$[ebp+1], bl
  003dd	66 89 45 0a	 mov	 WORD PTR _here$[ebp+2], ax
  003e1	8b 45 08	 mov	 eax, DWORD PTR _here$[ebp]
  003e4	89 04 91	 mov	 DWORD PTR [ecx+edx*4], eax
$LN64@inflate_ta:

; 300  :     }
; 301  : 
; 302  :     /* set return parameters */
; 303  :     *table += used;

  003e7	8b 4d 0c	 mov	 ecx, DWORD PTR _table$[ebp]
  003ea	8b 45 d0	 mov	 eax, DWORD PTR _used$1$[ebp]
  003ed	c1 e0 02	 shl	 eax, 2
  003f0	5f		 pop	 edi
  003f1	01 01		 add	 DWORD PTR [ecx], eax

; 304  :     *bits = root;

  003f3	8b 4d 10	 mov	 ecx, DWORD PTR _bits$[ebp]
  003f6	8b 45 e8	 mov	 eax, DWORD PTR _root$3$[ebp]
  003f9	5e		 pop	 esi
  003fa	5b		 pop	 ebx
  003fb	89 01		 mov	 DWORD PTR [ecx], eax

; 305  :     return 0;

  003fd	33 c0		 xor	 eax, eax

; 306  : }

  003ff	8b e5		 mov	 esp, ebp
  00401	5d		 pop	 ebp
  00402	c3		 ret	 0
$LN80@inflate_ta:
  00403	5f		 pop	 edi
  00404	5e		 pop	 esi

; 135  :         if (left < 0) return -1;        /* over-subscribed */

  00405	83 c8 ff	 or	 eax, -1
  00408	5b		 pop	 ebx

; 306  : }

  00409	8b e5		 mov	 esp, ebp
  0040b	5d		 pop	 ebp
  0040c	c3		 ret	 0
_inflate_table ENDP
_TEXT	ENDS
END
