; Listing generated by Microsoft (R) Optimizing Compiler Version 19.00.23506.0 

	TITLE	d:\downloads\tgl-master\tgl-master\zlib\contrib\minizip\iowin32.c
	.686P
	.XMM
	include listing.inc
	.model	flat

INCLUDELIB OLDNAMES

EXTRN	__imp__SetFilePointerEx@20:PROC
EXTRN	__imp__CloseHandle@4:PROC
EXTRN	__imp__GetLastError@0:PROC
EXTRN	__imp__MultiByteToWideChar@24:PROC
EXTRN	__imp__CreateFile2@20:PROC
EXTRN	__imp__WriteFile@20:PROC
EXTRN	__imp__ReadFile@20:PROC
PUBLIC	_fill_win32_filefunc64W
PUBLIC	_fill_win32_filefunc64A
PUBLIC	_fill_win32_filefunc64
PUBLIC	_fill_win32_filefunc
PUBLIC	_win32_error_file_func
PUBLIC	_win32_close_file_func
PUBLIC	_win32_seek64_file_func
PUBLIC	_win32_seek_file_func
PUBLIC	_win32_tell64_file_func
PUBLIC	_win32_tell_file_func
PUBLIC	_win32_write_file_func
PUBLIC	_win32_read_file_func
PUBLIC	_win32_open_file_func
PUBLIC	_win32_open64_file_funcW
PUBLIC	_win32_open64_file_funcA
PUBLIC	_win32_open64_file_func
; Function compile flags: /Ogtp
; File d:\downloads\tgl-master\tgl-master\zlib\contrib\minizip\iowin32.c
;	COMDAT _win32_translate_open_mode
_TEXT	SEGMENT
_lpdwCreationDisposition$ = 8				; size = 4
_lpdwShareMode$ = 12					; size = 4
_lpdwFlagsAndAttributes$ = 16				; size = 4
_win32_translate_open_mode PROC				; COMDAT
; _mode$ = ecx
; _lpdwDesiredAccess$ = edx

; 55   : {

  00000	55		 push	 ebp
  00001	8b ec		 mov	 ebp, esp

; 56   :     *lpdwDesiredAccess = *lpdwShareMode = *lpdwFlagsAndAttributes = *lpdwCreationDisposition = 0;

  00003	8b 45 10	 mov	 eax, DWORD PTR _lpdwFlagsAndAttributes$[ebp]
  00006	56		 push	 esi
  00007	8b 75 08	 mov	 esi, DWORD PTR _lpdwCreationDisposition$[ebp]
  0000a	57		 push	 edi
  0000b	8b 7d 0c	 mov	 edi, DWORD PTR _lpdwShareMode$[ebp]
  0000e	c7 00 00 00 00
	00		 mov	 DWORD PTR [eax], 0

; 57   : 
; 58   :     if ((mode & ZLIB_FILEFUNC_MODE_READWRITEFILTER)==ZLIB_FILEFUNC_MODE_READ)

  00014	8b c1		 mov	 eax, ecx
  00016	24 03		 and	 al, 3
  00018	c7 06 00 00 00
	00		 mov	 DWORD PTR [esi], 0
  0001e	c7 02 00 00 00
	00		 mov	 DWORD PTR [edx], 0
  00024	c7 07 00 00 00
	00		 mov	 DWORD PTR [edi], 0
  0002a	3c 01		 cmp	 al, 1
  0002c	75 16		 jne	 SHORT $LN2@win32_tran

; 59   :     {
; 60   :         *lpdwDesiredAccess = GENERIC_READ;
; 61   :         *lpdwCreationDisposition = OPEN_EXISTING;
; 62   :         *lpdwShareMode = FILE_SHARE_READ;

  0002e	c7 07 01 00 00
	00		 mov	 DWORD PTR [edi], 1
  00034	5f		 pop	 edi
  00035	c7 06 03 00 00
	00		 mov	 DWORD PTR [esi], 3
  0003b	c7 02 00 00 00
	80		 mov	 DWORD PTR [edx], -2147483648 ; 80000000H
  00041	5e		 pop	 esi

; 73   :     }
; 74   : }

  00042	5d		 pop	 ebp
  00043	c3		 ret	 0
$LN2@win32_tran:

; 63   :     }
; 64   :     else if (mode & ZLIB_FILEFUNC_MODE_EXISTING)

  00044	f6 c1 04	 test	 cl, 4
  00047	74 10		 je	 SHORT $LN4@win32_tran

; 65   :     {
; 66   :         *lpdwDesiredAccess = GENERIC_WRITE | GENERIC_READ;
; 67   :         *lpdwCreationDisposition = OPEN_EXISTING;

  00049	5f		 pop	 edi
  0004a	c7 06 03 00 00
	00		 mov	 DWORD PTR [esi], 3

; 70   :     {
; 71   :         *lpdwDesiredAccess = GENERIC_WRITE | GENERIC_READ;

  00050	c7 02 00 00 00
	c0		 mov	 DWORD PTR [edx], -1073741824 ; c0000000H
  00056	5e		 pop	 esi

; 73   :     }
; 74   : }

  00057	5d		 pop	 ebp
  00058	c3		 ret	 0
$LN4@win32_tran:

; 68   :     }
; 69   :     else if (mode & ZLIB_FILEFUNC_MODE_CREATE)

  00059	f6 c1 08	 test	 cl, 8
  0005c	74 0c		 je	 SHORT $LN6@win32_tran

; 72   :         *lpdwCreationDisposition = CREATE_ALWAYS;

  0005e	c7 06 02 00 00
	00		 mov	 DWORD PTR [esi], 2
  00064	c7 02 00 00 00
	c0		 mov	 DWORD PTR [edx], -1073741824 ; c0000000H
$LN6@win32_tran:
  0006a	5f		 pop	 edi
  0006b	5e		 pop	 esi

; 73   :     }
; 74   : }

  0006c	5d		 pop	 ebp
  0006d	c3		 ret	 0
_win32_translate_open_mode ENDP
_TEXT	ENDS
; Function compile flags: /Ogtp
; File d:\downloads\tgl-master\tgl-master\zlib\contrib\minizip\iowin32.c
;	COMDAT _win32_build_iowin
_TEXT	SEGMENT
_win32_build_iowin PROC					; COMDAT
; _hFile$ = ecx

; 77   : {

  00000	56		 push	 esi
  00001	8b f1		 mov	 esi, ecx

; 78   :     voidpf ret=NULL;
; 79   : 
; 80   :     if ((hFile != NULL) && (hFile != INVALID_HANDLE_VALUE))

  00003	85 f6		 test	 esi, esi
  00005	74 2f		 je	 SHORT $LN7@win32_buil
  00007	83 fe ff	 cmp	 esi, -1
  0000a	74 2a		 je	 SHORT $LN7@win32_buil

; 81   :     {
; 82   :         WIN32FILE_IOWIN w32fiow;
; 83   :         w32fiow.hf = hFile;
; 84   :         w32fiow.error = 0;
; 85   :         ret = malloc(sizeof(WIN32FILE_IOWIN));

  0000c	57		 push	 edi
  0000d	6a 08		 push	 8
  0000f	ff 15 00 00 00
	00		 call	 DWORD PTR __imp__malloc
  00015	8b f8		 mov	 edi, eax
  00017	83 c4 04	 add	 esp, 4

; 86   : 
; 87   :         if (ret==NULL)

  0001a	85 ff		 test	 edi, edi
  0001c	75 0c		 jne	 SHORT $LN3@win32_buil

; 88   :             CloseHandle(hFile);

  0001e	56		 push	 esi
  0001f	ff 15 00 00 00
	00		 call	 DWORD PTR __imp__CloseHandle@4

; 91   :     }
; 92   :     return ret;

  00025	8b c7		 mov	 eax, edi
  00027	5f		 pop	 edi
  00028	5e		 pop	 esi

; 93   : }

  00029	c3		 ret	 0
$LN3@win32_buil:

; 89   :         else
; 90   :             *((WIN32FILE_IOWIN*)ret) = w32fiow;

  0002a	89 37		 mov	 DWORD PTR [edi], esi
  0002c	c7 47 04 00 00
	00 00		 mov	 DWORD PTR [edi+4], 0
  00033	5f		 pop	 edi
  00034	5e		 pop	 esi

; 93   : }

  00035	c3		 ret	 0
$LN7@win32_buil:

; 91   :     }
; 92   :     return ret;

  00036	33 c0		 xor	 eax, eax
  00038	5e		 pop	 esi

; 93   : }

  00039	c3		 ret	 0
_win32_build_iowin ENDP
_TEXT	ENDS
; Function compile flags: /Ogtp
; File d:\downloads\tgl-master\tgl-master\zlib\contrib\minizip\iowin32.c
;	COMDAT _win32_open64_file_func
_TEXT	SEGMENT
_filenameW$1 = -1564					; size = 1546
_dwFlagsAndAttributes$ = -16				; size = 4
_dwShareMode$ = -12					; size = 4
_dwCreationDisposition$ = -8				; size = 4
_dwDesiredAccess$ = -4					; size = 4
_opaque$ = 8						; size = 4
_filename$ = 12						; size = 4
_mode$ = 16						; size = 4
_win32_open64_file_func PROC				; COMDAT

; 96   : {

  00000	55		 push	 ebp
  00001	8b ec		 mov	 ebp, esp

; 97   :     const char* mode_fopen = NULL;
; 98   :     DWORD dwDesiredAccess,dwCreationDisposition,dwShareMode,dwFlagsAndAttributes ;
; 99   :     HANDLE hFile = NULL;
; 100  : 
; 101  :     win32_translate_open_mode(mode,&dwDesiredAccess,&dwCreationDisposition,&dwShareMode,&dwFlagsAndAttributes);

  00003	8b 4d 10	 mov	 ecx, DWORD PTR _mode$[ebp]
  00006	8d 45 f0	 lea	 eax, DWORD PTR _dwFlagsAndAttributes$[ebp]
  00009	81 ec 1c 06 00
	00		 sub	 esp, 1564		; 0000061cH
  0000f	8d 55 fc	 lea	 edx, DWORD PTR _dwDesiredAccess$[ebp]
  00012	57		 push	 edi
  00013	50		 push	 eax
  00014	8d 45 f4	 lea	 eax, DWORD PTR _dwShareMode$[ebp]
  00017	33 ff		 xor	 edi, edi
  00019	50		 push	 eax
  0001a	8d 45 f8	 lea	 eax, DWORD PTR _dwCreationDisposition$[ebp]
  0001d	50		 push	 eax
  0001e	e8 00 00 00 00	 call	 _win32_translate_open_mode

; 102  : 
; 103  : #ifdef IOWIN32_USING_WINRT_API
; 104  : #ifdef UNICODE
; 105  :     if ((filename!=NULL) && (dwDesiredAccess != 0))
; 106  :         hFile = CreateFile2((LPCTSTR)filename, dwDesiredAccess, dwShareMode, dwCreationDisposition, NULL);
; 107  : #else
; 108  :     if ((filename!=NULL) && (dwDesiredAccess != 0))

  00023	8b 45 0c	 mov	 eax, DWORD PTR _filename$[ebp]
  00026	83 c4 0c	 add	 esp, 12			; 0000000cH
  00029	85 c0		 test	 eax, eax
  0002b	74 35		 je	 SHORT $LN2@win32_open
  0002d	39 7d fc	 cmp	 DWORD PTR _dwDesiredAccess$[ebp], edi
  00030	74 30		 je	 SHORT $LN2@win32_open

; 109  :     {
; 110  :         WCHAR filenameW[FILENAME_MAX + 0x200 + 1];
; 111  :         MultiByteToWideChar(CP_ACP,0,(const char*)filename,-1,filenameW,FILENAME_MAX + 0x200);

  00032	68 04 03 00 00	 push	 772			; 00000304H
  00037	8d 8d e4 f9 ff
	ff		 lea	 ecx, DWORD PTR _filenameW$1[ebp]
  0003d	51		 push	 ecx
  0003e	6a ff		 push	 -1
  00040	50		 push	 eax
  00041	57		 push	 edi
  00042	57		 push	 edi
  00043	ff 15 00 00 00
	00		 call	 DWORD PTR __imp__MultiByteToWideChar@24

; 112  :         hFile = CreateFile2(filenameW, dwDesiredAccess, dwShareMode, dwCreationDisposition, NULL);

  00049	57		 push	 edi
  0004a	ff 75 f8	 push	 DWORD PTR _dwCreationDisposition$[ebp]
  0004d	8d 85 e4 f9 ff
	ff		 lea	 eax, DWORD PTR _filenameW$1[ebp]
  00053	ff 75 f4	 push	 DWORD PTR _dwShareMode$[ebp]
  00056	ff 75 fc	 push	 DWORD PTR _dwDesiredAccess$[ebp]
  00059	50		 push	 eax
  0005a	ff 15 00 00 00
	00		 call	 DWORD PTR __imp__CreateFile2@20
  00060	8b f8		 mov	 edi, eax
$LN2@win32_open:

; 113  :     }
; 114  : #endif
; 115  : #else
; 116  :     if ((filename!=NULL) && (dwDesiredAccess != 0))
; 117  :         hFile = CreateFile((LPCTSTR)filename, dwDesiredAccess, dwShareMode, NULL, dwCreationDisposition, dwFlagsAndAttributes, NULL);
; 118  : #endif
; 119  : 
; 120  :     return win32_build_iowin(hFile);

  00062	8b cf		 mov	 ecx, edi
  00064	e8 00 00 00 00	 call	 _win32_build_iowin
  00069	5f		 pop	 edi

; 121  : }

  0006a	8b e5		 mov	 esp, ebp
  0006c	5d		 pop	 ebp
  0006d	c3		 ret	 0
_win32_open64_file_func ENDP
_TEXT	ENDS
; Function compile flags: /Ogtp
; File d:\downloads\tgl-master\tgl-master\zlib\contrib\minizip\iowin32.c
;	COMDAT _win32_open64_file_funcA
_TEXT	SEGMENT
_filenameW$1 = -1564					; size = 1546
_dwFlagsAndAttributes$ = -16				; size = 4
_dwShareMode$ = -12					; size = 4
_dwCreationDisposition$ = -8				; size = 4
_dwDesiredAccess$ = -4					; size = 4
_opaque$ = 8						; size = 4
_filename$ = 12						; size = 4
_mode$ = 16						; size = 4
_win32_open64_file_funcA PROC				; COMDAT

; 125  : {

  00000	55		 push	 ebp
  00001	8b ec		 mov	 ebp, esp

; 126  :     const char* mode_fopen = NULL;
; 127  :     DWORD dwDesiredAccess,dwCreationDisposition,dwShareMode,dwFlagsAndAttributes ;
; 128  :     HANDLE hFile = NULL;
; 129  : 
; 130  :     win32_translate_open_mode(mode,&dwDesiredAccess,&dwCreationDisposition,&dwShareMode,&dwFlagsAndAttributes);

  00003	8b 4d 10	 mov	 ecx, DWORD PTR _mode$[ebp]
  00006	8d 45 f0	 lea	 eax, DWORD PTR _dwFlagsAndAttributes$[ebp]
  00009	81 ec 1c 06 00
	00		 sub	 esp, 1564		; 0000061cH
  0000f	8d 55 fc	 lea	 edx, DWORD PTR _dwDesiredAccess$[ebp]
  00012	57		 push	 edi
  00013	50		 push	 eax
  00014	8d 45 f4	 lea	 eax, DWORD PTR _dwShareMode$[ebp]
  00017	33 ff		 xor	 edi, edi
  00019	50		 push	 eax
  0001a	8d 45 f8	 lea	 eax, DWORD PTR _dwCreationDisposition$[ebp]
  0001d	50		 push	 eax
  0001e	e8 00 00 00 00	 call	 _win32_translate_open_mode

; 131  : 
; 132  : #ifdef IOWIN32_USING_WINRT_API
; 133  :     if ((filename!=NULL) && (dwDesiredAccess != 0))

  00023	8b 45 0c	 mov	 eax, DWORD PTR _filename$[ebp]
  00026	83 c4 0c	 add	 esp, 12			; 0000000cH
  00029	85 c0		 test	 eax, eax
  0002b	74 35		 je	 SHORT $LN2@win32_open
  0002d	39 7d fc	 cmp	 DWORD PTR _dwDesiredAccess$[ebp], edi
  00030	74 30		 je	 SHORT $LN2@win32_open

; 134  :     {
; 135  :         WCHAR filenameW[FILENAME_MAX + 0x200 + 1];
; 136  :         MultiByteToWideChar(CP_ACP,0,(const char*)filename,-1,filenameW,FILENAME_MAX + 0x200);

  00032	68 04 03 00 00	 push	 772			; 00000304H
  00037	8d 8d e4 f9 ff
	ff		 lea	 ecx, DWORD PTR _filenameW$1[ebp]
  0003d	51		 push	 ecx
  0003e	6a ff		 push	 -1
  00040	50		 push	 eax
  00041	57		 push	 edi
  00042	57		 push	 edi
  00043	ff 15 00 00 00
	00		 call	 DWORD PTR __imp__MultiByteToWideChar@24

; 137  :         hFile = CreateFile2(filenameW, dwDesiredAccess, dwShareMode, dwCreationDisposition, NULL);

  00049	57		 push	 edi
  0004a	ff 75 f8	 push	 DWORD PTR _dwCreationDisposition$[ebp]
  0004d	8d 85 e4 f9 ff
	ff		 lea	 eax, DWORD PTR _filenameW$1[ebp]
  00053	ff 75 f4	 push	 DWORD PTR _dwShareMode$[ebp]
  00056	ff 75 fc	 push	 DWORD PTR _dwDesiredAccess$[ebp]
  00059	50		 push	 eax
  0005a	ff 15 00 00 00
	00		 call	 DWORD PTR __imp__CreateFile2@20
  00060	8b f8		 mov	 edi, eax
$LN2@win32_open:

; 138  :     }
; 139  : #else
; 140  :     if ((filename!=NULL) && (dwDesiredAccess != 0))
; 141  :         hFile = CreateFileA((LPCSTR)filename, dwDesiredAccess, dwShareMode, NULL, dwCreationDisposition, dwFlagsAndAttributes, NULL);
; 142  : #endif
; 143  : 
; 144  :     return win32_build_iowin(hFile);

  00062	8b cf		 mov	 ecx, edi
  00064	e8 00 00 00 00	 call	 _win32_build_iowin
  00069	5f		 pop	 edi

; 145  : }

  0006a	8b e5		 mov	 esp, ebp
  0006c	5d		 pop	 ebp
  0006d	c3		 ret	 0
_win32_open64_file_funcA ENDP
_TEXT	ENDS
; Function compile flags: /Ogtp
; File d:\downloads\tgl-master\tgl-master\zlib\contrib\minizip\iowin32.c
;	COMDAT _win32_open64_file_funcW
_TEXT	SEGMENT
_dwFlagsAndAttributes$ = -16				; size = 4
_dwShareMode$ = -12					; size = 4
_dwCreationDisposition$ = -8				; size = 4
_dwDesiredAccess$ = -4					; size = 4
_opaque$ = 8						; size = 4
_filename$ = 12						; size = 4
_mode$ = 16						; size = 4
_win32_open64_file_funcW PROC				; COMDAT

; 149  : {

  00000	55		 push	 ebp
  00001	8b ec		 mov	 ebp, esp

; 150  :     const char* mode_fopen = NULL;
; 151  :     DWORD dwDesiredAccess,dwCreationDisposition,dwShareMode,dwFlagsAndAttributes ;
; 152  :     HANDLE hFile = NULL;
; 153  : 
; 154  :     win32_translate_open_mode(mode,&dwDesiredAccess,&dwCreationDisposition,&dwShareMode,&dwFlagsAndAttributes);

  00003	8b 4d 10	 mov	 ecx, DWORD PTR _mode$[ebp]
  00006	8d 45 f0	 lea	 eax, DWORD PTR _dwFlagsAndAttributes$[ebp]
  00009	83 ec 10	 sub	 esp, 16			; 00000010H
  0000c	8d 55 fc	 lea	 edx, DWORD PTR _dwDesiredAccess$[ebp]
  0000f	56		 push	 esi
  00010	50		 push	 eax
  00011	8d 45 f4	 lea	 eax, DWORD PTR _dwShareMode$[ebp]
  00014	33 f6		 xor	 esi, esi
  00016	50		 push	 eax
  00017	8d 45 f8	 lea	 eax, DWORD PTR _dwCreationDisposition$[ebp]
  0001a	50		 push	 eax
  0001b	e8 00 00 00 00	 call	 _win32_translate_open_mode

; 155  : 
; 156  : #ifdef IOWIN32_USING_WINRT_API
; 157  :     if ((filename!=NULL) && (dwDesiredAccess != 0))

  00020	8b 4d 0c	 mov	 ecx, DWORD PTR _filename$[ebp]
  00023	83 c4 0c	 add	 esp, 12			; 0000000cH
  00026	85 c9		 test	 ecx, ecx
  00028	74 18		 je	 SHORT $LN2@win32_open
  0002a	8b 45 fc	 mov	 eax, DWORD PTR _dwDesiredAccess$[ebp]
  0002d	85 c0		 test	 eax, eax
  0002f	74 11		 je	 SHORT $LN2@win32_open

; 158  :         hFile = CreateFile2((LPCWSTR)filename, dwDesiredAccess, dwShareMode, dwCreationDisposition,NULL);

  00031	56		 push	 esi
  00032	ff 75 f8	 push	 DWORD PTR _dwCreationDisposition$[ebp]
  00035	ff 75 f4	 push	 DWORD PTR _dwShareMode$[ebp]
  00038	50		 push	 eax
  00039	51		 push	 ecx
  0003a	ff 15 00 00 00
	00		 call	 DWORD PTR __imp__CreateFile2@20
  00040	8b f0		 mov	 esi, eax
$LN2@win32_open:

; 159  : #else
; 160  :     if ((filename!=NULL) && (dwDesiredAccess != 0))
; 161  :         hFile = CreateFileW((LPCWSTR)filename, dwDesiredAccess, dwShareMode, NULL, dwCreationDisposition, dwFlagsAndAttributes, NULL);
; 162  : #endif
; 163  : 
; 164  :     return win32_build_iowin(hFile);

  00042	8b ce		 mov	 ecx, esi
  00044	e8 00 00 00 00	 call	 _win32_build_iowin
  00049	5e		 pop	 esi

; 165  : }

  0004a	8b e5		 mov	 esp, ebp
  0004c	5d		 pop	 ebp
  0004d	c3		 ret	 0
_win32_open64_file_funcW ENDP
_TEXT	ENDS
; Function compile flags: /Ogtp
; File d:\downloads\tgl-master\tgl-master\zlib\contrib\minizip\iowin32.c
;	COMDAT _win32_open_file_func
_TEXT	SEGMENT
_filenameW$1 = -1564					; size = 1546
_dwFlagsAndAttributes$ = -16				; size = 4
_dwShareMode$ = -12					; size = 4
_dwCreationDisposition$ = -8				; size = 4
_dwDesiredAccess$ = -4					; size = 4
_opaque$ = 8						; size = 4
_filename$ = 12						; size = 4
_mode$ = 16						; size = 4
_win32_open_file_func PROC				; COMDAT

; 169  : {

  00000	55		 push	 ebp
  00001	8b ec		 mov	 ebp, esp

; 170  :     const char* mode_fopen = NULL;
; 171  :     DWORD dwDesiredAccess,dwCreationDisposition,dwShareMode,dwFlagsAndAttributes ;
; 172  :     HANDLE hFile = NULL;
; 173  : 
; 174  :     win32_translate_open_mode(mode,&dwDesiredAccess,&dwCreationDisposition,&dwShareMode,&dwFlagsAndAttributes);

  00003	8b 4d 10	 mov	 ecx, DWORD PTR _mode$[ebp]
  00006	8d 45 f0	 lea	 eax, DWORD PTR _dwFlagsAndAttributes$[ebp]
  00009	81 ec 1c 06 00
	00		 sub	 esp, 1564		; 0000061cH
  0000f	8d 55 fc	 lea	 edx, DWORD PTR _dwDesiredAccess$[ebp]
  00012	57		 push	 edi
  00013	50		 push	 eax
  00014	8d 45 f4	 lea	 eax, DWORD PTR _dwShareMode$[ebp]
  00017	33 ff		 xor	 edi, edi
  00019	50		 push	 eax
  0001a	8d 45 f8	 lea	 eax, DWORD PTR _dwCreationDisposition$[ebp]
  0001d	50		 push	 eax
  0001e	e8 00 00 00 00	 call	 _win32_translate_open_mode

; 175  : 
; 176  : #ifdef IOWIN32_USING_WINRT_API
; 177  : #ifdef UNICODE
; 178  :     if ((filename!=NULL) && (dwDesiredAccess != 0))
; 179  :         hFile = CreateFile2((LPCTSTR)filename, dwDesiredAccess, dwShareMode, dwCreationDisposition, NULL);
; 180  : #else
; 181  :     if ((filename!=NULL) && (dwDesiredAccess != 0))

  00023	8b 45 0c	 mov	 eax, DWORD PTR _filename$[ebp]
  00026	83 c4 0c	 add	 esp, 12			; 0000000cH
  00029	85 c0		 test	 eax, eax
  0002b	74 35		 je	 SHORT $LN2@win32_open
  0002d	39 7d fc	 cmp	 DWORD PTR _dwDesiredAccess$[ebp], edi
  00030	74 30		 je	 SHORT $LN2@win32_open

; 182  :     {
; 183  :         WCHAR filenameW[FILENAME_MAX + 0x200 + 1];
; 184  :         MultiByteToWideChar(CP_ACP,0,(const char*)filename,-1,filenameW,FILENAME_MAX + 0x200);

  00032	68 04 03 00 00	 push	 772			; 00000304H
  00037	8d 8d e4 f9 ff
	ff		 lea	 ecx, DWORD PTR _filenameW$1[ebp]
  0003d	51		 push	 ecx
  0003e	6a ff		 push	 -1
  00040	50		 push	 eax
  00041	57		 push	 edi
  00042	57		 push	 edi
  00043	ff 15 00 00 00
	00		 call	 DWORD PTR __imp__MultiByteToWideChar@24

; 185  :         hFile = CreateFile2(filenameW, dwDesiredAccess, dwShareMode, dwCreationDisposition, NULL);

  00049	57		 push	 edi
  0004a	ff 75 f8	 push	 DWORD PTR _dwCreationDisposition$[ebp]
  0004d	8d 85 e4 f9 ff
	ff		 lea	 eax, DWORD PTR _filenameW$1[ebp]
  00053	ff 75 f4	 push	 DWORD PTR _dwShareMode$[ebp]
  00056	ff 75 fc	 push	 DWORD PTR _dwDesiredAccess$[ebp]
  00059	50		 push	 eax
  0005a	ff 15 00 00 00
	00		 call	 DWORD PTR __imp__CreateFile2@20
  00060	8b f8		 mov	 edi, eax
$LN2@win32_open:

; 186  :     }
; 187  : #endif
; 188  : #else
; 189  :     if ((filename!=NULL) && (dwDesiredAccess != 0))
; 190  :         hFile = CreateFile((LPCTSTR)filename, dwDesiredAccess, dwShareMode, NULL, dwCreationDisposition, dwFlagsAndAttributes, NULL);
; 191  : #endif
; 192  : 
; 193  :     return win32_build_iowin(hFile);

  00062	8b cf		 mov	 ecx, edi
  00064	e8 00 00 00 00	 call	 _win32_build_iowin
  00069	5f		 pop	 edi

; 194  : }

  0006a	8b e5		 mov	 esp, ebp
  0006c	5d		 pop	 ebp
  0006d	c3		 ret	 0
_win32_open_file_func ENDP
_TEXT	ENDS
; Function compile flags: /Ogtp
; File d:\downloads\tgl-master\tgl-master\zlib\contrib\minizip\iowin32.c
;	COMDAT _win32_read_file_func
_TEXT	SEGMENT
_ret$ = -4						; size = 4
_opaque$ = 8						; size = 4
_stream$ = 12						; size = 4
_buf$ = 16						; size = 4
_size$ = 20						; size = 4
_win32_read_file_func PROC				; COMDAT

; 198  : {

  00000	55		 push	 ebp
  00001	8b ec		 mov	 ebp, esp
  00003	51		 push	 ecx
  00004	56		 push	 esi

; 199  :     uLong ret=0;
; 200  :     HANDLE hFile = NULL;
; 201  :     if (stream!=NULL)

  00005	8b 75 0c	 mov	 esi, DWORD PTR _stream$[ebp]
  00008	c7 45 fc 00 00
	00 00		 mov	 DWORD PTR _ret$[ebp], 0
  0000f	85 f6		 test	 esi, esi
  00011	74 36		 je	 SHORT $LN9@win32_read

; 202  :         hFile = ((WIN32FILE_IOWIN*)stream) -> hf;

  00013	8b 06		 mov	 eax, DWORD PTR [esi]

; 203  : 
; 204  :     if (hFile != NULL)

  00015	85 c0		 test	 eax, eax
  00017	74 30		 je	 SHORT $LN9@win32_read

; 205  :     {
; 206  :         if (!ReadFile(hFile, buf, size, &ret, NULL))

  00019	6a 00		 push	 0
  0001b	8d 4d fc	 lea	 ecx, DWORD PTR _ret$[ebp]
  0001e	51		 push	 ecx
  0001f	ff 75 14	 push	 DWORD PTR _size$[ebp]
  00022	ff 75 10	 push	 DWORD PTR _buf$[ebp]
  00025	50		 push	 eax
  00026	ff 15 00 00 00
	00		 call	 DWORD PTR __imp__ReadFile@20
  0002c	85 c0		 test	 eax, eax
  0002e	75 11		 jne	 SHORT $LN7@win32_read

; 207  :         {
; 208  :             DWORD dwErr = GetLastError();

  00030	ff 15 00 00 00
	00		 call	 DWORD PTR __imp__GetLastError@0

; 209  :             if (dwErr == ERROR_HANDLE_EOF)

  00036	33 c9		 xor	 ecx, ecx
  00038	83 f8 26	 cmp	 eax, 38			; 00000026H
  0003b	0f 44 c1	 cmove	 eax, ecx

; 210  :                 dwErr = 0;
; 211  :             ((WIN32FILE_IOWIN*)stream) -> error=(int)dwErr;

  0003e	89 46 04	 mov	 DWORD PTR [esi+4], eax
$LN7@win32_read:

; 212  :         }
; 213  :     }
; 214  : 
; 215  :     return ret;

  00041	8b 45 fc	 mov	 eax, DWORD PTR _ret$[ebp]
  00044	5e		 pop	 esi

; 216  : }

  00045	8b e5		 mov	 esp, ebp
  00047	5d		 pop	 ebp
  00048	c3		 ret	 0
$LN9@win32_read:

; 212  :         }
; 213  :     }
; 214  : 
; 215  :     return ret;

  00049	33 c0		 xor	 eax, eax
  0004b	5e		 pop	 esi

; 216  : }

  0004c	8b e5		 mov	 esp, ebp
  0004e	5d		 pop	 ebp
  0004f	c3		 ret	 0
_win32_read_file_func ENDP
_TEXT	ENDS
; Function compile flags: /Ogtp
; File d:\downloads\tgl-master\tgl-master\zlib\contrib\minizip\iowin32.c
;	COMDAT _win32_write_file_func
_TEXT	SEGMENT
_ret$ = -4						; size = 4
_opaque$ = 8						; size = 4
_stream$ = 12						; size = 4
_buf$ = 16						; size = 4
_size$ = 20						; size = 4
_win32_write_file_func PROC				; COMDAT

; 220  : {

  00000	55		 push	 ebp
  00001	8b ec		 mov	 ebp, esp
  00003	51		 push	 ecx
  00004	56		 push	 esi

; 221  :     uLong ret=0;
; 222  :     HANDLE hFile = NULL;
; 223  :     if (stream!=NULL)

  00005	8b 75 0c	 mov	 esi, DWORD PTR _stream$[ebp]
  00008	c7 45 fc 00 00
	00 00		 mov	 DWORD PTR _ret$[ebp], 0
  0000f	85 f6		 test	 esi, esi
  00011	74 36		 je	 SHORT $LN9@win32_writ

; 224  :         hFile = ((WIN32FILE_IOWIN*)stream) -> hf;

  00013	8b 06		 mov	 eax, DWORD PTR [esi]

; 225  : 
; 226  :     if (hFile != NULL)

  00015	85 c0		 test	 eax, eax
  00017	74 30		 je	 SHORT $LN9@win32_writ

; 227  :     {
; 228  :         if (!WriteFile(hFile, buf, size, &ret, NULL))

  00019	6a 00		 push	 0
  0001b	8d 4d fc	 lea	 ecx, DWORD PTR _ret$[ebp]
  0001e	51		 push	 ecx
  0001f	ff 75 14	 push	 DWORD PTR _size$[ebp]
  00022	ff 75 10	 push	 DWORD PTR _buf$[ebp]
  00025	50		 push	 eax
  00026	ff 15 00 00 00
	00		 call	 DWORD PTR __imp__WriteFile@20
  0002c	85 c0		 test	 eax, eax
  0002e	75 11		 jne	 SHORT $LN7@win32_writ

; 229  :         {
; 230  :             DWORD dwErr = GetLastError();

  00030	ff 15 00 00 00
	00		 call	 DWORD PTR __imp__GetLastError@0

; 231  :             if (dwErr == ERROR_HANDLE_EOF)

  00036	33 c9		 xor	 ecx, ecx
  00038	83 f8 26	 cmp	 eax, 38			; 00000026H
  0003b	0f 44 c1	 cmove	 eax, ecx

; 232  :                 dwErr = 0;
; 233  :             ((WIN32FILE_IOWIN*)stream) -> error=(int)dwErr;

  0003e	89 46 04	 mov	 DWORD PTR [esi+4], eax
$LN7@win32_writ:

; 234  :         }
; 235  :     }
; 236  : 
; 237  :     return ret;

  00041	8b 45 fc	 mov	 eax, DWORD PTR _ret$[ebp]
  00044	5e		 pop	 esi

; 238  : }

  00045	8b e5		 mov	 esp, ebp
  00047	5d		 pop	 ebp
  00048	c3		 ret	 0
$LN9@win32_writ:

; 234  :         }
; 235  :     }
; 236  : 
; 237  :     return ret;

  00049	33 c0		 xor	 eax, eax
  0004b	5e		 pop	 esi

; 238  : }

  0004c	8b e5		 mov	 esp, ebp
  0004e	5d		 pop	 ebp
  0004f	c3		 ret	 0
_win32_write_file_func ENDP
_TEXT	ENDS
; Function compile flags: /Ogtp
; File d:\downloads\tgl-master\tgl-master\zlib\contrib\minizip\iowin32.c
;	COMDAT _MySetFilePointerEx
_TEXT	SEGMENT
_dwMoveMethod$ = 8					; size = 4
_pos$ = 12						; size = 8
_MySetFilePointerEx PROC				; COMDAT
; _hFile$ = ecx
; _newPos$ = edx

; 241  : {

  00000	55		 push	 ebp
  00001	8b ec		 mov	 ebp, esp

; 242  : #ifdef IOWIN32_USING_WINRT_API
; 243  :     return SetFilePointerEx(hFile, pos, newPos, dwMoveMethod);

  00003	ff 75 08	 push	 DWORD PTR _dwMoveMethod$[ebp]
  00006	52		 push	 edx
  00007	ff 75 10	 push	 DWORD PTR _pos$[ebp+4]
  0000a	ff 75 0c	 push	 DWORD PTR _pos$[ebp]
  0000d	51		 push	 ecx
  0000e	ff 15 00 00 00
	00		 call	 DWORD PTR __imp__SetFilePointerEx@20

; 244  : #else
; 245  :     LONG lHigh = pos.HighPart;
; 246  :     DWORD dwNewPos = SetFilePointer(hFile, pos.LowPart, &lHigh, FILE_CURRENT);
; 247  :     BOOL fOk = TRUE;
; 248  :     if (dwNewPos == 0xFFFFFFFF)
; 249  :         if (GetLastError() != NO_ERROR)
; 250  :             fOk = FALSE;
; 251  :     if ((newPos != NULL) && (fOk))
; 252  :     {
; 253  :         newPos->LowPart = dwNewPos;
; 254  :         newPos->HighPart = lHigh;
; 255  :     }
; 256  :     return fOk;
; 257  : #endif
; 258  : }

  00014	5d		 pop	 ebp
  00015	c3		 ret	 0
_MySetFilePointerEx ENDP
_TEXT	ENDS
; Function compile flags: /Ogtp
; File d:\downloads\tgl-master\tgl-master\zlib\contrib\minizip\iowin32.c
;	COMDAT _win32_tell_file_func
_TEXT	SEGMENT
_pos$1 = -8						; size = 8
_opaque$ = 8						; size = 4
_stream$ = 12						; size = 4
_win32_tell_file_func PROC				; COMDAT

; 261  : {

  00000	55		 push	 ebp
  00001	8b ec		 mov	 ebp, esp
  00003	83 e4 f8	 and	 esp, -8			; fffffff8H
  00006	83 ec 0c	 sub	 esp, 12			; 0000000cH
  00009	56		 push	 esi

; 262  :     long ret=-1;
; 263  :     HANDLE hFile = NULL;
; 264  :     if (stream!=NULL)

  0000a	8b 75 0c	 mov	 esi, DWORD PTR _stream$[ebp]
  0000d	85 f6		 test	 esi, esi
  0000f	74 32		 je	 SHORT $LN8@win32_tell

; 265  :         hFile = ((WIN32FILE_IOWIN*)stream) -> hf;

  00011	8b 0e		 mov	 ecx, DWORD PTR [esi]

; 266  :     if (hFile != NULL)

  00013	85 c9		 test	 ecx, ecx
  00015	74 2c		 je	 SHORT $LN8@win32_tell

; 267  :     {
; 268  :         LARGE_INTEGER pos;
; 269  :         pos.QuadPart = 0;
; 270  : 
; 271  :         if (!MySetFilePointerEx(hFile, pos, &pos, FILE_CURRENT))

  00017	0f 57 c0	 xorps	 xmm0, xmm0
  0001a	8d 54 24 08	 lea	 edx, DWORD PTR _pos$1[esp+16]
  0001e	66 0f 13 44 24
	08		 movlpd	 QWORD PTR _pos$1[esp+16], xmm0
  00024	ff 74 24 0c	 push	 DWORD PTR _pos$1[esp+20]
  00028	ff 74 24 0c	 push	 DWORD PTR _pos$1[esp+20]
  0002c	6a 01		 push	 1
  0002e	e8 00 00 00 00	 call	 _MySetFilePointerEx
  00033	83 c4 0c	 add	 esp, 12			; 0000000cH
  00036	85 c0		 test	 eax, eax
  00038	75 11		 jne	 SHORT $LN4@win32_tell

; 272  :         {
; 273  :             DWORD dwErr = GetLastError();

  0003a	ff 15 00 00 00
	00		 call	 DWORD PTR __imp__GetLastError@0

; 274  :             ((WIN32FILE_IOWIN*)stream) -> error=(int)dwErr;

  00040	89 46 04	 mov	 DWORD PTR [esi+4], eax
$LN8@win32_tell:

; 275  :             ret = -1;
; 276  :         }
; 277  :         else
; 278  :             ret=(long)pos.LowPart;
; 279  :     }
; 280  :     return ret;

  00043	83 c8 ff	 or	 eax, -1

; 281  : }

  00046	5e		 pop	 esi
  00047	8b e5		 mov	 esp, ebp
  00049	5d		 pop	 ebp
  0004a	c3		 ret	 0
$LN4@win32_tell:

; 275  :             ret = -1;
; 276  :         }
; 277  :         else
; 278  :             ret=(long)pos.LowPart;
; 279  :     }
; 280  :     return ret;

  0004b	8b 44 24 08	 mov	 eax, DWORD PTR _pos$1[esp+16]

; 281  : }

  0004f	5e		 pop	 esi
  00050	8b e5		 mov	 esp, ebp
  00052	5d		 pop	 ebp
  00053	c3		 ret	 0
_win32_tell_file_func ENDP
_TEXT	ENDS
; Function compile flags: /Ogtp
; File d:\downloads\tgl-master\tgl-master\zlib\contrib\minizip\iowin32.c
;	COMDAT _win32_tell64_file_func
_TEXT	SEGMENT
_pos$1 = -8						; size = 8
_opaque$ = 8						; size = 4
_stream$ = 12						; size = 4
_win32_tell64_file_func PROC				; COMDAT

; 284  : {

  00000	55		 push	 ebp
  00001	8b ec		 mov	 ebp, esp
  00003	83 e4 f8	 and	 esp, -8			; fffffff8H
  00006	83 ec 0c	 sub	 esp, 12			; 0000000cH
  00009	56		 push	 esi

; 285  :     ZPOS64_T ret= (ZPOS64_T)-1;
; 286  :     HANDLE hFile = NULL;
; 287  :     if (stream!=NULL)

  0000a	8b 75 0c	 mov	 esi, DWORD PTR _stream$[ebp]
  0000d	85 f6		 test	 esi, esi
  0000f	74 32		 je	 SHORT $LN8@win32_tell

; 288  :         hFile = ((WIN32FILE_IOWIN*)stream)->hf;

  00011	8b 0e		 mov	 ecx, DWORD PTR [esi]

; 289  : 
; 290  :     if (hFile)

  00013	85 c9		 test	 ecx, ecx
  00015	74 2c		 je	 SHORT $LN8@win32_tell

; 291  :     {
; 292  :         LARGE_INTEGER pos;
; 293  :         pos.QuadPart = 0;
; 294  : 
; 295  :         if (!MySetFilePointerEx(hFile, pos, &pos, FILE_CURRENT))

  00017	0f 57 c0	 xorps	 xmm0, xmm0
  0001a	8d 54 24 08	 lea	 edx, DWORD PTR _pos$1[esp+16]
  0001e	66 0f 13 44 24
	08		 movlpd	 QWORD PTR _pos$1[esp+16], xmm0
  00024	ff 74 24 0c	 push	 DWORD PTR _pos$1[esp+20]
  00028	ff 74 24 0c	 push	 DWORD PTR _pos$1[esp+20]
  0002c	6a 01		 push	 1
  0002e	e8 00 00 00 00	 call	 _MySetFilePointerEx
  00033	83 c4 0c	 add	 esp, 12			; 0000000cH
  00036	85 c0		 test	 eax, eax
  00038	75 14		 jne	 SHORT $LN4@win32_tell

; 296  :         {
; 297  :             DWORD dwErr = GetLastError();

  0003a	ff 15 00 00 00
	00		 call	 DWORD PTR __imp__GetLastError@0

; 298  :             ((WIN32FILE_IOWIN*)stream) -> error=(int)dwErr;

  00040	89 46 04	 mov	 DWORD PTR [esi+4], eax
$LN8@win32_tell:

; 299  :             ret = (ZPOS64_T)-1;
; 300  :         }
; 301  :         else
; 302  :             ret=pos.QuadPart;
; 303  :     }
; 304  :     return ret;

  00043	83 c8 ff	 or	 eax, -1
  00046	83 ca ff	 or	 edx, -1

; 305  : }

  00049	5e		 pop	 esi
  0004a	8b e5		 mov	 esp, ebp
  0004c	5d		 pop	 ebp
  0004d	c3		 ret	 0
$LN4@win32_tell:

; 299  :             ret = (ZPOS64_T)-1;
; 300  :         }
; 301  :         else
; 302  :             ret=pos.QuadPart;
; 303  :     }
; 304  :     return ret;

  0004e	8b 44 24 08	 mov	 eax, DWORD PTR _pos$1[esp+16]
  00052	8b 54 24 0c	 mov	 edx, DWORD PTR _pos$1[esp+20]

; 305  : }

  00056	5e		 pop	 esi
  00057	8b e5		 mov	 esp, ebp
  00059	5d		 pop	 ebp
  0005a	c3		 ret	 0
_win32_tell64_file_func ENDP
_TEXT	ENDS
; Function compile flags: /Ogtp
; File d:\downloads\tgl-master\tgl-master\zlib\contrib\minizip\iowin32.c
;	COMDAT _win32_seek_file_func
_TEXT	SEGMENT
_opaque$ = 8						; size = 4
_stream$ = 12						; size = 4
_offset$ = 16						; size = 4
_origin$ = 20						; size = 4
_win32_seek_file_func PROC				; COMDAT

; 309  : {

  00000	55		 push	 ebp
  00001	8b ec		 mov	 ebp, esp
  00003	83 e4 f8	 and	 esp, -8			; fffffff8H
  00006	56		 push	 esi

; 310  :     DWORD dwMoveMethod=0xFFFFFFFF;
; 311  :     HANDLE hFile = NULL;
; 312  : 
; 313  :     long ret=-1;
; 314  :     if (stream!=NULL)

  00007	8b 75 0c	 mov	 esi, DWORD PTR _stream$[ebp]
  0000a	83 c9 ff	 or	 ecx, -1
  0000d	57		 push	 edi
  0000e	33 ff		 xor	 edi, edi
  00010	85 f6		 test	 esi, esi
  00012	74 02		 je	 SHORT $LN4@win32_seek

; 315  :         hFile = ((WIN32FILE_IOWIN*)stream) -> hf;

  00014	8b 3e		 mov	 edi, DWORD PTR [esi]
$LN4@win32_seek:

; 316  :     switch (origin)

  00016	8b 45 14	 mov	 eax, DWORD PTR _origin$[ebp]
  00019	83 e8 00	 sub	 eax, 0
  0001c	74 21		 je	 SHORT $LN7@win32_seek
  0001e	83 e8 01	 sub	 eax, 1
  00021	74 15		 je	 SHORT $LN5@win32_seek
  00023	83 e8 01	 sub	 eax, 1
  00026	74 09		 je	 SHORT $LN6@win32_seek

; 326  :         break;
; 327  :     default: return -1;

  00028	83 c8 ff	 or	 eax, -1

; 344  : }

  0002b	5f		 pop	 edi
  0002c	5e		 pop	 esi
  0002d	8b e5		 mov	 esp, ebp
  0002f	5d		 pop	 ebp
  00030	c3		 ret	 0
$LN6@win32_seek:

; 321  :     case ZLIB_FILEFUNC_SEEK_END :
; 322  :         dwMoveMethod = FILE_END;

  00031	b8 02 00 00 00	 mov	 eax, 2

; 323  :         break;

  00036	eb 09		 jmp	 SHORT $LN2@win32_seek
$LN5@win32_seek:

; 317  :     {
; 318  :     case ZLIB_FILEFUNC_SEEK_CUR :
; 319  :         dwMoveMethod = FILE_CURRENT;

  00038	b8 01 00 00 00	 mov	 eax, 1

; 320  :         break;

  0003d	eb 02		 jmp	 SHORT $LN2@win32_seek
$LN7@win32_seek:

; 324  :     case ZLIB_FILEFUNC_SEEK_SET :
; 325  :         dwMoveMethod = FILE_BEGIN;

  0003f	33 c0		 xor	 eax, eax
$LN2@win32_seek:

; 328  :     }
; 329  : 
; 330  :     if (hFile != NULL)

  00041	85 ff		 test	 edi, edi
  00043	74 2c		 je	 SHORT $LN11@win32_seek

; 331  :     {
; 332  :         LARGE_INTEGER pos;
; 333  :         pos.QuadPart = offset;
; 334  :         if (!MySetFilePointerEx(hFile, pos, NULL, dwMoveMethod))

  00045	6a 00		 push	 0
  00047	ff 75 10	 push	 DWORD PTR _offset$[ebp]
  0004a	33 d2		 xor	 edx, edx
  0004c	8b cf		 mov	 ecx, edi
  0004e	50		 push	 eax
  0004f	e8 00 00 00 00	 call	 _MySetFilePointerEx
  00054	83 c4 0c	 add	 esp, 12			; 0000000cH
  00057	85 c0		 test	 eax, eax
  00059	75 14		 jne	 SHORT $LN10@win32_seek

; 335  :         {
; 336  :             DWORD dwErr = GetLastError();

  0005b	ff 15 00 00 00
	00		 call	 DWORD PTR __imp__GetLastError@0

; 337  :             ((WIN32FILE_IOWIN*)stream) -> error=(int)dwErr;
; 338  :             ret = -1;

  00061	83 c9 ff	 or	 ecx, -1
  00064	89 46 04	 mov	 DWORD PTR [esi+4], eax

; 342  :     }
; 343  :     return ret;

  00067	8b c1		 mov	 eax, ecx

; 344  : }

  00069	5f		 pop	 edi
  0006a	5e		 pop	 esi
  0006b	8b e5		 mov	 esp, ebp
  0006d	5d		 pop	 ebp
  0006e	c3		 ret	 0
$LN10@win32_seek:

; 339  :         }
; 340  :         else
; 341  :             ret=0;

  0006f	33 c9		 xor	 ecx, ecx
$LN11@win32_seek:

; 344  : }

  00071	5f		 pop	 edi
  00072	8b c1		 mov	 eax, ecx
  00074	5e		 pop	 esi
  00075	8b e5		 mov	 esp, ebp
  00077	5d		 pop	 ebp
  00078	c3		 ret	 0
_win32_seek_file_func ENDP
_TEXT	ENDS
; Function compile flags: /Ogtp
; File d:\downloads\tgl-master\tgl-master\zlib\contrib\minizip\iowin32.c
;	COMDAT _win32_seek64_file_func
_TEXT	SEGMENT
_opaque$ = 8						; size = 4
_stream$ = 12						; size = 4
_offset$ = 16						; size = 8
_origin$ = 24						; size = 4
_win32_seek64_file_func PROC				; COMDAT

; 347  : {

  00000	55		 push	 ebp
  00001	8b ec		 mov	 ebp, esp
  00003	83 e4 f8	 and	 esp, -8			; fffffff8H
  00006	56		 push	 esi

; 348  :     DWORD dwMoveMethod=0xFFFFFFFF;
; 349  :     HANDLE hFile = NULL;
; 350  :     long ret=-1;
; 351  : 
; 352  :     if (stream!=NULL)

  00007	8b 75 0c	 mov	 esi, DWORD PTR _stream$[ebp]
  0000a	83 c9 ff	 or	 ecx, -1
  0000d	57		 push	 edi
  0000e	33 ff		 xor	 edi, edi
  00010	85 f6		 test	 esi, esi
  00012	74 02		 je	 SHORT $LN4@win32_seek

; 353  :         hFile = ((WIN32FILE_IOWIN*)stream)->hf;

  00014	8b 3e		 mov	 edi, DWORD PTR [esi]
$LN4@win32_seek:

; 354  : 
; 355  :     switch (origin)

  00016	8b 45 18	 mov	 eax, DWORD PTR _origin$[ebp]
  00019	83 e8 00	 sub	 eax, 0
  0001c	74 13		 je	 SHORT $LN6@win32_seek
  0001e	83 e8 01	 sub	 eax, 1
  00021	74 0e		 je	 SHORT $LN6@win32_seek
  00023	83 e8 01	 sub	 eax, 1
  00026	74 09		 je	 SHORT $LN6@win32_seek

; 356  :     {
; 357  :         case ZLIB_FILEFUNC_SEEK_CUR :
; 358  :             dwMoveMethod = FILE_CURRENT;
; 359  :             break;
; 360  :         case ZLIB_FILEFUNC_SEEK_END :
; 361  :             dwMoveMethod = FILE_END;
; 362  :             break;
; 363  :         case ZLIB_FILEFUNC_SEEK_SET :
; 364  :             dwMoveMethod = FILE_BEGIN;
; 365  :             break;
; 366  :         default: return -1;

  00028	83 c8 ff	 or	 eax, -1

; 383  : }

  0002b	5f		 pop	 edi
  0002c	5e		 pop	 esi
  0002d	8b e5		 mov	 esp, ebp
  0002f	5d		 pop	 ebp
  00030	c3		 ret	 0
$LN6@win32_seek:

; 367  :     }
; 368  : 
; 369  :     if (hFile)

  00031	85 ff		 test	 edi, edi
  00033	74 2e		 je	 SHORT $LN11@win32_seek

; 370  :     {
; 371  :         LARGE_INTEGER pos;
; 372  :         pos.QuadPart = offset;
; 373  :         if (!MySetFilePointerEx(hFile, pos, NULL, FILE_CURRENT))

  00035	ff 75 14	 push	 DWORD PTR _offset$[ebp+4]
  00038	33 d2		 xor	 edx, edx
  0003a	8b cf		 mov	 ecx, edi
  0003c	ff 75 10	 push	 DWORD PTR _offset$[ebp]
  0003f	6a 01		 push	 1
  00041	e8 00 00 00 00	 call	 _MySetFilePointerEx
  00046	83 c4 0c	 add	 esp, 12			; 0000000cH
  00049	85 c0		 test	 eax, eax
  0004b	75 14		 jne	 SHORT $LN10@win32_seek

; 374  :         {
; 375  :             DWORD dwErr = GetLastError();

  0004d	ff 15 00 00 00
	00		 call	 DWORD PTR __imp__GetLastError@0

; 376  :             ((WIN32FILE_IOWIN*)stream) -> error=(int)dwErr;
; 377  :             ret = -1;

  00053	83 c9 ff	 or	 ecx, -1
  00056	89 46 04	 mov	 DWORD PTR [esi+4], eax

; 381  :     }
; 382  :     return ret;

  00059	8b c1		 mov	 eax, ecx

; 383  : }

  0005b	5f		 pop	 edi
  0005c	5e		 pop	 esi
  0005d	8b e5		 mov	 esp, ebp
  0005f	5d		 pop	 ebp
  00060	c3		 ret	 0
$LN10@win32_seek:

; 378  :         }
; 379  :         else
; 380  :             ret=0;

  00061	33 c9		 xor	 ecx, ecx
$LN11@win32_seek:

; 383  : }

  00063	5f		 pop	 edi
  00064	8b c1		 mov	 eax, ecx
  00066	5e		 pop	 esi
  00067	8b e5		 mov	 esp, ebp
  00069	5d		 pop	 ebp
  0006a	c3		 ret	 0
_win32_seek64_file_func ENDP
_TEXT	ENDS
; Function compile flags: /Ogtp
; File d:\downloads\tgl-master\tgl-master\zlib\contrib\minizip\iowin32.c
;	COMDAT _win32_close_file_func
_TEXT	SEGMENT
_opaque$ = 8						; size = 4
_stream$ = 12						; size = 4
_win32_close_file_func PROC				; COMDAT

; 386  : {

  00000	55		 push	 ebp
  00001	8b ec		 mov	 ebp, esp
  00003	56		 push	 esi
  00004	57		 push	 edi

; 387  :     int ret=-1;
; 388  : 
; 389  :     if (stream!=NULL)

  00005	8b 7d 0c	 mov	 edi, DWORD PTR _stream$[ebp]
  00008	83 ce ff	 or	 esi, -1
  0000b	85 ff		 test	 edi, edi
  0000d	74 19		 je	 SHORT $LN5@win32_clos

; 390  :     {
; 391  :         HANDLE hFile;
; 392  :         hFile = ((WIN32FILE_IOWIN*)stream) -> hf;

  0000f	8b 07		 mov	 eax, DWORD PTR [edi]

; 393  :         if (hFile != NULL)

  00011	85 c0		 test	 eax, eax
  00013	74 09		 je	 SHORT $LN3@win32_clos

; 394  :         {
; 395  :             CloseHandle(hFile);

  00015	50		 push	 eax
  00016	ff 15 00 00 00
	00		 call	 DWORD PTR __imp__CloseHandle@4

; 396  :             ret=0;

  0001c	33 f6		 xor	 esi, esi
$LN3@win32_clos:

; 397  :         }
; 398  :         free(stream);

  0001e	57		 push	 edi
  0001f	ff 15 00 00 00
	00		 call	 DWORD PTR __imp__free
  00025	83 c4 04	 add	 esp, 4
$LN5@win32_clos:

; 399  :     }
; 400  :     return ret;

  00028	5f		 pop	 edi
  00029	8b c6		 mov	 eax, esi
  0002b	5e		 pop	 esi

; 401  : }

  0002c	5d		 pop	 ebp
  0002d	c3		 ret	 0
_win32_close_file_func ENDP
_TEXT	ENDS
; Function compile flags: /Ogtp
; File d:\downloads\tgl-master\tgl-master\zlib\contrib\minizip\iowin32.c
;	COMDAT _win32_error_file_func
_TEXT	SEGMENT
_opaque$ = 8						; size = 4
_stream$ = 12						; size = 4
_win32_error_file_func PROC				; COMDAT

; 404  : {

  00000	55		 push	 ebp
  00001	8b ec		 mov	 ebp, esp

; 405  :     int ret=-1;
; 406  :     if (stream!=NULL)

  00003	8b 45 0c	 mov	 eax, DWORD PTR _stream$[ebp]
  00006	85 c0		 test	 eax, eax
  00008	74 05		 je	 SHORT $LN4@win32_erro

; 407  :     {
; 408  :         ret = ((WIN32FILE_IOWIN*)stream) -> error;
; 409  :     }
; 410  :     return ret;

  0000a	8b 40 04	 mov	 eax, DWORD PTR [eax+4]

; 411  : }

  0000d	5d		 pop	 ebp
  0000e	c3		 ret	 0
$LN4@win32_erro:

; 407  :     {
; 408  :         ret = ((WIN32FILE_IOWIN*)stream) -> error;
; 409  :     }
; 410  :     return ret;

  0000f	83 c8 ff	 or	 eax, -1

; 411  : }

  00012	5d		 pop	 ebp
  00013	c3		 ret	 0
_win32_error_file_func ENDP
_TEXT	ENDS
; Function compile flags: /Ogtp
; File d:\downloads\tgl-master\tgl-master\zlib\contrib\minizip\iowin32.c
;	COMDAT _fill_win32_filefunc
_TEXT	SEGMENT
_pzlib_filefunc_def$ = 8				; size = 4
_fill_win32_filefunc PROC				; COMDAT

; 414  : {

  00000	55		 push	 ebp
  00001	8b ec		 mov	 ebp, esp

; 415  :     pzlib_filefunc_def->zopen_file = win32_open_file_func;

  00003	8b 45 08	 mov	 eax, DWORD PTR _pzlib_filefunc_def$[ebp]
  00006	c7 00 00 00 00
	00		 mov	 DWORD PTR [eax], OFFSET _win32_open_file_func

; 416  :     pzlib_filefunc_def->zread_file = win32_read_file_func;

  0000c	c7 40 04 00 00
	00 00		 mov	 DWORD PTR [eax+4], OFFSET _win32_read_file_func

; 417  :     pzlib_filefunc_def->zwrite_file = win32_write_file_func;

  00013	c7 40 08 00 00
	00 00		 mov	 DWORD PTR [eax+8], OFFSET _win32_write_file_func

; 418  :     pzlib_filefunc_def->ztell_file = win32_tell_file_func;

  0001a	c7 40 0c 00 00
	00 00		 mov	 DWORD PTR [eax+12], OFFSET _win32_tell_file_func

; 419  :     pzlib_filefunc_def->zseek_file = win32_seek_file_func;

  00021	c7 40 10 00 00
	00 00		 mov	 DWORD PTR [eax+16], OFFSET _win32_seek_file_func

; 420  :     pzlib_filefunc_def->zclose_file = win32_close_file_func;

  00028	c7 40 14 00 00
	00 00		 mov	 DWORD PTR [eax+20], OFFSET _win32_close_file_func

; 421  :     pzlib_filefunc_def->zerror_file = win32_error_file_func;

  0002f	c7 40 18 00 00
	00 00		 mov	 DWORD PTR [eax+24], OFFSET _win32_error_file_func

; 422  :     pzlib_filefunc_def->opaque = NULL;

  00036	c7 40 1c 00 00
	00 00		 mov	 DWORD PTR [eax+28], 0

; 423  : }

  0003d	5d		 pop	 ebp
  0003e	c3		 ret	 0
_fill_win32_filefunc ENDP
_TEXT	ENDS
; Function compile flags: /Ogtp
; File d:\downloads\tgl-master\tgl-master\zlib\contrib\minizip\iowin32.c
;	COMDAT _fill_win32_filefunc64
_TEXT	SEGMENT
_pzlib_filefunc_def$ = 8				; size = 4
_fill_win32_filefunc64 PROC				; COMDAT

; 426  : {

  00000	55		 push	 ebp
  00001	8b ec		 mov	 ebp, esp

; 427  :     pzlib_filefunc_def->zopen64_file = win32_open64_file_func;

  00003	8b 45 08	 mov	 eax, DWORD PTR _pzlib_filefunc_def$[ebp]
  00006	c7 00 00 00 00
	00		 mov	 DWORD PTR [eax], OFFSET _win32_open64_file_func

; 428  :     pzlib_filefunc_def->zread_file = win32_read_file_func;

  0000c	c7 40 04 00 00
	00 00		 mov	 DWORD PTR [eax+4], OFFSET _win32_read_file_func

; 429  :     pzlib_filefunc_def->zwrite_file = win32_write_file_func;

  00013	c7 40 08 00 00
	00 00		 mov	 DWORD PTR [eax+8], OFFSET _win32_write_file_func

; 430  :     pzlib_filefunc_def->ztell64_file = win32_tell64_file_func;

  0001a	c7 40 0c 00 00
	00 00		 mov	 DWORD PTR [eax+12], OFFSET _win32_tell64_file_func

; 431  :     pzlib_filefunc_def->zseek64_file = win32_seek64_file_func;

  00021	c7 40 10 00 00
	00 00		 mov	 DWORD PTR [eax+16], OFFSET _win32_seek64_file_func

; 432  :     pzlib_filefunc_def->zclose_file = win32_close_file_func;

  00028	c7 40 14 00 00
	00 00		 mov	 DWORD PTR [eax+20], OFFSET _win32_close_file_func

; 433  :     pzlib_filefunc_def->zerror_file = win32_error_file_func;

  0002f	c7 40 18 00 00
	00 00		 mov	 DWORD PTR [eax+24], OFFSET _win32_error_file_func

; 434  :     pzlib_filefunc_def->opaque = NULL;

  00036	c7 40 1c 00 00
	00 00		 mov	 DWORD PTR [eax+28], 0

; 435  : }

  0003d	5d		 pop	 ebp
  0003e	c3		 ret	 0
_fill_win32_filefunc64 ENDP
_TEXT	ENDS
; Function compile flags: /Ogtp
; File d:\downloads\tgl-master\tgl-master\zlib\contrib\minizip\iowin32.c
;	COMDAT _fill_win32_filefunc64A
_TEXT	SEGMENT
_pzlib_filefunc_def$ = 8				; size = 4
_fill_win32_filefunc64A PROC				; COMDAT

; 439  : {

  00000	55		 push	 ebp
  00001	8b ec		 mov	 ebp, esp

; 440  :     pzlib_filefunc_def->zopen64_file = win32_open64_file_funcA;

  00003	8b 45 08	 mov	 eax, DWORD PTR _pzlib_filefunc_def$[ebp]
  00006	c7 00 00 00 00
	00		 mov	 DWORD PTR [eax], OFFSET _win32_open64_file_funcA

; 441  :     pzlib_filefunc_def->zread_file = win32_read_file_func;

  0000c	c7 40 04 00 00
	00 00		 mov	 DWORD PTR [eax+4], OFFSET _win32_read_file_func

; 442  :     pzlib_filefunc_def->zwrite_file = win32_write_file_func;

  00013	c7 40 08 00 00
	00 00		 mov	 DWORD PTR [eax+8], OFFSET _win32_write_file_func

; 443  :     pzlib_filefunc_def->ztell64_file = win32_tell64_file_func;

  0001a	c7 40 0c 00 00
	00 00		 mov	 DWORD PTR [eax+12], OFFSET _win32_tell64_file_func

; 444  :     pzlib_filefunc_def->zseek64_file = win32_seek64_file_func;

  00021	c7 40 10 00 00
	00 00		 mov	 DWORD PTR [eax+16], OFFSET _win32_seek64_file_func

; 445  :     pzlib_filefunc_def->zclose_file = win32_close_file_func;

  00028	c7 40 14 00 00
	00 00		 mov	 DWORD PTR [eax+20], OFFSET _win32_close_file_func

; 446  :     pzlib_filefunc_def->zerror_file = win32_error_file_func;

  0002f	c7 40 18 00 00
	00 00		 mov	 DWORD PTR [eax+24], OFFSET _win32_error_file_func

; 447  :     pzlib_filefunc_def->opaque = NULL;

  00036	c7 40 1c 00 00
	00 00		 mov	 DWORD PTR [eax+28], 0

; 448  : }

  0003d	5d		 pop	 ebp
  0003e	c3		 ret	 0
_fill_win32_filefunc64A ENDP
_TEXT	ENDS
; Function compile flags: /Ogtp
; File d:\downloads\tgl-master\tgl-master\zlib\contrib\minizip\iowin32.c
;	COMDAT _fill_win32_filefunc64W
_TEXT	SEGMENT
_pzlib_filefunc_def$ = 8				; size = 4
_fill_win32_filefunc64W PROC				; COMDAT

; 452  : {

  00000	55		 push	 ebp
  00001	8b ec		 mov	 ebp, esp

; 453  :     pzlib_filefunc_def->zopen64_file = win32_open64_file_funcW;

  00003	8b 45 08	 mov	 eax, DWORD PTR _pzlib_filefunc_def$[ebp]
  00006	c7 00 00 00 00
	00		 mov	 DWORD PTR [eax], OFFSET _win32_open64_file_funcW

; 454  :     pzlib_filefunc_def->zread_file = win32_read_file_func;

  0000c	c7 40 04 00 00
	00 00		 mov	 DWORD PTR [eax+4], OFFSET _win32_read_file_func

; 455  :     pzlib_filefunc_def->zwrite_file = win32_write_file_func;

  00013	c7 40 08 00 00
	00 00		 mov	 DWORD PTR [eax+8], OFFSET _win32_write_file_func

; 456  :     pzlib_filefunc_def->ztell64_file = win32_tell64_file_func;

  0001a	c7 40 0c 00 00
	00 00		 mov	 DWORD PTR [eax+12], OFFSET _win32_tell64_file_func

; 457  :     pzlib_filefunc_def->zseek64_file = win32_seek64_file_func;

  00021	c7 40 10 00 00
	00 00		 mov	 DWORD PTR [eax+16], OFFSET _win32_seek64_file_func

; 458  :     pzlib_filefunc_def->zclose_file = win32_close_file_func;

  00028	c7 40 14 00 00
	00 00		 mov	 DWORD PTR [eax+20], OFFSET _win32_close_file_func

; 459  :     pzlib_filefunc_def->zerror_file = win32_error_file_func;

  0002f	c7 40 18 00 00
	00 00		 mov	 DWORD PTR [eax+24], OFFSET _win32_error_file_func

; 460  :     pzlib_filefunc_def->opaque = NULL;

  00036	c7 40 1c 00 00
	00 00		 mov	 DWORD PTR [eax+28], 0

; 461  : }

  0003d	5d		 pop	 ebp
  0003e	c3		 ret	 0
_fill_win32_filefunc64W ENDP
_TEXT	ENDS
END
