; Listing generated by Microsoft (R) Optimizing Compiler Version 19.00.23506.0 

	TITLE	d:\downloads\tgl-master\tgl-master\zlib\zutil.c
	.686P
	.XMM
	include listing.inc
	.model	flat

INCLUDELIB OLDNAMES

PUBLIC	_z_errmsg
PUBLIC	??_C@_0BA@MOKMMFOD@need?5dictionary?$AA@	; `string'
PUBLIC	??_C@_0L@FNAOCBOG@stream?5end?$AA@		; `string'
PUBLIC	??_C@_0L@KIJFAKBJ@file?5error?$AA@		; `string'
PUBLIC	??_C@_0N@MKKNPMJD@stream?5error?$AA@		; `string'
PUBLIC	??_C@_0L@HAHMBNLP@data?5error?$AA@		; `string'
PUBLIC	??_C@_0BE@OGGJBMCE@insufficient?5memory?$AA@	; `string'
PUBLIC	??_C@_0N@DFPGLBGC@buffer?5error?$AA@		; `string'
PUBLIC	??_C@_0BF@CJFPCCEG@incompatible?5version?$AA@	; `string'
;	COMDAT ??_C@_0BF@CJFPCCEG@incompatible?5version?$AA@
CONST	SEGMENT
??_C@_0BF@CJFPCCEG@incompatible?5version?$AA@ DB 'incompatible version', 00H ; `string'
CONST	ENDS
;	COMDAT ??_C@_0N@DFPGLBGC@buffer?5error?$AA@
CONST	SEGMENT
??_C@_0N@DFPGLBGC@buffer?5error?$AA@ DB 'buffer error', 00H ; `string'
CONST	ENDS
;	COMDAT ??_C@_0BE@OGGJBMCE@insufficient?5memory?$AA@
CONST	SEGMENT
??_C@_0BE@OGGJBMCE@insufficient?5memory?$AA@ DB 'insufficient memory', 00H ; `string'
CONST	ENDS
;	COMDAT ??_C@_0L@HAHMBNLP@data?5error?$AA@
CONST	SEGMENT
??_C@_0L@HAHMBNLP@data?5error?$AA@ DB 'data error', 00H	; `string'
CONST	ENDS
;	COMDAT ??_C@_0N@MKKNPMJD@stream?5error?$AA@
CONST	SEGMENT
??_C@_0N@MKKNPMJD@stream?5error?$AA@ DB 'stream error', 00H ; `string'
CONST	ENDS
;	COMDAT ??_C@_0L@KIJFAKBJ@file?5error?$AA@
CONST	SEGMENT
??_C@_0L@KIJFAKBJ@file?5error?$AA@ DB 'file error', 00H	; `string'
CONST	ENDS
;	COMDAT ??_C@_0L@FNAOCBOG@stream?5end?$AA@
CONST	SEGMENT
??_C@_0L@FNAOCBOG@stream?5end?$AA@ DB 'stream end', 00H	; `string'
CONST	ENDS
;	COMDAT ??_C@_0BA@MOKMMFOD@need?5dictionary?$AA@
CONST	SEGMENT
??_C@_0BA@MOKMMFOD@need?5dictionary?$AA@ DB 'need dictionary', 00H ; `string'
	ORG $+3
_z_errmsg DD	FLAT:??_C@_0BA@MOKMMFOD@need?5dictionary?$AA@
	DD	FLAT:??_C@_0L@FNAOCBOG@stream?5end?$AA@
	DD	FLAT:??_C@_00CNPNBAHC@?$AA@
	DD	FLAT:??_C@_0L@KIJFAKBJ@file?5error?$AA@
	DD	FLAT:??_C@_0N@MKKNPMJD@stream?5error?$AA@
	DD	FLAT:??_C@_0L@HAHMBNLP@data?5error?$AA@
	DD	FLAT:??_C@_0BE@OGGJBMCE@insufficient?5memory?$AA@
	DD	FLAT:??_C@_0N@DFPGLBGC@buffer?5error?$AA@
	DD	FLAT:??_C@_0BF@CJFPCCEG@incompatible?5version?$AA@
	DD	FLAT:??_C@_00CNPNBAHC@?$AA@
PUBLIC	_zError@4
PUBLIC	_zlibCompileFlags@0
PUBLIC	_zlibVersion@0
PUBLIC	_zcfree
PUBLIC	_zcalloc
; Function compile flags: /Ogtp
; File d:\downloads\tgl-master\tgl-master\zlib\zutil.c
;	COMDAT _zcalloc
_TEXT	SEGMENT
_opaque$ = 8						; size = 4
_items$ = 12						; size = 4
_size$ = 16						; size = 4
_zcalloc PROC						; COMDAT

; 308  : {

  00000	55		 push	 ebp
  00001	8b ec		 mov	 ebp, esp

; 309  :     if (opaque) items += size - size; /* make compiler happy */
; 310  :     return sizeof(uInt) > 2 ? (voidpf)malloc(items * size) :

  00003	8b 45 0c	 mov	 eax, DWORD PTR _items$[ebp]
  00006	0f af 45 10	 imul	 eax, DWORD PTR _size$[ebp]
  0000a	50		 push	 eax
  0000b	ff 15 00 00 00
	00		 call	 DWORD PTR __imp__malloc
  00011	83 c4 04	 add	 esp, 4

; 311  :                               (voidpf)calloc(items, size);
; 312  : }

  00014	5d		 pop	 ebp
  00015	c3		 ret	 0
_zcalloc ENDP
_TEXT	ENDS
; Function compile flags: /Ogtp
; File d:\downloads\tgl-master\tgl-master\zlib\zutil.c
;	COMDAT _zcfree
_TEXT	SEGMENT
_opaque$ = 8						; size = 4
_ptr$ = 12						; size = 4
_zcfree	PROC						; COMDAT

; 317  : {

  00000	55		 push	 ebp
  00001	8b ec		 mov	 ebp, esp

; 318  :     free(ptr);

  00003	ff 75 0c	 push	 DWORD PTR _ptr$[ebp]
  00006	ff 15 00 00 00
	00		 call	 DWORD PTR __imp__free
  0000c	83 c4 04	 add	 esp, 4

; 319  :     if (opaque) return; /* make compiler happy */
; 320  : }

  0000f	5d		 pop	 ebp
  00010	c3		 ret	 0
_zcfree	ENDP
_TEXT	ENDS
; Function compile flags: /Ogtp
; File d:\downloads\tgl-master\tgl-master\zlib\zutil.c
;	COMDAT _zlibVersion@0
_TEXT	SEGMENT
_zlibVersion@0 PROC					; COMDAT

; 32   :     return ZLIB_VERSION;

  00000	b8 00 00 00 00	 mov	 eax, OFFSET ??_C@_05IAIEPMAK@1?42?48?$AA@

; 33   : }

  00005	c3		 ret	 0
_zlibVersion@0 ENDP
_TEXT	ENDS
; Function compile flags: /Ogtp
; File d:\downloads\tgl-master\tgl-master\zlib\zutil.c
;	COMDAT _zlibCompileFlags@0
_TEXT	SEGMENT
_zlibCompileFlags@0 PROC				; COMDAT

; 37   :     uLong flags;
; 38   : 
; 39   :     flags = 0;
; 40   :     switch ((int)(sizeof(uInt))) {
; 41   :     case 2:     break;
; 42   :     case 4:     flags += 1;     break;
; 43   :     case 8:     flags += 2;     break;
; 44   :     default:    flags += 3;
; 45   :     }
; 46   :     switch ((int)(sizeof(uLong))) {
; 47   :     case 2:     break;
; 48   :     case 4:     flags += 1 << 2;        break;
; 49   :     case 8:     flags += 2 << 2;        break;
; 50   :     default:    flags += 3 << 2;
; 51   :     }
; 52   :     switch ((int)(sizeof(voidpf))) {
; 53   :     case 2:     break;
; 54   :     case 4:     flags += 1 << 4;        break;
; 55   :     case 8:     flags += 2 << 4;        break;
; 56   :     default:    flags += 3 << 4;
; 57   :     }
; 58   :     switch ((int)(sizeof(z_off_t))) {
; 59   :     case 2:     break;
; 60   :     case 4:     flags += 1 << 6;        break;
; 61   :     case 8:     flags += 2 << 6;        break;
; 62   :     default:    flags += 3 << 6;
; 63   :     }
; 64   : #ifdef DEBUG
; 65   :     flags += 1 << 8;
; 66   : #endif
; 67   : #if defined(ASMV) || defined(ASMINF)
; 68   :     flags += 1 << 9;
; 69   : #endif
; 70   : #ifdef ZLIB_WINAPI
; 71   :     flags += 1 << 10;
; 72   : #endif
; 73   : #ifdef BUILDFIXED
; 74   :     flags += 1 << 12;
; 75   : #endif
; 76   : #ifdef DYNAMIC_CRC_TABLE
; 77   :     flags += 1 << 13;
; 78   : #endif
; 79   : #ifdef NO_GZCOMPRESS
; 80   :     flags += 1L << 16;
; 81   : #endif
; 82   : #ifdef NO_GZIP
; 83   :     flags += 1L << 17;
; 84   : #endif
; 85   : #ifdef PKZIP_BUG_WORKAROUND
; 86   :     flags += 1L << 20;
; 87   : #endif
; 88   : #ifdef FASTEST
; 89   :     flags += 1L << 21;
; 90   : #endif
; 91   : #if defined(STDC) || defined(Z_HAVE_STDARG_H)
; 92   : #  ifdef NO_vsnprintf
; 93   :     flags += 1L << 25;
; 94   : #    ifdef HAS_vsprintf_void
; 95   :     flags += 1L << 26;
; 96   : #    endif
; 97   : #  else
; 98   : #    ifdef HAS_vsnprintf_void
; 99   :     flags += 1L << 26;
; 100  : #    endif
; 101  : #  endif
; 102  : #else
; 103  :     flags += 1L << 24;
; 104  : #  ifdef NO_snprintf
; 105  :     flags += 1L << 25;
; 106  : #    ifdef HAS_sprintf_void
; 107  :     flags += 1L << 26;
; 108  : #    endif
; 109  : #  else
; 110  : #    ifdef HAS_snprintf_void
; 111  :     flags += 1L << 26;
; 112  : #    endif
; 113  : #  endif
; 114  : #endif
; 115  :     return flags;

  00000	b8 55 04 00 00	 mov	 eax, 1109		; 00000455H

; 116  : }

  00005	c3		 ret	 0
_zlibCompileFlags@0 ENDP
_TEXT	ENDS
; Function compile flags: /Ogtp
; File d:\downloads\tgl-master\tgl-master\zlib\zutil.c
;	COMDAT _zError@4
_TEXT	SEGMENT
_err$ = 8						; size = 4
_zError@4 PROC						; COMDAT

; 138  : {

  00000	55		 push	 ebp
  00001	8b ec		 mov	 ebp, esp

; 139  :     return ERR_MSG(err);

  00003	8b 45 08	 mov	 eax, DWORD PTR _err$[ebp]
  00006	b9 08 00 00 00	 mov	 ecx, OFFSET _z_errmsg+8
  0000b	c1 e0 02	 shl	 eax, 2
  0000e	2b c8		 sub	 ecx, eax
  00010	8b 01		 mov	 eax, DWORD PTR [ecx]

; 140  : }

  00012	5d		 pop	 ebp
  00013	c2 04 00	 ret	 4
_zError@4 ENDP
_TEXT	ENDS
END
