LIBRARY tdapi.mir

EXPORTS
??0addMessageReaction@td_api@td@@QEAA@$$QEAV012@@Z @1 NONAME
??0ClientManager@td@@QEAA@$$QEAV01@@Z @2 NONAME
??0ClientManager@td@@QEAA@XZ @3 NONAME
??0addMessageReaction@td_api@td@@QEAA@XZ @4 NONAME
??0addMessageReaction@td_api@td@@QEAA@_J0$$QEAV?$unique_ptr@VReactionType@td_api@td@@@tl@2@_N2@Z @5 NONAME
??0addProxy@td_api@td@@QEAA@$$QEAV012@@Z @6 NONAME
??0addProxy@td_api@td@@QEAA@$$QEAV?$unique_ptr@Vproxy@td_api@td@@@tl@2@_N@Z @7 NONAME
??0addProxy@td_api@td@@QEAA@XZ @8 NONAME
??0cancelPreliminaryUploadFile@td_api@td@@QEAA@$$QEAV012@@Z @9 NONAME
??0cancelPreliminaryUploadFile@td_api@td@@QEAA@H@Z @10 NONAME
??0cancelPreliminaryUploadFile@td_api@td@@QEAA@XZ @11 NONAME
??0chatActionTyping@td_api@td@@QEAA@$$QEAV012@@Z @12 NONAME
??0chatActionTyping@td_api@td@@QEAA@XZ @13 NONAME
??0chatNotificationSettings@td_api@td@@QEAA@$$QEAV012@@Z @14 NONAME
??0chatNotificationSettings@td_api@td@@QEAA@XZ @15 NONAME
??0chatNotificationSettings@td_api@td@@QEAA@_NH0_J000001000000@Z @16 NONAME
??0checkAuthenticationCode@td_api@td@@QEAA@$$QEAV012@@Z @17 NONAME
??0checkAuthenticationCode@td_api@td@@QEAA@AEBV?$basic_string@DU?$char_traits@D@std@@V?$allocator@D@2@@std@@@Z @18 NONAME
??0checkAuthenticationCode@td_api@td@@QEAA@XZ @19 NONAME
??0checkAuthenticationEmailCode@td_api@td@@QEAA@$$QEAV012@@Z @20 NONAME
??0checkAuthenticationEmailCode@td_api@td@@QEAA@$$QEAV?$unique_ptr@VEmailAddressAuthentication@td_api@td@@@tl@2@@Z @21 NONAME
??0checkAuthenticationEmailCode@td_api@td@@QEAA@XZ @22 NONAME
??0checkAuthenticationPassword@td_api@td@@QEAA@$$QEAV012@@Z @23 NONAME
??0checkAuthenticationPassword@td_api@td@@QEAA@AEBV?$basic_string@DU?$char_traits@D@std@@V?$allocator@D@2@@std@@@Z @24 NONAME
??0checkAuthenticationPassword@td_api@td@@QEAA@XZ @25 NONAME
??0close@td_api@td@@QEAA@$$QEAV012@@Z @26 NONAME
??0close@td_api@td@@QEAA@XZ @27 NONAME
??0contact@td_api@td@@QEAA@$$QEAV012@@Z @28 NONAME
??0contact@td_api@td@@QEAA@AEBV?$basic_string@DU?$char_traits@D@std@@V?$allocator@D@2@@std@@000_J@Z @29 NONAME
??0contact@td_api@td@@QEAA@XZ @30 NONAME
??0createPrivateChat@td_api@td@@QEAA@$$QEAV012@@Z @31 NONAME
??0createPrivateChat@td_api@td@@QEAA@XZ @32 NONAME
??0createPrivateChat@td_api@td@@QEAA@_J_N@Z @33 NONAME
??0deleteChat@td_api@td@@QEAA@$$QEAV012@@Z @34 NONAME
??0deleteChat@td_api@td@@QEAA@XZ @35 NONAME
??0deleteChat@td_api@td@@QEAA@_J@Z @36 NONAME
??0deleteChatHistory@td_api@td@@QEAA@$$QEAV012@@Z @37 NONAME
??0deleteChatHistory@td_api@td@@QEAA@XZ @38 NONAME
??0deleteChatHistory@td_api@td@@QEAA@_J_N1@Z @39 NONAME
??0deleteMessages@td_api@td@@QEAA@$$QEAV012@@Z @40 NONAME
??0deleteMessages@td_api@td@@QEAA@XZ @41 NONAME
??0deleteMessages@td_api@td@@QEAA@_J$$QEAV?$vector@_JV?$allocator@_J@std@@@std@@_N@Z @42 NONAME
??0downloadFile@td_api@td@@QEAA@$$QEAV012@@Z @43 NONAME
??0downloadFile@td_api@td@@QEAA@HH_J0_N@Z @44 NONAME
??0downloadFile@td_api@td@@QEAA@XZ @45 NONAME
??0editMessageText@td_api@td@@QEAA@$$QEAV012@@Z @46 NONAME
??0editMessageText@td_api@td@@QEAA@XZ @47 NONAME
??0editMessageText@td_api@td@@QEAA@_J0$$QEAV?$unique_ptr@VReplyMarkup@td_api@td@@@tl@2@$$QEAV?$unique_ptr@VInputMessageContent@td_api@td@@@42@@Z @48 NONAME
??0emailAddressAuthenticationCode@td_api@td@@QEAA@$$QEAV012@@Z @49 NONAME
??0emailAddressAuthenticationCode@td_api@td@@QEAA@AEBV?$basic_string@DU?$char_traits@D@std@@V?$allocator@D@2@@std@@@Z @50 NONAME
??0emailAddressAuthenticationCode@td_api@td@@QEAA@XZ @51 NONAME
??0fileTypeAudio@td_api@td@@QEAA@$$QEAV012@@Z @52 NONAME
??0fileTypeAudio@td_api@td@@QEAA@XZ @53 NONAME
??0fileTypeDocument@td_api@td@@QEAA@$$QEAV012@@Z @54 NONAME
??0fileTypeDocument@td_api@td@@QEAA@XZ @55 NONAME
??0fileTypePhoto@td_api@td@@QEAA@$$QEAV012@@Z @56 NONAME
??0fileTypePhoto@td_api@td@@QEAA@XZ @57 NONAME
??0fileTypeVideo@td_api@td@@QEAA@$$QEAV012@@Z @58 NONAME
??0fileTypeVideo@td_api@td@@QEAA@XZ @59 NONAME
??0formattedText@td_api@td@@QEAA@$$QEAV012@@Z @60 NONAME
??0formattedText@td_api@td@@QEAA@AEBV?$basic_string@DU?$char_traits@D@std@@V?$allocator@D@2@@std@@$$QEAV?$vector@V?$unique_ptr@VtextEntity@td_api@td@@@tl@td@@V?$allocator@V?$unique_ptr@VtextEntity@td_api@td@@@tl@td@@@std@@@4@@Z @61 NONAME
??0formattedText@td_api@td@@QEAA@XZ @62 NONAME
??0forwardMessages@td_api@td@@QEAA@$$QEAV012@@Z @63 NONAME
??0forwardMessages@td_api@td@@QEAA@XZ @64 NONAME
??0forwardMessages@td_api@td@@QEAA@_J$$QEAV?$unique_ptr@VMessageTopic@td_api@td@@@tl@2@0$$QEAV?$vector@_JV?$allocator@_J@std@@@std@@$$QEAV?$unique_ptr@VmessageSendOptions@td_api@td@@@42@_N4@Z @65 NONAME
??0getActiveSessions@td_api@td@@QEAA@$$QEAV012@@Z @66 NONAME
??0getActiveSessions@td_api@td@@QEAA@XZ @67 NONAME
??0getBasicGroupFullInfo@td_api@td@@QEAA@$$QEAV012@@Z @68 NONAME
??0getBasicGroupFullInfo@td_api@td@@QEAA@XZ @69 NONAME
??0getBasicGroupFullInfo@td_api@td@@QEAA@_J@Z @70 NONAME
??0getChat@td_api@td@@QEAA@$$QEAV012@@Z @71 NONAME
??0getChat@td_api@td@@QEAA@XZ @72 NONAME
??0getChat@td_api@td@@QEAA@_J@Z @73 NONAME
??0getChatHistory@td_api@td@@QEAA@$$QEAV012@@Z @74 NONAME
??0getChatHistory@td_api@td@@QEAA@XZ @75 NONAME
??0getChatHistory@td_api@td@@QEAA@_J0HH_N@Z @76 NONAME
??0getChats@td_api@td@@QEAA@$$QEAV012@@Z @77 NONAME
??0getChats@td_api@td@@QEAA@$$QEAV?$unique_ptr@VChatList@td_api@td@@@tl@2@H@Z @78 NONAME
??0getChats@td_api@td@@QEAA@XZ @79 NONAME
??0getForumTopics@td_api@td@@QEAA@$$QEAV012@@Z @80 NONAME
??0getForumTopics@td_api@td@@QEAA@XZ @81 NONAME
??0getForumTopics@td_api@td@@QEAA@_JAEBV?$basic_string@DU?$char_traits@D@std@@V?$allocator@D@2@@std@@H0HH@Z @82 NONAME
??0getMessage@td_api@td@@QEAA@$$QEAV012@@Z @83 NONAME
??0getMessage@td_api@td@@QEAA@XZ @84 NONAME
??0getMessage@td_api@td@@QEAA@_J0@Z @85 NONAME
??0getMessageThreadHistory@td_api@td@@QEAA@$$QEAV012@@Z @86 NONAME
??0getMessageThreadHistory@td_api@td@@QEAA@XZ @87 NONAME
??0getMessageThreadHistory@td_api@td@@QEAA@_J00HH@Z @88 NONAME
??0getOption@td_api@td@@QEAA@$$QEAV012@@Z @89 NONAME
??0getOption@td_api@td@@QEAA@AEBV?$basic_string@DU?$char_traits@D@std@@V?$allocator@D@2@@std@@@Z @90 NONAME
??0getOption@td_api@td@@QEAA@XZ @91 NONAME
??0getRemoteFile@td_api@td@@QEAA@$$QEAV012@@Z @92 NONAME
??0getRemoteFile@td_api@td@@QEAA@AEBV?$basic_string@DU?$char_traits@D@std@@V?$allocator@D@2@@std@@$$QEAV?$unique_ptr@VFileType@td_api@td@@@tl@2@@Z @93 NONAME
??0getRemoteFile@td_api@td@@QEAA@XZ @94 NONAME
??0getSupergroupFullInfo@td_api@td@@QEAA@$$QEAV012@@Z @95 NONAME
??0getSupergroupFullInfo@td_api@td@@QEAA@XZ @96 NONAME
??0getSupergroupFullInfo@td_api@td@@QEAA@_J@Z @97 NONAME
??0getSupergroupMembers@td_api@td@@QEAA@$$QEAV012@@Z @98 NONAME
??0getSupergroupMembers@td_api@td@@QEAA@XZ @99 NONAME
??0getSupergroupMembers@td_api@td@@QEAA@_J$$QEAV?$unique_ptr@VSupergroupMembersFilter@td_api@td@@@tl@2@HH@Z @100 NONAME
??0getUserFullInfo@td_api@td@@QEAA@$$QEAV012@@Z @101 NONAME
??0getUserFullInfo@td_api@td@@QEAA@XZ @102 NONAME
??0getUserFullInfo@td_api@td@@QEAA@_J@Z @103 NONAME
??0importContacts@td_api@td@@QEAA@$$QEAV012@@Z @104 NONAME
??0importContacts@td_api@td@@QEAA@$$QEAV?$vector@V?$unique_ptr@VimportedContact@td_api@td@@@tl@td@@V?$allocator@V?$unique_ptr@VimportedContact@td_api@td@@@tl@td@@@std@@@std@@@Z @105 NONAME
??0importContacts@td_api@td@@QEAA@XZ @106 NONAME
??0importedContact@td_api@td@@QEAA@$$QEAV012@@Z @107 NONAME
??0importedContact@td_api@td@@QEAA@AEBV?$basic_string@DU?$char_traits@D@std@@V?$allocator@D@2@@std@@00$$QEAV?$unique_ptr@VformattedText@td_api@td@@@tl@2@@Z @108 NONAME
??0importedContact@td_api@td@@QEAA@XZ @109 NONAME
??0inputChatPhotoStatic@td_api@td@@QEAA@$$QEAV012@@Z @110 NONAME
??0inputChatPhotoStatic@td_api@td@@QEAA@$$QEAV?$unique_ptr@VInputFile@td_api@td@@@tl@2@@Z @111 NONAME
??0inputChatPhotoStatic@td_api@td@@QEAA@XZ @112 NONAME
??0inputFileId@td_api@td@@QEAA@$$QEAV012@@Z @113 NONAME
??0inputFileId@td_api@td@@QEAA@H@Z @114 NONAME
??0inputFileId@td_api@td@@QEAA@XZ @115 NONAME
??0inputFileLocal@td_api@td@@QEAA@$$QEAV012@@Z @116 NONAME
??0inputFileLocal@td_api@td@@QEAA@AEBV?$basic_string@DU?$char_traits@D@std@@V?$allocator@D@2@@std@@@Z @117 NONAME
??0inputFileLocal@td_api@td@@QEAA@XZ @118 NONAME
??0inputFileRemote@td_api@td@@QEAA@$$QEAV012@@Z @119 NONAME
??0inputFileRemote@td_api@td@@QEAA@AEBV?$basic_string@DU?$char_traits@D@std@@V?$allocator@D@2@@std@@@Z @120 NONAME
??0inputFileRemote@td_api@td@@QEAA@XZ @121 NONAME
??0inputMessageAudio@td_api@td@@QEAA@$$QEAV012@@Z @122 NONAME
??0inputMessageAudio@td_api@td@@QEAA@$$QEAV?$unique_ptr@VInputFile@td_api@td@@@tl@2@$$QEAV?$unique_ptr@VinputThumbnail@td_api@td@@@42@HAEBV?$basic_string@DU?$char_traits@D@std@@V?$allocator@D@2@@std@@2$$QEAV?$unique_ptr@VformattedText@td_api@td@@@42@@Z @123 NONAME
??0inputMessageAudio@td_api@td@@QEAA@XZ @124 NONAME
??0inputMessageDocument@td_api@td@@QEAA@$$QEAV012@@Z @125 NONAME
??0inputMessageDocument@td_api@td@@QEAA@$$QEAV?$unique_ptr@VInputFile@td_api@td@@@tl@2@$$QEAV?$unique_ptr@VinputThumbnail@td_api@td@@@42@_N$$QEAV?$unique_ptr@VformattedText@td_api@td@@@42@@Z @126 NONAME
??0inputMessageDocument@td_api@td@@QEAA@XZ @127 NONAME
??0inputMessagePhoto@td_api@td@@QEAA@$$QEAV012@@Z @128 NONAME
??0inputMessagePhoto@td_api@td@@QEAA@$$QEAV?$unique_ptr@VInputFile@td_api@td@@@tl@2@$$QEAV?$unique_ptr@VinputThumbnail@td_api@td@@@42@0$$QEAV?$vector@HV?$allocator@H@std@@@std@@HH$$QEAV?$unique_ptr@VformattedText@td_api@td@@@42@_N$$QEAV?$unique_ptr@VMessageSelfDestructType@td_api@td@@@42@4@Z @129 NONAME
??0inputMessagePhoto@td_api@td@@QEAA@XZ @130 NONAME
??0inputMessageReplyToMessage@td_api@td@@QEAA@$$QEAV012@@Z @131 NONAME
??0inputMessageReplyToMessage@td_api@td@@QEAA@XZ @132 NONAME
??0inputMessageReplyToMessage@td_api@td@@QEAA@_J$$QEAV?$unique_ptr@VinputTextQuote@td_api@td@@@tl@2@HAEBV?$basic_string@DU?$char_traits@D@std@@V?$allocator@D@2@@std@@@Z @133 NONAME
??0inputMessageText@td_api@td@@QEAA@$$QEAV012@@Z @134 NONAME
??0inputMessageText@td_api@td@@QEAA@$$QEAV?$unique_ptr@VformattedText@td_api@td@@@tl@2@$$QEAV?$unique_ptr@VlinkPreviewOptions@td_api@td@@@42@_N@Z @135 NONAME
??0inputMessageText@td_api@td@@QEAA@XZ @136 NONAME
??0inputMessageVideo@td_api@td@@QEAA@$$QEAV012@@Z @137 NONAME
??0inputMessageVideo@td_api@td@@QEAA@$$QEAV?$unique_ptr@VInputFile@td_api@td@@@tl@2@$$QEAV?$unique_ptr@VinputThumbnail@td_api@td@@@42@0H$$QEAV?$vector@HV?$allocator@H@std@@@std@@HHH_N$$QEAV?$unique_ptr@VformattedText@td_api@td@@@42@3$$QEAV?$unique_ptr@VMessageSelfDestructType@td_api@td@@@42@3@Z @138 NONAME
??0inputMessageVideo@td_api@td@@QEAA@XZ @139 NONAME
??0joinChat@td_api@td@@QEAA@$$QEAV012@@Z @140 NONAME
??0joinChat@td_api@td@@QEAA@XZ @141 NONAME
??0joinChat@td_api@td@@QEAA@_J@Z @142 NONAME
??0leaveChat@td_api@td@@QEAA@$$QEAV012@@Z @143 NONAME
??0leaveChat@td_api@td@@QEAA@XZ @144 NONAME
??0leaveChat@td_api@td@@QEAA@_J@Z @145 NONAME
??0logOut@td_api@td@@QEAA@$$QEAV012@@Z @146 NONAME
??0logOut@td_api@td@@QEAA@XZ @147 NONAME
??0message@td_api@td@@QEAA@$$QEAV012@@Z @148 NONAME
??0message@td_api@td@@QEAA@XZ @149 NONAME
??0message@td_api@td@@QEAA@_J$$QEAV?$unique_ptr@VMessageSender@td_api@td@@@tl@2@0$$QEAV?$unique_ptr@VMessageSendingState@td_api@td@@@42@$$QEAV?$unique_ptr@VMessageSchedulingState@td_api@td@@@42@_N44444444HH$$QEAV?$unique_ptr@VmessageForwardInfo@td_api@td@@@42@$$QEAV?$unique_ptr@VmessageImportInfo@td_api@td@@@42@$$QEAV?$unique_ptr@VmessageInteractionInfo@td_api@td@@@42@$$QEAV?$vector@V?$unique_ptr@VunreadReaction@td_api@td@@@tl@td@@V?$allocator@V?$unique_ptr@VunreadReaction@td_api@td@@@tl@td@@@std@@@std@@$$QEAV?$unique_ptr@VfactCheck@td_api@td@@@42@$$QEAV?$unique_ptr@VsuggestedPostInfo@td_api@td@@@42@$$QEAV?$unique_ptr@VMessageReplyTo@td_api@td@@@42@$$QEAV?$unique_ptr@VMessageTopic@td_api@td@@@42@$$QEAV?$unique_ptr@VMessageSelfDestructType@td_api@td@@@42@NN00HAEBV?$basic_string@DU?$char_traits@D@std@@V?$allocator@D@2@@std@@0AEBV?$basic_string@DU?$char_traits@D@std@@V?$allocator@D@2@@std@@00$$QEAV?$unique_ptr@VrestrictionInfo@td_api@td@@@42@AEBV?$basic_string@DU?$char_traits@D@std@@V?$allocator@D@2@@std@@$$QEAV?$unique_ptr@VMessageContent@td_api@td@@@42@$$QEAV?$unique_ptr@VReplyMarkup@td_api@td@@@42@@Z @150 NONAME
??0messageSenderChat@td_api@td@@QEAA@$$QEAV012@@Z @151 NONAME
??0messageSenderChat@td_api@td@@QEAA@XZ @152 NONAME
??0messageSenderChat@td_api@td@@QEAA@_J@Z @153 NONAME
??0messageTopicForum@td_api@td@@QEAA@$$QEAV012@@Z @154 NONAME
??0messageTopicForum@td_api@td@@QEAA@H@Z @155 NONAME
??0messageTopicForum@td_api@td@@QEAA@XZ @156 NONAME
??0messageTopicThread@td_api@td@@QEAA@$$QEAV012@@Z @157 NONAME
??0messageTopicThread@td_api@td@@QEAA@XZ @158 NONAME
??0messageTopicThread@td_api@td@@QEAA@_J@Z @159 NONAME
??0preliminaryUploadFile@td_api@td@@QEAA@$$QEAV012@@Z @160 NONAME
??0preliminaryUploadFile@td_api@td@@QEAA@$$QEAV?$unique_ptr@VInputFile@td_api@td@@@tl@2@$$QEAV?$unique_ptr@VFileType@td_api@td@@@42@H@Z @161 NONAME
??0preliminaryUploadFile@td_api@td@@QEAA@XZ @162 NONAME
??0proxy@td_api@td@@QEAA@$$QEAV012@@Z @163 NONAME
??0proxy@td_api@td@@QEAA@AEBV?$basic_string@DU?$char_traits@D@std@@V?$allocator@D@2@@std@@H$$QEAV?$unique_ptr@VProxyType@td_api@td@@@tl@2@@Z @164 NONAME
??0proxy@td_api@td@@QEAA@XZ @165 NONAME
??0proxyTypeHttp@td_api@td@@QEAA@$$QEAV012@@Z @166 NONAME
??0proxyTypeHttp@td_api@td@@QEAA@AEBV?$basic_string@DU?$char_traits@D@std@@V?$allocator@D@2@@std@@0_N@Z @167 NONAME
??0proxyTypeHttp@td_api@td@@QEAA@XZ @168 NONAME
??0proxyTypeMtproto@td_api@td@@QEAA@$$QEAV012@@Z @169 NONAME
??0proxyTypeMtproto@td_api@td@@QEAA@AEBV?$basic_string@DU?$char_traits@D@std@@V?$allocator@D@2@@std@@@Z @170 NONAME
??0proxyTypeMtproto@td_api@td@@QEAA@XZ @171 NONAME
??0proxyTypeSocks5@td_api@td@@QEAA@$$QEAV012@@Z @172 NONAME
??0proxyTypeSocks5@td_api@td@@QEAA@AEBV?$basic_string@DU?$char_traits@D@std@@V?$allocator@D@2@@std@@0@Z @173 NONAME
??0proxyTypeSocks5@td_api@td@@QEAA@XZ @174 NONAME
??0reactionTypeEmoji@td_api@td@@QEAA@$$QEAV012@@Z @175 NONAME
??0reactionTypeEmoji@td_api@td@@QEAA@AEBV?$basic_string@DU?$char_traits@D@std@@V?$allocator@D@2@@std@@@Z @176 NONAME
??0reactionTypeEmoji@td_api@td@@QEAA@XZ @177 NONAME
??0removeContacts@td_api@td@@QEAA@$$QEAV012@@Z @178 NONAME
??0removeContacts@td_api@td@@QEAA@$$QEAV?$vector@_JV?$allocator@_J@std@@@std@@@Z @179 NONAME
??0removeContacts@td_api@td@@QEAA@XZ @180 NONAME
??0searchChatsOnServer@td_api@td@@QEAA@$$QEAV012@@Z @181 NONAME
??0searchChatsOnServer@td_api@td@@QEAA@AEBV?$basic_string@DU?$char_traits@D@std@@V?$allocator@D@2@@std@@H@Z @182 NONAME
??0searchChatsOnServer@td_api@td@@QEAA@XZ @183 NONAME
??0searchPublicChats@td_api@td@@QEAA@$$QEAV012@@Z @184 NONAME
??0searchPublicChats@td_api@td@@QEAA@AEBV?$basic_string@DU?$char_traits@D@std@@V?$allocator@D@2@@std@@@Z @185 NONAME
??0searchPublicChats@td_api@td@@QEAA@XZ @186 NONAME
??0sendChatAction@td_api@td@@QEAA@$$QEAV012@@Z @187 NONAME
??0sendChatAction@td_api@td@@QEAA@XZ @188 NONAME
??0sendChatAction@td_api@td@@QEAA@_J$$QEAV?$unique_ptr@VMessageTopic@td_api@td@@@tl@2@AEBV?$basic_string@DU?$char_traits@D@std@@V?$allocator@D@2@@std@@$$QEAV?$unique_ptr@VChatAction@td_api@td@@@42@@Z @189 NONAME
??0sendMessage@td_api@td@@QEAA@$$QEAV012@@Z @190 NONAME
??0sendMessage@td_api@td@@QEAA@XZ @191 NONAME
??0sendMessage@td_api@td@@QEAA@_J$$QEAV?$unique_ptr@VMessageTopic@td_api@td@@@tl@2@$$QEAV?$unique_ptr@VInputMessageReplyTo@td_api@td@@@42@$$QEAV?$unique_ptr@VmessageSendOptions@td_api@td@@@42@$$QEAV?$unique_ptr@VReplyMarkup@td_api@td@@@42@$$QEAV?$unique_ptr@VInputMessageContent@td_api@td@@@42@@Z @192 NONAME
??0sendMessageAlbum@td_api@td@@QEAA@$$QEAV012@@Z @193 NONAME
??0sendMessageAlbum@td_api@td@@QEAA@XZ @194 NONAME
??0sendMessageAlbum@td_api@td@@QEAA@_J$$QEAV?$unique_ptr@VMessageTopic@td_api@td@@@tl@2@$$QEAV?$unique_ptr@VInputMessageReplyTo@td_api@td@@@42@$$QEAV?$unique_ptr@VmessageSendOptions@td_api@td@@@42@$$QEAV?$vector@V?$unique_ptr@VInputMessageContent@td_api@td@@@tl@td@@V?$allocator@V?$unique_ptr@VInputMessageContent@td_api@td@@@tl@td@@@std@@@std@@@Z @195 NONAME
??0setAuthenticationEmailAddress@td_api@td@@QEAA@$$QEAV012@@Z @196 NONAME
??0setAuthenticationEmailAddress@td_api@td@@QEAA@AEBV?$basic_string@DU?$char_traits@D@std@@V?$allocator@D@2@@std@@@Z @197 NONAME
??0setAuthenticationEmailAddress@td_api@td@@QEAA@XZ @198 NONAME
??0setAuthenticationPhoneNumber@td_api@td@@QEAA@$$QEAV012@@Z @199 NONAME
??0setAuthenticationPhoneNumber@td_api@td@@QEAA@AEBV?$basic_string@DU?$char_traits@D@std@@V?$allocator@D@2@@std@@$$QEAV?$unique_ptr@VphoneNumberAuthenticationSettings@td_api@td@@@tl@2@@Z @200 NONAME
??0setAuthenticationPhoneNumber@td_api@td@@QEAA@XZ @201 NONAME
??0setChatNotificationSettings@td_api@td@@QEAA@$$QEAV012@@Z @202 NONAME
??0setChatNotificationSettings@td_api@td@@QEAA@XZ @203 NONAME
??0setChatNotificationSettings@td_api@td@@QEAA@_J$$QEAV?$unique_ptr@VchatNotificationSettings@td_api@td@@@tl@2@@Z @204 NONAME
??0setProfilePhoto@td_api@td@@QEAA@$$QEAV012@@Z @205 NONAME
??0setProfilePhoto@td_api@td@@QEAA@$$QEAV?$unique_ptr@VInputChatPhoto@td_api@td@@@tl@2@_N@Z @206 NONAME
??0setProfilePhoto@td_api@td@@QEAA@XZ @207 NONAME
??0setTdlibParameters@td_api@td@@QEAA@$$QEAV012@@Z @208 NONAME
??0setTdlibParameters@td_api@td@@QEAA@XZ @209 NONAME
??0setTdlibParameters@td_api@td@@QEAA@_NAEBV?$basic_string@DU?$char_traits@D@std@@V?$allocator@D@2@@std@@110000H11111@Z @210 NONAME
??0terminateSession@td_api@td@@QEAA@$$QEAV012@@Z @211 NONAME
??0terminateSession@td_api@td@@QEAA@XZ @212 NONAME
??0terminateSession@td_api@td@@QEAA@_J@Z @213 NONAME
??0textEntity@td_api@td@@QEAA@$$QEAV012@@Z @214 NONAME
??0textEntity@td_api@td@@QEAA@HH$$QEAV?$unique_ptr@VTextEntityType@td_api@td@@@tl@2@@Z @215 NONAME
??0textEntity@td_api@td@@QEAA@XZ @216 NONAME
??0textEntityTypeBlockQuote@td_api@td@@QEAA@$$QEAV012@@Z @217 NONAME
??0textEntityTypeBlockQuote@td_api@td@@QEAA@XZ @218 NONAME
??0textEntityTypeBold@td_api@td@@QEAA@$$QEAV012@@Z @219 NONAME
??0textEntityTypeBold@td_api@td@@QEAA@XZ @220 NONAME
??0textEntityTypeCode@td_api@td@@QEAA@$$QEAV012@@Z @221 NONAME
??0textEntityTypeCode@td_api@td@@QEAA@XZ @222 NONAME
??0textEntityTypeItalic@td_api@td@@QEAA@$$QEAV012@@Z @223 NONAME
??0textEntityTypeItalic@td_api@td@@QEAA@XZ @224 NONAME
??0textEntityTypeStrikethrough@td_api@td@@QEAA@$$QEAV012@@Z @225 NONAME
??0textEntityTypeStrikethrough@td_api@td@@QEAA@XZ @226 NONAME
??0textEntityTypeUnderline@td_api@td@@QEAA@$$QEAV012@@Z @227 NONAME
??0textEntityTypeUnderline@td_api@td@@QEAA@XZ @228 NONAME
??0textEntityTypeUrl@td_api@td@@QEAA@$$QEAV012@@Z @229 NONAME
??0textEntityTypeUrl@td_api@td@@QEAA@XZ @230 NONAME
??0viewMessages@td_api@td@@QEAA@$$QEAV012@@Z @231 NONAME
??0viewMessages@td_api@td@@QEAA@XZ @232 NONAME
??0viewMessages@td_api@td@@QEAA@_J$$QEAV?$vector@_JV?$allocator@_J@std@@@std@@$$QEAV?$unique_ptr@VMessageSource@td_api@td@@@tl@2@_N@Z @233 NONAME
??1ClientManager@td@@QEAA@XZ @234 NONAME
??1addMessageReaction@td_api@td@@UEAA@XZ @235 NONAME
??1addProxy@td_api@td@@UEAA@XZ @236 NONAME
??1cancelPreliminaryUploadFile@td_api@td@@UEAA@XZ @237 NONAME
??1chatActionTyping@td_api@td@@UEAA@XZ @238 NONAME
??1chatNotificationSettings@td_api@td@@UEAA@XZ @239 NONAME
??1checkAuthenticationCode@td_api@td@@UEAA@XZ @240 NONAME
??1checkAuthenticationEmailCode@td_api@td@@UEAA@XZ @241 NONAME
??1checkAuthenticationPassword@td_api@td@@UEAA@XZ @242 NONAME
??1close@td_api@td@@UEAA@XZ @243 NONAME
??1contact@td_api@td@@UEAA@XZ @244 NONAME
??1createPrivateChat@td_api@td@@UEAA@XZ @245 NONAME
??1deleteChat@td_api@td@@UEAA@XZ @246 NONAME
??1deleteChatHistory@td_api@td@@UEAA@XZ @247 NONAME
??1deleteMessages@td_api@td@@UEAA@XZ @248 NONAME
??1downloadFile@td_api@td@@UEAA@XZ @249 NONAME
??1editMessageText@td_api@td@@UEAA@XZ @250 NONAME
??1emailAddressAuthenticationCode@td_api@td@@UEAA@XZ @251 NONAME
??1fileTypeAudio@td_api@td@@UEAA@XZ @252 NONAME
??1fileTypeDocument@td_api@td@@UEAA@XZ @253 NONAME
??1fileTypePhoto@td_api@td@@UEAA@XZ @254 NONAME
??1fileTypeVideo@td_api@td@@UEAA@XZ @255 NONAME
??1formattedText@td_api@td@@UEAA@XZ @256 NONAME
??1forwardMessages@td_api@td@@UEAA@XZ @257 NONAME
??1getActiveSessions@td_api@td@@UEAA@XZ @258 NONAME
??1getBasicGroupFullInfo@td_api@td@@UEAA@XZ @259 NONAME
??1getChat@td_api@td@@UEAA@XZ @260 NONAME
??1getChatHistory@td_api@td@@UEAA@XZ @261 NONAME
??1getChats@td_api@td@@UEAA@XZ @262 NONAME
??1getForumTopics@td_api@td@@UEAA@XZ @263 NONAME
??1getMessage@td_api@td@@UEAA@XZ @264 NONAME
??1getMessageThreadHistory@td_api@td@@UEAA@XZ @265 NONAME
??1getOption@td_api@td@@UEAA@XZ @266 NONAME
??1getRemoteFile@td_api@td@@UEAA@XZ @267 NONAME
??1getSupergroupFullInfo@td_api@td@@UEAA@XZ @268 NONAME
??1getSupergroupMembers@td_api@td@@UEAA@XZ @269 NONAME
??1getUserFullInfo@td_api@td@@UEAA@XZ @270 NONAME
??1importContacts@td_api@td@@UEAA@XZ @271 NONAME
??1importedContact@td_api@td@@UEAA@XZ @272 NONAME
??1inputChatPhotoStatic@td_api@td@@UEAA@XZ @273 NONAME
??1inputFileId@td_api@td@@UEAA@XZ @274 NONAME
??1inputFileLocal@td_api@td@@UEAA@XZ @275 NONAME
??1inputFileRemote@td_api@td@@UEAA@XZ @276 NONAME
??1inputMessageAudio@td_api@td@@UEAA@XZ @277 NONAME
??1inputMessageDocument@td_api@td@@UEAA@XZ @278 NONAME
??1inputMessagePhoto@td_api@td@@UEAA@XZ @279 NONAME
??1inputMessageReplyToMessage@td_api@td@@UEAA@XZ @280 NONAME
??1inputMessageText@td_api@td@@UEAA@XZ @281 NONAME
??1inputMessageVideo@td_api@td@@UEAA@XZ @282 NONAME
??1joinChat@td_api@td@@UEAA@XZ @283 NONAME
??1leaveChat@td_api@td@@UEAA@XZ @284 NONAME
??1logOut@td_api@td@@UEAA@XZ @285 NONAME
??1message@td_api@td@@UEAA@XZ @286 NONAME
??1messageSenderChat@td_api@td@@UEAA@XZ @287 NONAME
??1messageTopicForum@td_api@td@@UEAA@XZ @288 NONAME
??1messageTopicThread@td_api@td@@UEAA@XZ @289 NONAME
??1preliminaryUploadFile@td_api@td@@UEAA@XZ @290 NONAME
??1proxy@td_api@td@@UEAA@XZ @291 NONAME
??1proxyTypeHttp@td_api@td@@UEAA@XZ @292 NONAME
??1proxyTypeMtproto@td_api@td@@UEAA@XZ @293 NONAME
??1proxyTypeSocks5@td_api@td@@UEAA@XZ @294 NONAME
??1reactionTypeEmoji@td_api@td@@UEAA@XZ @295 NONAME
??1removeContacts@td_api@td@@UEAA@XZ @296 NONAME
??1searchChatsOnServer@td_api@td@@UEAA@XZ @297 NONAME
??1searchPublicChats@td_api@td@@UEAA@XZ @298 NONAME
??1sendChatAction@td_api@td@@UEAA@XZ @299 NONAME
??1sendMessage@td_api@td@@UEAA@XZ @300 NONAME
??1sendMessageAlbum@td_api@td@@UEAA@XZ @301 NONAME
??1setAuthenticationEmailAddress@td_api@td@@UEAA@XZ @302 NONAME
??1setAuthenticationPhoneNumber@td_api@td@@UEAA@XZ @303 NONAME
??1setChatNotificationSettings@td_api@td@@UEAA@XZ @304 NONAME
??1setProfilePhoto@td_api@td@@UEAA@XZ @305 NONAME
??1setTdlibParameters@td_api@td@@UEAA@XZ @306 NONAME
??1terminateSession@td_api@td@@UEAA@XZ @307 NONAME
??1textEntity@td_api@td@@UEAA@XZ @308 NONAME
??1textEntityTypeBlockQuote@td_api@td@@UEAA@XZ @309 NONAME
??1textEntityTypeBold@td_api@td@@UEAA@XZ @310 NONAME
??1textEntityTypeCode@td_api@td@@UEAA@XZ @311 NONAME
??1textEntityTypeItalic@td_api@td@@UEAA@XZ @312 NONAME
??1textEntityTypeStrikethrough@td_api@td@@UEAA@XZ @313 NONAME
??1textEntityTypeUnderline@td_api@td@@UEAA@XZ @314 NONAME
??1textEntityTypeUrl@td_api@td@@UEAA@XZ @315 NONAME
??1viewMessages@td_api@td@@UEAA@XZ @316 NONAME
??4ClientManager@td@@QEAAAEAV01@$$QEAV01@@Z @317 NONAME
??4addMessageReaction@td_api@td@@QEAAAEAV012@$$QEAV012@@Z @318 NONAME
??4addProxy@td_api@td@@QEAAAEAV012@$$QEAV012@@Z @319 NONAME
??4cancelPreliminaryUploadFile@td_api@td@@QEAAAEAV012@$$QEAV012@@Z @320 NONAME
??4chatActionTyping@td_api@td@@QEAAAEAV012@$$QEAV012@@Z @321 NONAME
??4chatNotificationSettings@td_api@td@@QEAAAEAV012@$$QEAV012@@Z @322 NONAME
??4checkAuthenticationCode@td_api@td@@QEAAAEAV012@$$QEAV012@@Z @323 NONAME
??4checkAuthenticationEmailCode@td_api@td@@QEAAAEAV012@$$QEAV012@@Z @324 NONAME
??4checkAuthenticationPassword@td_api@td@@QEAAAEAV012@$$QEAV012@@Z @325 NONAME
??4close@td_api@td@@QEAAAEAV012@$$QEAV012@@Z @326 NONAME
??4contact@td_api@td@@QEAAAEAV012@$$QEAV012@@Z @327 NONAME
??4createPrivateChat@td_api@td@@QEAAAEAV012@$$QEAV012@@Z @328 NONAME
??4deleteChat@td_api@td@@QEAAAEAV012@$$QEAV012@@Z @329 NONAME
??4deleteChatHistory@td_api@td@@QEAAAEAV012@$$QEAV012@@Z @330 NONAME
??4deleteMessages@td_api@td@@QEAAAEAV012@$$QEAV012@@Z @331 NONAME
??4downloadFile@td_api@td@@QEAAAEAV012@$$QEAV012@@Z @332 NONAME
??4editMessageText@td_api@td@@QEAAAEAV012@$$QEAV012@@Z @333 NONAME
??4emailAddressAuthenticationCode@td_api@td@@QEAAAEAV012@$$QEAV012@@Z @334 NONAME
??4fileTypeAudio@td_api@td@@QEAAAEAV012@$$QEAV012@@Z @335 NONAME
??4fileTypeDocument@td_api@td@@QEAAAEAV012@$$QEAV012@@Z @336 NONAME
??4fileTypePhoto@td_api@td@@QEAAAEAV012@$$QEAV012@@Z @337 NONAME
??4fileTypeVideo@td_api@td@@QEAAAEAV012@$$QEAV012@@Z @338 NONAME
??4formattedText@td_api@td@@QEAAAEAV012@$$QEAV012@@Z @339 NONAME
??4forwardMessages@td_api@td@@QEAAAEAV012@$$QEAV012@@Z @340 NONAME
??4getActiveSessions@td_api@td@@QEAAAEAV012@$$QEAV012@@Z @341 NONAME
??4getBasicGroupFullInfo@td_api@td@@QEAAAEAV012@$$QEAV012@@Z @342 NONAME
??4getChat@td_api@td@@QEAAAEAV012@$$QEAV012@@Z @343 NONAME
??4getChatHistory@td_api@td@@QEAAAEAV012@$$QEAV012@@Z @344 NONAME
??4getChats@td_api@td@@QEAAAEAV012@$$QEAV012@@Z @345 NONAME
??4getForumTopics@td_api@td@@QEAAAEAV012@$$QEAV012@@Z @346 NONAME
??4getMessage@td_api@td@@QEAAAEAV012@$$QEAV012@@Z @347 NONAME
??4getMessageThreadHistory@td_api@td@@QEAAAEAV012@$$QEAV012@@Z @348 NONAME
??4getOption@td_api@td@@QEAAAEAV012@$$QEAV012@@Z @349 NONAME
??4getRemoteFile@td_api@td@@QEAAAEAV012@$$QEAV012@@Z @350 NONAME
??4getSupergroupFullInfo@td_api@td@@QEAAAEAV012@$$QEAV012@@Z @351 NONAME
??4getSupergroupMembers@td_api@td@@QEAAAEAV012@$$QEAV012@@Z @352 NONAME
??4getUserFullInfo@td_api@td@@QEAAAEAV012@$$QEAV012@@Z @353 NONAME
??4importContacts@td_api@td@@QEAAAEAV012@$$QEAV012@@Z @354 NONAME
??4importedContact@td_api@td@@QEAAAEAV012@$$QEAV012@@Z @355 NONAME
??4inputChatPhotoStatic@td_api@td@@QEAAAEAV012@$$QEAV012@@Z @356 NONAME
??4inputFileId@td_api@td@@QEAAAEAV012@$$QEAV012@@Z @357 NONAME
??4inputFileLocal@td_api@td@@QEAAAEAV012@$$QEAV012@@Z @358 NONAME
??4inputFileRemote@td_api@td@@QEAAAEAV012@$$QEAV012@@Z @359 NONAME
??4inputMessageAudio@td_api@td@@QEAAAEAV012@$$QEAV012@@Z @360 NONAME
??4inputMessageDocument@td_api@td@@QEAAAEAV012@$$QEAV012@@Z @361 NONAME
??4inputMessagePhoto@td_api@td@@QEAAAEAV012@$$QEAV012@@Z @362 NONAME
??4inputMessageReplyToMessage@td_api@td@@QEAAAEAV012@$$QEAV012@@Z @363 NONAME
??4inputMessageText@td_api@td@@QEAAAEAV012@$$QEAV012@@Z @364 NONAME
??4inputMessageVideo@td_api@td@@QEAAAEAV012@$$QEAV012@@Z @365 NONAME
??4joinChat@td_api@td@@QEAAAEAV012@$$QEAV012@@Z @366 NONAME
??4leaveChat@td_api@td@@QEAAAEAV012@$$QEAV012@@Z @367 NONAME
??4logOut@td_api@td@@QEAAAEAV012@$$QEAV012@@Z @368 NONAME
??4message@td_api@td@@QEAAAEAV012@$$QEAV012@@Z @369 NONAME
??4messageSenderChat@td_api@td@@QEAAAEAV012@$$QEAV012@@Z @370 NONAME
??4messageTopicForum@td_api@td@@QEAAAEAV012@$$QEAV012@@Z @371 NONAME
??4messageTopicThread@td_api@td@@QEAAAEAV012@$$QEAV012@@Z @372 NONAME
??4preliminaryUploadFile@td_api@td@@QEAAAEAV012@$$QEAV012@@Z @373 NONAME
??4proxy@td_api@td@@QEAAAEAV012@$$QEAV012@@Z @374 NONAME
??4proxyTypeHttp@td_api@td@@QEAAAEAV012@$$QEAV012@@Z @375 NONAME
??4proxyTypeMtproto@td_api@td@@QEAAAEAV012@$$QEAV012@@Z @376 NONAME
??4proxyTypeSocks5@td_api@td@@QEAAAEAV012@$$QEAV012@@Z @377 NONAME
??4reactionTypeEmoji@td_api@td@@QEAAAEAV012@$$QEAV012@@Z @378 NONAME
??4removeContacts@td_api@td@@QEAAAEAV012@$$QEAV012@@Z @379 NONAME
??4searchChatsOnServer@td_api@td@@QEAAAEAV012@$$QEAV012@@Z @380 NONAME
??4searchPublicChats@td_api@td@@QEAAAEAV012@$$QEAV012@@Z @381 NONAME
??4sendChatAction@td_api@td@@QEAAAEAV012@$$QEAV012@@Z @382 NONAME
??4sendMessage@td_api@td@@QEAAAEAV012@$$QEAV012@@Z @383 NONAME
??4sendMessageAlbum@td_api@td@@QEAAAEAV012@$$QEAV012@@Z @384 NONAME
??4setAuthenticationEmailAddress@td_api@td@@QEAAAEAV012@$$QEAV012@@Z @385 NONAME
??4setAuthenticationPhoneNumber@td_api@td@@QEAAAEAV012@$$QEAV012@@Z @386 NONAME
??4setChatNotificationSettings@td_api@td@@QEAAAEAV012@$$QEAV012@@Z @387 NONAME
??4setProfilePhoto@td_api@td@@QEAAAEAV012@$$QEAV012@@Z @388 NONAME
??4setTdlibParameters@td_api@td@@QEAAAEAV012@$$QEAV012@@Z @389 NONAME
??4terminateSession@td_api@td@@QEAAAEAV012@$$QEAV012@@Z @390 NONAME
??4textEntity@td_api@td@@QEAAAEAV012@$$QEAV012@@Z @391 NONAME
??4textEntityTypeBlockQuote@td_api@td@@QEAAAEAV012@$$QEAV012@@Z @392 NONAME
??4textEntityTypeBold@td_api@td@@QEAAAEAV012@$$QEAV012@@Z @393 NONAME
??4textEntityTypeCode@td_api@td@@QEAAAEAV012@$$QEAV012@@Z @394 NONAME
??4textEntityTypeItalic@td_api@td@@QEAAAEAV012@$$QEAV012@@Z @395 NONAME
??4textEntityTypeStrikethrough@td_api@td@@QEAAAEAV012@$$QEAV012@@Z @396 NONAME
??4textEntityTypeUnderline@td_api@td@@QEAAAEAV012@$$QEAV012@@Z @397 NONAME
??4textEntityTypeUrl@td_api@td@@QEAAAEAV012@$$QEAV012@@Z @398 NONAME
??4viewMessages@td_api@td@@QEAAAEAV012@$$QEAV012@@Z @399 NONAME
??_7addMessageReaction@td_api@td@@6B@ @400 NONAME
??_7addProxy@td_api@td@@6B@ @401 NONAME
??_7cancelPreliminaryUploadFile@td_api@td@@6B@ @402 NONAME
??_7chatActionTyping@td_api@td@@6B@ @403 NONAME
??_7chatNotificationSettings@td_api@td@@6B@ @404 NONAME
??_7checkAuthenticationCode@td_api@td@@6B@ @405 NONAME
??_7checkAuthenticationEmailCode@td_api@td@@6B@ @406 NONAME
??_7checkAuthenticationPassword@td_api@td@@6B@ @407 NONAME
??_7close@td_api@td@@6B@ @408 NONAME
??_7contact@td_api@td@@6B@ @409 NONAME
??_7createPrivateChat@td_api@td@@6B@ @410 NONAME
??_7deleteChat@td_api@td@@6B@ @411 NONAME
??_7deleteChatHistory@td_api@td@@6B@ @412 NONAME
??_7deleteMessages@td_api@td@@6B@ @413 NONAME
??_7downloadFile@td_api@td@@6B@ @414 NONAME
??_7editMessageText@td_api@td@@6B@ @415 NONAME
??_7emailAddressAuthenticationCode@td_api@td@@6B@ @416 NONAME
??_7fileTypeAudio@td_api@td@@6B@ @417 NONAME
??_7fileTypeDocument@td_api@td@@6B@ @418 NONAME
??_7fileTypePhoto@td_api@td@@6B@ @419 NONAME
??_7fileTypeVideo@td_api@td@@6B@ @420 NONAME
??_7formattedText@td_api@td@@6B@ @421 NONAME
??_7forwardMessages@td_api@td@@6B@ @422 NONAME
??_7getActiveSessions@td_api@td@@6B@ @423 NONAME
??_7getBasicGroupFullInfo@td_api@td@@6B@ @424 NONAME
??_7getChat@td_api@td@@6B@ @425 NONAME
??_7getChatHistory@td_api@td@@6B@ @426 NONAME
??_7getChats@td_api@td@@6B@ @427 NONAME
??_7getForumTopics@td_api@td@@6B@ @428 NONAME
??_7getMessage@td_api@td@@6B@ @429 NONAME
??_7getMessageThreadHistory@td_api@td@@6B@ @430 NONAME
??_7getOption@td_api@td@@6B@ @431 NONAME
??_7getRemoteFile@td_api@td@@6B@ @432 NONAME
??_7getSupergroupFullInfo@td_api@td@@6B@ @433 NONAME
??_7getSupergroupMembers@td_api@td@@6B@ @434 NONAME
??_7getUserFullInfo@td_api@td@@6B@ @435 NONAME
??_7importContacts@td_api@td@@6B@ @436 NONAME
??_7importedContact@td_api@td@@6B@ @437 NONAME
??_7inputChatPhotoStatic@td_api@td@@6B@ @438 NONAME
??_7inputFileId@td_api@td@@6B@ @439 NONAME
??_7inputFileLocal@td_api@td@@6B@ @440 NONAME
??_7inputFileRemote@td_api@td@@6B@ @441 NONAME
??_7inputMessageAudio@td_api@td@@6B@ @442 NONAME
??_7inputMessageDocument@td_api@td@@6B@ @443 NONAME
??_7inputMessagePhoto@td_api@td@@6B@ @444 NONAME
??_7inputMessageReplyToMessage@td_api@td@@6B@ @445 NONAME
??_7inputMessageText@td_api@td@@6B@ @446 NONAME
??_7inputMessageVideo@td_api@td@@6B@ @447 NONAME
??_7joinChat@td_api@td@@6B@ @448 NONAME
??_7leaveChat@td_api@td@@6B@ @449 NONAME
??_7logOut@td_api@td@@6B@ @450 NONAME
??_7message@td_api@td@@6B@ @451 NONAME
??_7messageSenderChat@td_api@td@@6B@ @452 NONAME
??_7messageTopicForum@td_api@td@@6B@ @453 NONAME
??_7messageTopicThread@td_api@td@@6B@ @454 NONAME
??_7preliminaryUploadFile@td_api@td@@6B@ @455 NONAME
??_7proxy@td_api@td@@6B@ @456 NONAME
??_7proxyTypeHttp@td_api@td@@6B@ @457 NONAME
??_7proxyTypeMtproto@td_api@td@@6B@ @458 NONAME
??_7proxyTypeSocks5@td_api@td@@6B@ @459 NONAME
??_7reactionTypeEmoji@td_api@td@@6B@ @460 NONAME
??_7removeContacts@td_api@td@@6B@ @461 NONAME
??_7searchChatsOnServer@td_api@td@@6B@ @462 NONAME
??_7searchPublicChats@td_api@td@@6B@ @463 NONAME
??_7sendChatAction@td_api@td@@6B@ @464 NONAME
??_7sendMessage@td_api@td@@6B@ @465 NONAME
??_7sendMessageAlbum@td_api@td@@6B@ @466 NONAME
??_7setAuthenticationEmailAddress@td_api@td@@6B@ @467 NONAME
??_7setAuthenticationPhoneNumber@td_api@td@@6B@ @468 NONAME
??_7setChatNotificationSettings@td_api@td@@6B@ @469 NONAME
??_7setProfilePhoto@td_api@td@@6B@ @470 NONAME
??_7setTdlibParameters@td_api@td@@6B@ @471 NONAME
??_7terminateSession@td_api@td@@6B@ @472 NONAME
??_7textEntity@td_api@td@@6B@ @473 NONAME
??_7textEntityTypeBlockQuote@td_api@td@@6B@ @474 NONAME
??_7textEntityTypeBold@td_api@td@@6B@ @475 NONAME
??_7textEntityTypeCode@td_api@td@@6B@ @476 NONAME
??_7textEntityTypeItalic@td_api@td@@6B@ @477 NONAME
??_7textEntityTypeStrikethrough@td_api@td@@6B@ @478 NONAME
??_7textEntityTypeUnderline@td_api@td@@6B@ @479 NONAME
??_7textEntityTypeUrl@td_api@td@@6B@ @480 NONAME
??_7viewMessages@td_api@td@@6B@ @481 NONAME
?ID@addMessageReaction@td_api@td@@2HB @482 NONAME
?ID@addProxy@td_api@td@@2HB @483 NONAME
?ID@cancelPreliminaryUploadFile@td_api@td@@2HB @484 NONAME
?ID@chatActionTyping@td_api@td@@2HB @485 NONAME
?ID@chatNotificationSettings@td_api@td@@2HB @486 NONAME
?ID@checkAuthenticationCode@td_api@td@@2HB @487 NONAME
?ID@checkAuthenticationEmailCode@td_api@td@@2HB @488 NONAME
?ID@checkAuthenticationPassword@td_api@td@@2HB @489 NONAME
?ID@close@td_api@td@@2HB @490 NONAME
?ID@contact@td_api@td@@2HB @491 NONAME
?ID@createPrivateChat@td_api@td@@2HB @492 NONAME
?ID@deleteChat@td_api@td@@2HB @493 NONAME
?ID@deleteChatHistory@td_api@td@@2HB @494 NONAME
?ID@deleteMessages@td_api@td@@2HB @495 NONAME
?ID@downloadFile@td_api@td@@2HB @496 NONAME
?ID@editMessageText@td_api@td@@2HB @497 NONAME
?ID@emailAddressAuthenticationCode@td_api@td@@2HB @498 NONAME
?ID@fileTypeAudio@td_api@td@@2HB @499 NONAME
?ID@fileTypeDocument@td_api@td@@2HB @500 NONAME
?ID@fileTypePhoto@td_api@td@@2HB @501 NONAME
?ID@fileTypeVideo@td_api@td@@2HB @502 NONAME
?ID@formattedText@td_api@td@@2HB @503 NONAME
?ID@forwardMessages@td_api@td@@2HB @504 NONAME
?ID@getActiveSessions@td_api@td@@2HB @505 NONAME
?ID@getBasicGroupFullInfo@td_api@td@@2HB @506 NONAME
?ID@getChat@td_api@td@@2HB @507 NONAME
?ID@getChatHistory@td_api@td@@2HB @508 NONAME
?ID@getChats@td_api@td@@2HB @509 NONAME
?ID@getForumTopics@td_api@td@@2HB @510 NONAME
?ID@getMessage@td_api@td@@2HB @511 NONAME
?ID@getMessageThreadHistory@td_api@td@@2HB @512 NONAME
?ID@getOption@td_api@td@@2HB @513 NONAME
?ID@getRemoteFile@td_api@td@@2HB @514 NONAME
?ID@getSupergroupFullInfo@td_api@td@@2HB @515 NONAME
?ID@getSupergroupMembers@td_api@td@@2HB @516 NONAME
?ID@getUserFullInfo@td_api@td@@2HB @517 NONAME
?ID@importContacts@td_api@td@@2HB @518 NONAME
?ID@importedContact@td_api@td@@2HB @519 NONAME
?ID@inputChatPhotoStatic@td_api@td@@2HB @520 NONAME
?ID@inputFileId@td_api@td@@2HB @521 NONAME
?ID@inputFileLocal@td_api@td@@2HB @522 NONAME
?ID@inputFileRemote@td_api@td@@2HB @523 NONAME
?ID@inputMessageAudio@td_api@td@@2HB @524 NONAME
?ID@inputMessageDocument@td_api@td@@2HB @525 NONAME
?ID@inputMessagePhoto@td_api@td@@2HB @526 NONAME
?ID@inputMessageReplyToMessage@td_api@td@@2HB @527 NONAME
?ID@inputMessageText@td_api@td@@2HB @528 NONAME
?ID@inputMessageVideo@td_api@td@@2HB @529 NONAME
?ID@joinChat@td_api@td@@2HB @530 NONAME
?ID@leaveChat@td_api@td@@2HB @531 NONAME
?ID@logOut@td_api@td@@2HB @532 NONAME
?ID@message@td_api@td@@2HB @533 NONAME
?ID@messageSenderChat@td_api@td@@2HB @534 NONAME
?ID@messageTopicForum@td_api@td@@2HB @535 NONAME
?ID@messageTopicThread@td_api@td@@2HB @536 NONAME
?ID@preliminaryUploadFile@td_api@td@@2HB @537 NONAME
?ID@proxy@td_api@td@@2HB @538 NONAME
?ID@proxyTypeHttp@td_api@td@@2HB @539 NONAME
?ID@proxyTypeMtproto@td_api@td@@2HB @540 NONAME
?ID@proxyTypeSocks5@td_api@td@@2HB @541 NONAME
?ID@reactionTypeEmoji@td_api@td@@2HB @542 NONAME
?ID@removeContacts@td_api@td@@2HB @543 NONAME
?ID@searchChatsOnServer@td_api@td@@2HB @544 NONAME
?ID@searchPublicChats@td_api@td@@2HB @545 NONAME
?ID@sendChatAction@td_api@td@@2HB @546 NONAME
?ID@sendMessage@td_api@td@@2HB @547 NONAME
?ID@sendMessageAlbum@td_api@td@@2HB @548 NONAME
?ID@setAuthenticationEmailAddress@td_api@td@@2HB @549 NONAME
?ID@setAuthenticationPhoneNumber@td_api@td@@2HB @550 NONAME
?ID@setChatNotificationSettings@td_api@td@@2HB @551 NONAME
?ID@setProfilePhoto@td_api@td@@2HB @552 NONAME
?ID@setTdlibParameters@td_api@td@@2HB @553 NONAME
?ID@terminateSession@td_api@td@@2HB @554 NONAME
?ID@textEntity@td_api@td@@2HB @555 NONAME
?ID@textEntityTypeBlockQuote@td_api@td@@2HB @556 NONAME
?ID@textEntityTypeBold@td_api@td@@2HB @557 NONAME
?ID@textEntityTypeCode@td_api@td@@2HB @558 NONAME
?ID@textEntityTypeItalic@td_api@td@@2HB @559 NONAME
?ID@textEntityTypeStrikethrough@td_api@td@@2HB @560 NONAME
?ID@textEntityTypeUnderline@td_api@td@@2HB @561 NONAME
?ID@textEntityTypeUrl@td_api@td@@2HB @562 NONAME
?ID@viewMessages@td_api@td@@2HB @563 NONAME
?boo@@YAXXZ @564 NONAME
?create_client_id@ClientManager@td@@QEAAHXZ @565 NONAME
?execute@ClientManager@td@@SA?AV?$unique_ptr@VObject@td_api@td@@@tl@2@$$QEAV?$unique_ptr@VFunction@td_api@td@@@42@@Z @566 NONAME
?get_id@addMessageReaction@td_api@td@@EEBAHXZ @567 NONAME
?get_id@addProxy@td_api@td@@EEBAHXZ @568 NONAME
?get_id@cancelPreliminaryUploadFile@td_api@td@@EEBAHXZ @569 NONAME
?get_id@chatActionTyping@td_api@td@@EEBAHXZ @570 NONAME
?get_id@chatNotificationSettings@td_api@td@@EEBAHXZ @571 NONAME
?get_id@checkAuthenticationCode@td_api@td@@EEBAHXZ @572 NONAME
?get_id@checkAuthenticationEmailCode@td_api@td@@EEBAHXZ @573 NONAME
?get_id@checkAuthenticationPassword@td_api@td@@EEBAHXZ @574 NONAME
?get_id@close@td_api@td@@EEBAHXZ @575 NONAME
?get_id@contact@td_api@td@@EEBAHXZ @576 NONAME
?get_id@createPrivateChat@td_api@td@@EEBAHXZ @577 NONAME
?get_id@deleteChat@td_api@td@@EEBAHXZ @578 NONAME
?get_id@deleteChatHistory@td_api@td@@EEBAHXZ @579 NONAME
?get_id@deleteMessages@td_api@td@@EEBAHXZ @580 NONAME
?get_id@downloadFile@td_api@td@@EEBAHXZ @581 NONAME
?get_id@editMessageText@td_api@td@@EEBAHXZ @582 NONAME
?get_id@emailAddressAuthenticationCode@td_api@td@@EEBAHXZ @583 NONAME
?get_id@fileTypeAudio@td_api@td@@EEBAHXZ @584 NONAME
?get_id@fileTypeDocument@td_api@td@@EEBAHXZ @585 NONAME
?get_id@fileTypePhoto@td_api@td@@EEBAHXZ @586 NONAME
?get_id@fileTypeVideo@td_api@td@@EEBAHXZ @587 NONAME
?get_id@formattedText@td_api@td@@EEBAHXZ @588 NONAME
?get_id@forwardMessages@td_api@td@@EEBAHXZ @589 NONAME
?get_id@getActiveSessions@td_api@td@@EEBAHXZ @590 NONAME
?get_id@getBasicGroupFullInfo@td_api@td@@EEBAHXZ @591 NONAME
?get_id@getChat@td_api@td@@EEBAHXZ @592 NONAME
?get_id@getChatHistory@td_api@td@@EEBAHXZ @593 NONAME
?get_id@getChats@td_api@td@@EEBAHXZ @594 NONAME
?get_id@getForumTopics@td_api@td@@EEBAHXZ @595 NONAME
?get_id@getMessage@td_api@td@@EEBAHXZ @596 NONAME
?get_id@getMessageThreadHistory@td_api@td@@EEBAHXZ @597 NONAME
?get_id@getOption@td_api@td@@EEBAHXZ @598 NONAME
?get_id@getRemoteFile@td_api@td@@EEBAHXZ @599 NONAME
?get_id@getSupergroupFullInfo@td_api@td@@EEBAHXZ @600 NONAME
?get_id@getSupergroupMembers@td_api@td@@EEBAHXZ @601 NONAME
?get_id@getUserFullInfo@td_api@td@@EEBAHXZ @602 NONAME
?get_id@importContacts@td_api@td@@EEBAHXZ @603 NONAME
?get_id@importedContact@td_api@td@@EEBAHXZ @604 NONAME
?get_id@inputChatPhotoStatic@td_api@td@@EEBAHXZ @605 NONAME
?get_id@inputFileId@td_api@td@@EEBAHXZ @606 NONAME
?get_id@inputFileLocal@td_api@td@@EEBAHXZ @607 NONAME
?get_id@inputFileRemote@td_api@td@@EEBAHXZ @608 NONAME
?get_id@inputMessageAudio@td_api@td@@EEBAHXZ @609 NONAME
?get_id@inputMessageDocument@td_api@td@@EEBAHXZ @610 NONAME
?get_id@inputMessagePhoto@td_api@td@@EEBAHXZ @611 NONAME
?get_id@inputMessageReplyToMessage@td_api@td@@EEBAHXZ @612 NONAME
?get_id@inputMessageText@td_api@td@@EEBAHXZ @613 NONAME
?get_id@inputMessageVideo@td_api@td@@EEBAHXZ @614 NONAME
?get_id@joinChat@td_api@td@@EEBAHXZ @615 NONAME
?get_id@leaveChat@td_api@td@@EEBAHXZ @616 NONAME
?get_id@logOut@td_api@td@@EEBAHXZ @617 NONAME
?get_id@message@td_api@td@@EEBAHXZ @618 NONAME
?get_id@messageSenderChat@td_api@td@@EEBAHXZ @619 NONAME
?get_id@messageTopicForum@td_api@td@@EEBAHXZ @620 NONAME
?get_id@messageTopicThread@td_api@td@@EEBAHXZ @621 NONAME
?get_id@preliminaryUploadFile@td_api@td@@EEBAHXZ @622 NONAME
?get_id@proxy@td_api@td@@EEBAHXZ @623 NONAME
?get_id@proxyTypeHttp@td_api@td@@EEBAHXZ @624 NONAME
?get_id@proxyTypeMtproto@td_api@td@@EEBAHXZ @625 NONAME
?get_id@proxyTypeSocks5@td_api@td@@EEBAHXZ @626 NONAME
?get_id@reactionTypeEmoji@td_api@td@@EEBAHXZ @627 NONAME
?get_id@removeContacts@td_api@td@@EEBAHXZ @628 NONAME
?get_id@searchChatsOnServer@td_api@td@@EEBAHXZ @629 NONAME
?get_id@searchPublicChats@td_api@td@@EEBAHXZ @630 NONAME
?get_id@sendChatAction@td_api@td@@EEBAHXZ @631 NONAME
?get_id@sendMessage@td_api@td@@EEBAHXZ @632 NONAME
?get_id@sendMessageAlbum@td_api@td@@EEBAHXZ @633 NONAME
?get_id@setAuthenticationEmailAddress@td_api@td@@EEBAHXZ @634 NONAME
?get_id@setAuthenticationPhoneNumber@td_api@td@@EEBAHXZ @635 NONAME
?get_id@setChatNotificationSettings@td_api@td@@EEBAHXZ @636 NONAME
?get_id@setProfilePhoto@td_api@td@@EEBAHXZ @637 NONAME
?get_id@setTdlibParameters@td_api@td@@EEBAHXZ @638 NONAME
?get_id@terminateSession@td_api@td@@EEBAHXZ @639 NONAME
?get_id@textEntity@td_api@td@@EEBAHXZ @640 NONAME
?get_id@textEntityTypeBlockQuote@td_api@td@@EEBAHXZ @641 NONAME
?get_id@textEntityTypeBold@td_api@td@@EEBAHXZ @642 NONAME
?get_id@textEntityTypeCode@td_api@td@@EEBAHXZ @643 NONAME
?get_id@textEntityTypeItalic@td_api@td@@EEBAHXZ @644 NONAME
?get_id@textEntityTypeStrikethrough@td_api@td@@EEBAHXZ @645 NONAME
?get_id@textEntityTypeUnderline@td_api@td@@EEBAHXZ @646 NONAME
?get_id@textEntityTypeUrl@td_api@td@@EEBAHXZ @647 NONAME
?get_id@viewMessages@td_api@td@@EEBAHXZ @648 NONAME
?get_manager_singleton@ClientManager@td@@SAPEAV12@XZ @649 NONAME
?receive@ClientManager@td@@QEAA?AUResponse@12@N@Z @650 NONAME
?send@ClientManager@td@@QEAAXH_K$$QEAV?$unique_ptr@VFunction@td_api@td@@@tl@2@@Z @651 NONAME
?set_log_message_callback@ClientManager@td@@SAXHP6AXHPEBD@Z@Z @652 NONAME
?store@addMessageReaction@td_api@td@@UEBAXAEAVTlStorerToString@3@PEBD@Z @653 NONAME
?store@addProxy@td_api@td@@UEBAXAEAVTlStorerToString@3@PEBD@Z @654 NONAME
?store@cancelPreliminaryUploadFile@td_api@td@@UEBAXAEAVTlStorerToString@3@PEBD@Z @655 NONAME
?store@chatActionTyping@td_api@td@@UEBAXAEAVTlStorerToString@3@PEBD@Z @656 NONAME
?store@chatNotificationSettings@td_api@td@@UEBAXAEAVTlStorerToString@3@PEBD@Z @657 NONAME
?store@checkAuthenticationCode@td_api@td@@UEBAXAEAVTlStorerToString@3@PEBD@Z @658 NONAME
?store@checkAuthenticationEmailCode@td_api@td@@UEBAXAEAVTlStorerToString@3@PEBD@Z @659 NONAME
?store@checkAuthenticationPassword@td_api@td@@UEBAXAEAVTlStorerToString@3@PEBD@Z @660 NONAME
?store@close@td_api@td@@UEBAXAEAVTlStorerToString@3@PEBD@Z @661 NONAME
?store@contact@td_api@td@@UEBAXAEAVTlStorerToString@3@PEBD@Z @662 NONAME
?store@createPrivateChat@td_api@td@@UEBAXAEAVTlStorerToString@3@PEBD@Z @663 NONAME
?store@deleteChat@td_api@td@@UEBAXAEAVTlStorerToString@3@PEBD@Z @664 NONAME
?store@deleteChatHistory@td_api@td@@UEBAXAEAVTlStorerToString@3@PEBD@Z @665 NONAME
?store@deleteMessages@td_api@td@@UEBAXAEAVTlStorerToString@3@PEBD@Z @666 NONAME
?store@downloadFile@td_api@td@@UEBAXAEAVTlStorerToString@3@PEBD@Z @667 NONAME
?store@editMessageText@td_api@td@@UEBAXAEAVTlStorerToString@3@PEBD@Z @668 NONAME
?store@emailAddressAuthenticationCode@td_api@td@@UEBAXAEAVTlStorerToString@3@PEBD@Z @669 NONAME
?store@fileTypeAudio@td_api@td@@UEBAXAEAVTlStorerToString@3@PEBD@Z @670 NONAME
?store@fileTypeDocument@td_api@td@@UEBAXAEAVTlStorerToString@3@PEBD@Z @671 NONAME
?store@fileTypePhoto@td_api@td@@UEBAXAEAVTlStorerToString@3@PEBD@Z @672 NONAME
?store@fileTypeVideo@td_api@td@@UEBAXAEAVTlStorerToString@3@PEBD@Z @673 NONAME
?store@formattedText@td_api@td@@UEBAXAEAVTlStorerToString@3@PEBD@Z @674 NONAME
?store@forwardMessages@td_api@td@@UEBAXAEAVTlStorerToString@3@PEBD@Z @675 NONAME
?store@getActiveSessions@td_api@td@@UEBAXAEAVTlStorerToString@3@PEBD@Z @676 NONAME
?store@getBasicGroupFullInfo@td_api@td@@UEBAXAEAVTlStorerToString@3@PEBD@Z @677 NONAME
?store@getChat@td_api@td@@UEBAXAEAVTlStorerToString@3@PEBD@Z @678 NONAME
?store@getChatHistory@td_api@td@@UEBAXAEAVTlStorerToString@3@PEBD@Z @679 NONAME
?store@getChats@td_api@td@@UEBAXAEAVTlStorerToString@3@PEBD@Z @680 NONAME
?store@getForumTopics@td_api@td@@UEBAXAEAVTlStorerToString@3@PEBD@Z @681 NONAME
?store@getMessage@td_api@td@@UEBAXAEAVTlStorerToString@3@PEBD@Z @682 NONAME
?store@getMessageThreadHistory@td_api@td@@UEBAXAEAVTlStorerToString@3@PEBD@Z @683 NONAME
?store@getOption@td_api@td@@UEBAXAEAVTlStorerToString@3@PEBD@Z @684 NONAME
?store@getRemoteFile@td_api@td@@UEBAXAEAVTlStorerToString@3@PEBD@Z @685 NONAME
?store@getSupergroupFullInfo@td_api@td@@UEBAXAEAVTlStorerToString@3@PEBD@Z @686 NONAME
?store@getSupergroupMembers@td_api@td@@UEBAXAEAVTlStorerToString@3@PEBD@Z @687 NONAME
?store@getUserFullInfo@td_api@td@@UEBAXAEAVTlStorerToString@3@PEBD@Z @688 NONAME
?store@importContacts@td_api@td@@UEBAXAEAVTlStorerToString@3@PEBD@Z @689 NONAME
?store@importedContact@td_api@td@@UEBAXAEAVTlStorerToString@3@PEBD@Z @690 NONAME
?store@inputChatPhotoStatic@td_api@td@@UEBAXAEAVTlStorerToString@3@PEBD@Z @691 NONAME
?store@inputFileId@td_api@td@@UEBAXAEAVTlStorerToString@3@PEBD@Z @692 NONAME
?store@inputFileLocal@td_api@td@@UEBAXAEAVTlStorerToString@3@PEBD@Z @693 NONAME
?store@inputFileRemote@td_api@td@@UEBAXAEAVTlStorerToString@3@PEBD@Z @694 NONAME
?store@inputMessageAudio@td_api@td@@UEBAXAEAVTlStorerToString@3@PEBD@Z @695 NONAME
?store@inputMessageDocument@td_api@td@@UEBAXAEAVTlStorerToString@3@PEBD@Z @696 NONAME
?store@inputMessagePhoto@td_api@td@@UEBAXAEAVTlStorerToString@3@PEBD@Z @697 NONAME
?store@inputMessageReplyToMessage@td_api@td@@UEBAXAEAVTlStorerToString@3@PEBD@Z @698 NONAME
?store@inputMessageText@td_api@td@@UEBAXAEAVTlStorerToString@3@PEBD@Z @699 NONAME
?store@inputMessageVideo@td_api@td@@UEBAXAEAVTlStorerToString@3@PEBD@Z @700 NONAME
?store@joinChat@td_api@td@@UEBAXAEAVTlStorerToString@3@PEBD@Z @701 NONAME
?store@leaveChat@td_api@td@@UEBAXAEAVTlStorerToString@3@PEBD@Z @702 NONAME
?store@logOut@td_api@td@@UEBAXAEAVTlStorerToString@3@PEBD@Z @703 NONAME
?store@message@td_api@td@@UEBAXAEAVTlStorerToString@3@PEBD@Z @704 NONAME
?store@messageSenderChat@td_api@td@@UEBAXAEAVTlStorerToString@3@PEBD@Z @705 NONAME
?store@messageTopicForum@td_api@td@@UEBAXAEAVTlStorerToString@3@PEBD@Z @706 NONAME
?store@messageTopicThread@td_api@td@@UEBAXAEAVTlStorerToString@3@PEBD@Z @707 NONAME
?store@preliminaryUploadFile@td_api@td@@UEBAXAEAVTlStorerToString@3@PEBD@Z @708 NONAME
?store@proxy@td_api@td@@UEBAXAEAVTlStorerToString@3@PEBD@Z @709 NONAME
?store@proxyTypeHttp@td_api@td@@UEBAXAEAVTlStorerToString@3@PEBD@Z @710 NONAME
?store@proxyTypeMtproto@td_api@td@@UEBAXAEAVTlStorerToString@3@PEBD@Z @711 NONAME
?store@proxyTypeSocks5@td_api@td@@UEBAXAEAVTlStorerToString@3@PEBD@Z @712 NONAME
?store@reactionTypeEmoji@td_api@td@@UEBAXAEAVTlStorerToString@3@PEBD@Z @713 NONAME
?store@removeContacts@td_api@td@@UEBAXAEAVTlStorerToString@3@PEBD@Z @714 NONAME
?store@searchChatsOnServer@td_api@td@@UEBAXAEAVTlStorerToString@3@PEBD@Z @715 NONAME
?store@searchPublicChats@td_api@td@@UEBAXAEAVTlStorerToString@3@PEBD@Z @716 NONAME
?store@sendChatAction@td_api@td@@UEBAXAEAVTlStorerToString@3@PEBD@Z @717 NONAME
?store@sendMessage@td_api@td@@UEBAXAEAVTlStorerToString@3@PEBD@Z @718 NONAME
?store@sendMessageAlbum@td_api@td@@UEBAXAEAVTlStorerToString@3@PEBD@Z @719 NONAME
?store@setAuthenticationEmailAddress@td_api@td@@UEBAXAEAVTlStorerToString@3@PEBD@Z @720 NONAME
?store@setAuthenticationPhoneNumber@td_api@td@@UEBAXAEAVTlStorerToString@3@PEBD@Z @721 NONAME
?store@setChatNotificationSettings@td_api@td@@UEBAXAEAVTlStorerToString@3@PEBD@Z @722 NONAME
?store@setProfilePhoto@td_api@td@@UEBAXAEAVTlStorerToString@3@PEBD@Z @723 NONAME
?store@setTdlibParameters@td_api@td@@UEBAXAEAVTlStorerToString@3@PEBD@Z @724 NONAME
?store@terminateSession@td_api@td@@UEBAXAEAVTlStorerToString@3@PEBD@Z @725 NONAME
?store@textEntity@td_api@td@@UEBAXAEAVTlStorerToString@3@PEBD@Z @726 NONAME
?store@textEntityTypeBlockQuote@td_api@td@@UEBAXAEAVTlStorerToString@3@PEBD@Z @727 NONAME
?store@textEntityTypeBold@td_api@td@@UEBAXAEAVTlStorerToString@3@PEBD@Z @728 NONAME
?store@textEntityTypeCode@td_api@td@@UEBAXAEAVTlStorerToString@3@PEBD@Z @729 NONAME
?store@textEntityTypeItalic@td_api@td@@UEBAXAEAVTlStorerToString@3@PEBD@Z @730 NONAME
?store@textEntityTypeStrikethrough@td_api@td@@UEBAXAEAVTlStorerToString@3@PEBD@Z @731 NONAME
?store@textEntityTypeUnderline@td_api@td@@UEBAXAEAVTlStorerToString@3@PEBD@Z @732 NONAME
?store@textEntityTypeUrl@td_api@td@@UEBAXAEAVTlStorerToString@3@PEBD@Z @733 NONAME
?store@viewMessages@td_api@td@@UEBAXAEAVTlStorerToString@3@PEBD@Z @734 NONAME
?to_string@td_api@td@@YA?AV?$basic_string@DU?$char_traits@D@std@@V?$allocator@D@2@@std@@AEBVTlObject@2@@Z @735 NONAME
td_set_log_fatal_error_callback @736 NONAME
td_set_log_file_path @737 NONAME
td_set_log_max_file_size @738 NONAME
td_set_log_verbosity_level @739 NONAME
??0addContact@td_api@td@@QEAA@$$QEAV012@@Z @740 NONAME
??0addContact@td_api@td@@QEAA@XZ @741 NONAME
??0addContact@td_api@td@@QEAA@_J$$QEAV?$unique_ptr@VimportedContact@td_api@td@@@tl@2@_N@Z @742 NONAME
??0createBasicGroupChat@td_api@td@@QEAA@$$QEAV012@@Z @743 NONAME
??0createBasicGroupChat@td_api@td@@QEAA@XZ @744 NONAME
??0createBasicGroupChat@td_api@td@@QEAA@_J_N@Z @745 NONAME
??1addContact@td_api@td@@UEAA@XZ @746 NONAME
??1createBasicGroupChat@td_api@td@@UEAA@XZ @747 NONAME
??4addContact@td_api@td@@QEAAAEAV012@$$QEAV012@@Z @748 NONAME
??4createBasicGroupChat@td_api@td@@QEAAAEAV012@$$QEAV012@@Z @749 NONAME
??_7addContact@td_api@td@@6B@ @750 NONAME
??_7createBasicGroupChat@td_api@td@@6B@ @751 NONAME
?ID@addContact@td_api@td@@2HB @752 NONAME
?ID@createBasicGroupChat@td_api@td@@2HB @753 NONAME
?get_id@addContact@td_api@td@@EEBAHXZ @754 NONAME
?get_id@createBasicGroupChat@td_api@td@@EEBAHXZ @755 NONAME
?store@addContact@td_api@td@@UEBAXAEAVTlStorerToString@3@PEBD@Z @756 NONAME
?store@createBasicGroupChat@td_api@td@@UEBAXAEAVTlStorerToString@3@PEBD@Z @757 NONAME
