LIBRARY tdapi.mir

EXPORTS
??0ClientManager@td@@QAE@$$QAV01@@Z @1 NONAME
??0ClientManager@td@@QAE@XZ @2 NONAME
??0addContact@td_api@td@@QAE@$$QAV012@@Z @3 NONAME
??0addContact@td_api@td@@QAE@$$QAV?$unique_ptr@Vcontact@td_api@td@@@tl@2@_N@Z @4 NONAME
??0addContact@td_api@td@@QAE@XZ @5 NONAME
??0addMessageReaction@td_api@td@@QAE@$$QAV012@@Z @6 NONAME
??0addMessageReaction@td_api@td@@QAE@XZ @7 NONAME
??0addMessageReaction@td_api@td@@QAE@_J0$$QAV?$unique_ptr@VReactionType@td_api@td@@@tl@2@_N2@Z @8 NONAME
??0addProxy@td_api@td@@QAE@$$QAV012@@Z @9 NONAME
??0addProxy@td_api@td@@QAE@ABV?$basic_string@DU?$char_traits@D@std@@V?$allocator@D@2@@std@@H_N$$QAV?$unique_ptr@VProxyType@td_api@td@@@tl@2@@Z @10 NONAME
??0addProxy@td_api@td@@QAE@XZ @11 NONAME
??0chatActionTyping@td_api@td@@QAE@$$QAV012@@Z @12 NONAME
??0chatActionTyping@td_api@td@@QAE@XZ @13 NONAME
??0chatNotificationSettings@td_api@td@@QAE@$$QAV012@@Z @14 NONAME
??0chatNotificationSettings@td_api@td@@QAE@XZ @15 NONAME
??0chatNotificationSettings@td_api@td@@QAE@_NH0_J000001000000@Z @16 NONAME
??0checkAuthenticationCode@td_api@td@@QAE@$$QAV012@@Z @17 NONAME
??0checkAuthenticationCode@td_api@td@@QAE@ABV?$basic_string@DU?$char_traits@D@std@@V?$allocator@D@2@@std@@@Z @18 NONAME
??0checkAuthenticationCode@td_api@td@@QAE@XZ @19 NONAME
??0checkAuthenticationEmailCode@td_api@td@@QAE@$$QAV012@@Z @20 NONAME
??0checkAuthenticationEmailCode@td_api@td@@QAE@$$QAV?$unique_ptr@VEmailAddressAuthentication@td_api@td@@@tl@2@@Z @21 NONAME
??0checkAuthenticationEmailCode@td_api@td@@QAE@XZ @22 NONAME
??0checkAuthenticationPassword@td_api@td@@QAE@$$QAV012@@Z @23 NONAME
??0checkAuthenticationPassword@td_api@td@@QAE@ABV?$basic_string@DU?$char_traits@D@std@@V?$allocator@D@2@@std@@@Z @24 NONAME
??0checkAuthenticationPassword@td_api@td@@QAE@XZ @25 NONAME
??0close@td_api@td@@QAE@$$QAV012@@Z @26 NONAME
??0close@td_api@td@@QAE@XZ @27 NONAME
??0contact@td_api@td@@QAE@$$QAV012@@Z @28 NONAME
??0contact@td_api@td@@QAE@ABV?$basic_string@DU?$char_traits@D@std@@V?$allocator@D@2@@std@@000_J@Z @29 NONAME
??0contact@td_api@td@@QAE@XZ @30 NONAME
??0createPrivateChat@td_api@td@@QAE@$$QAV012@@Z @31 NONAME
??0createPrivateChat@td_api@td@@QAE@XZ @32 NONAME
??0createPrivateChat@td_api@td@@QAE@_J_N@Z @33 NONAME
??0deleteChat@td_api@td@@QAE@$$QAV012@@Z @34 NONAME
??0deleteChat@td_api@td@@QAE@XZ @35 NONAME
??0deleteChat@td_api@td@@QAE@_J@Z @36 NONAME
??0deleteChatHistory@td_api@td@@QAE@$$QAV012@@Z @37 NONAME
??0deleteChatHistory@td_api@td@@QAE@XZ @38 NONAME
??0deleteChatHistory@td_api@td@@QAE@_J_N1@Z @39 NONAME
??0deleteMessages@td_api@td@@QAE@$$QAV012@@Z @40 NONAME
??0deleteMessages@td_api@td@@QAE@XZ @41 NONAME
??0deleteMessages@td_api@td@@QAE@_J$$QAV?$vector@_JV?$allocator@_J@std@@@std@@_N@Z @42 NONAME
??0downloadFile@td_api@td@@QAE@$$QAV012@@Z @43 NONAME
??0downloadFile@td_api@td@@QAE@HH_J0_N@Z @44 NONAME
??0downloadFile@td_api@td@@QAE@XZ @45 NONAME
??0editMessageText@td_api@td@@QAE@$$QAV012@@Z @46 NONAME
??0editMessageText@td_api@td@@QAE@XZ @47 NONAME
??0editMessageText@td_api@td@@QAE@_J0$$QAV?$unique_ptr@VReplyMarkup@td_api@td@@@tl@2@$$QAV?$unique_ptr@VInputMessageContent@td_api@td@@@42@@Z @48 NONAME
??0emailAddressAuthenticationCode@td_api@td@@QAE@$$QAV012@@Z @49 NONAME
??0emailAddressAuthenticationCode@td_api@td@@QAE@ABV?$basic_string@DU?$char_traits@D@std@@V?$allocator@D@2@@std@@@Z @50 NONAME
??0emailAddressAuthenticationCode@td_api@td@@QAE@XZ @51 NONAME
??0formattedText@td_api@td@@QAE@$$QAV012@@Z @52 NONAME
??0formattedText@td_api@td@@QAE@ABV?$basic_string@DU?$char_traits@D@std@@V?$allocator@D@2@@std@@$$QAV?$vector@V?$unique_ptr@VtextEntity@td_api@td@@@tl@td@@V?$allocator@V?$unique_ptr@VtextEntity@td_api@td@@@tl@td@@@std@@@4@@Z @53 NONAME
??0formattedText@td_api@td@@QAE@XZ @54 NONAME
??0forwardMessages@td_api@td@@QAE@$$QAV012@@Z @55 NONAME
??0forwardMessages@td_api@td@@QAE@XZ @56 NONAME
??0forwardMessages@td_api@td@@QAE@_J00$$QAV?$vector@_JV?$allocator@_J@std@@@std@@$$QAV?$unique_ptr@VmessageSendOptions@td_api@td@@@tl@2@_N3@Z @57 NONAME
??0getActiveSessions@td_api@td@@QAE@$$QAV012@@Z @58 NONAME
??0getActiveSessions@td_api@td@@QAE@XZ @59 NONAME
??0getBasicGroupFullInfo@td_api@td@@QAE@$$QAV012@@Z @60 NONAME
??0getBasicGroupFullInfo@td_api@td@@QAE@XZ @61 NONAME
??0getBasicGroupFullInfo@td_api@td@@QAE@_J@Z @62 NONAME
??0getChat@td_api@td@@QAE@$$QAV012@@Z @63 NONAME
??0getChat@td_api@td@@QAE@XZ @64 NONAME
??0getChat@td_api@td@@QAE@_J@Z @65 NONAME
??0getChatHistory@td_api@td@@QAE@$$QAV012@@Z @66 NONAME
??0getChatHistory@td_api@td@@QAE@XZ @67 NONAME
??0getChatHistory@td_api@td@@QAE@_J0HH_N@Z @68 NONAME
??0getChats@td_api@td@@QAE@$$QAV012@@Z @69 NONAME
??0getChats@td_api@td@@QAE@$$QAV?$unique_ptr@VChatList@td_api@td@@@tl@2@H@Z @70 NONAME
??0getChats@td_api@td@@QAE@XZ @71 NONAME
??0getForumTopics@td_api@td@@QAE@$$QAV012@@Z @72 NONAME
??0getForumTopics@td_api@td@@QAE@XZ @73 NONAME
??0getForumTopics@td_api@td@@QAE@_JABV?$basic_string@DU?$char_traits@D@std@@V?$allocator@D@2@@std@@H00H@Z @74 NONAME
??0getMessageThreadHistory@td_api@td@@QAE@$$QAV012@@Z @75 NONAME
??0getMessageThreadHistory@td_api@td@@QAE@XZ @76 NONAME
??0getMessageThreadHistory@td_api@td@@QAE@_J00HH@Z @77 NONAME
??0getOption@td_api@td@@QAE@$$QAV012@@Z @78 NONAME
??0getOption@td_api@td@@QAE@ABV?$basic_string@DU?$char_traits@D@std@@V?$allocator@D@2@@std@@@Z @79 NONAME
??0getOption@td_api@td@@QAE@XZ @80 NONAME
??0getRemoteFile@td_api@td@@QAE@$$QAV012@@Z @81 NONAME
??0getRemoteFile@td_api@td@@QAE@ABV?$basic_string@DU?$char_traits@D@std@@V?$allocator@D@2@@std@@$$QAV?$unique_ptr@VFileType@td_api@td@@@tl@2@@Z @82 NONAME
??0getRemoteFile@td_api@td@@QAE@XZ @83 NONAME
??0getSupergroupFullInfo@td_api@td@@QAE@$$QAV012@@Z @84 NONAME
??0getSupergroupFullInfo@td_api@td@@QAE@XZ @85 NONAME
??0getSupergroupFullInfo@td_api@td@@QAE@_J@Z @86 NONAME
??0getSupergroupMembers@td_api@td@@QAE@$$QAV012@@Z @87 NONAME
??0getSupergroupMembers@td_api@td@@QAE@XZ @88 NONAME
??0getSupergroupMembers@td_api@td@@QAE@_J$$QAV?$unique_ptr@VSupergroupMembersFilter@td_api@td@@@tl@2@HH@Z @89 NONAME
??0getUserFullInfo@td_api@td@@QAE@$$QAV012@@Z @90 NONAME
??0getUserFullInfo@td_api@td@@QAE@XZ @91 NONAME
??0getUserFullInfo@td_api@td@@QAE@_J@Z @92 NONAME
??0importContacts@td_api@td@@QAE@$$QAV012@@Z @93 NONAME
??0importContacts@td_api@td@@QAE@$$QAV?$vector@V?$unique_ptr@Vcontact@td_api@td@@@tl@td@@V?$allocator@V?$unique_ptr@Vcontact@td_api@td@@@tl@td@@@std@@@std@@@Z @94 NONAME
??0importContacts@td_api@td@@QAE@XZ @95 NONAME
??0inputChatPhotoStatic@td_api@td@@QAE@$$QAV012@@Z @96 NONAME
??0inputChatPhotoStatic@td_api@td@@QAE@$$QAV?$unique_ptr@VInputFile@td_api@td@@@tl@2@@Z @97 NONAME
??0inputChatPhotoStatic@td_api@td@@QAE@XZ @98 NONAME
??0inputFileLocal@td_api@td@@QAE@$$QAV012@@Z @99 NONAME
??0inputFileLocal@td_api@td@@QAE@ABV?$basic_string@DU?$char_traits@D@std@@V?$allocator@D@2@@std@@@Z @100 NONAME
??0inputFileLocal@td_api@td@@QAE@XZ @101 NONAME
??0inputMessageAudio@td_api@td@@QAE@$$QAV012@@Z @102 NONAME
??0inputMessageAudio@td_api@td@@QAE@$$QAV?$unique_ptr@VInputFile@td_api@td@@@tl@2@$$QAV?$unique_ptr@VinputThumbnail@td_api@td@@@42@HABV?$basic_string@DU?$char_traits@D@std@@V?$allocator@D@2@@std@@2$$QAV?$unique_ptr@VformattedText@td_api@td@@@42@@Z @103 NONAME
??0inputMessageAudio@td_api@td@@QAE@XZ @104 NONAME
??0inputMessageDocument@td_api@td@@QAE@$$QAV012@@Z @105 NONAME
??0inputMessageDocument@td_api@td@@QAE@$$QAV?$unique_ptr@VInputFile@td_api@td@@@tl@2@$$QAV?$unique_ptr@VinputThumbnail@td_api@td@@@42@_N$$QAV?$unique_ptr@VformattedText@td_api@td@@@42@@Z @106 NONAME
??0inputMessageDocument@td_api@td@@QAE@XZ @107 NONAME
??0inputMessagePhoto@td_api@td@@QAE@$$QAV012@@Z @108 NONAME
??0inputMessagePhoto@td_api@td@@QAE@$$QAV?$unique_ptr@VInputFile@td_api@td@@@tl@2@$$QAV?$unique_ptr@VinputThumbnail@td_api@td@@@42@$$QAV?$vector@HV?$allocator@H@std@@@std@@HH$$QAV?$unique_ptr@VformattedText@td_api@td@@@42@_N$$QAV?$unique_ptr@VMessageSelfDestructType@td_api@td@@@42@4@Z @109 NONAME
??0inputMessagePhoto@td_api@td@@QAE@XZ @110 NONAME
??0inputMessageReplyToMessage@td_api@td@@QAE@$$QAV012@@Z @111 NONAME
??0inputMessageReplyToMessage@td_api@td@@QAE@XZ @112 NONAME
??0inputMessageReplyToMessage@td_api@td@@QAE@_J$$QAV?$unique_ptr@VinputTextQuote@td_api@td@@@tl@2@@Z @113 NONAME
??0inputMessageText@td_api@td@@QAE@$$QAV012@@Z @114 NONAME
??0inputMessageText@td_api@td@@QAE@$$QAV?$unique_ptr@VformattedText@td_api@td@@@tl@2@$$QAV?$unique_ptr@VlinkPreviewOptions@td_api@td@@@42@_N@Z @115 NONAME
??0inputMessageText@td_api@td@@QAE@XZ @116 NONAME
??0inputMessageVideo@td_api@td@@QAE@$$QAV012@@Z @117 NONAME
??0inputMessageVideo@td_api@td@@QAE@$$QAV?$unique_ptr@VInputFile@td_api@td@@@tl@2@$$QAV?$unique_ptr@VinputThumbnail@td_api@td@@@42@0H$$QAV?$vector@HV?$allocator@H@std@@@std@@HHH_N$$QAV?$unique_ptr@VformattedText@td_api@td@@@42@3$$QAV?$unique_ptr@VMessageSelfDestructType@td_api@td@@@42@3@Z @118 NONAME
??0inputMessageVideo@td_api@td@@QAE@XZ @119 NONAME
??0joinChat@td_api@td@@QAE@$$QAV012@@Z @120 NONAME
??0joinChat@td_api@td@@QAE@XZ @121 NONAME
??0joinChat@td_api@td@@QAE@_J@Z @122 NONAME
??0leaveChat@td_api@td@@QAE@$$QAV012@@Z @123 NONAME
??0leaveChat@td_api@td@@QAE@XZ @124 NONAME
??0leaveChat@td_api@td@@QAE@_J@Z @125 NONAME
??0logOut@td_api@td@@QAE@$$QAV012@@Z @126 NONAME
??0logOut@td_api@td@@QAE@XZ @127 NONAME
??0message@td_api@td@@QAE@$$QAV012@@Z @128 NONAME
??0message@td_api@td@@QAE@XZ @129 NONAME
??0message@td_api@td@@QAE@_J$$QAV?$unique_ptr@VMessageSender@td_api@td@@@tl@2@0$$QAV?$unique_ptr@VMessageSendingState@td_api@td@@@42@$$QAV?$unique_ptr@VMessageSchedulingState@td_api@td@@@42@_N444444HH$$QAV?$unique_ptr@VmessageForwardInfo@td_api@td@@@42@$$QAV?$unique_ptr@VmessageImportInfo@td_api@td@@@42@$$QAV?$unique_ptr@VmessageInteractionInfo@td_api@td@@@42@$$QAV?$vector@V?$unique_ptr@VunreadReaction@td_api@td@@@tl@td@@V?$allocator@V?$unique_ptr@VunreadReaction@td_api@td@@@tl@td@@@std@@@std@@$$QAV?$unique_ptr@VfactCheck@td_api@td@@@42@$$QAV?$unique_ptr@VMessageReplyTo@td_api@td@@@42@0$$QAV?$unique_ptr@VMessageTopic@td_api@td@@@42@$$QAV?$unique_ptr@VMessageSelfDestructType@td_api@td@@@42@NN00H0ABV?$basic_string@DU?$char_traits@D@std@@V?$allocator@D@2@@std@@004ABV?$basic_string@DU?$char_traits@D@std@@V?$allocator@D@2@@std@@$$QAV?$unique_ptr@VMessageContent@td_api@td@@@42@$$QAV?$unique_ptr@VReplyMarkup@td_api@td@@@42@@Z @130 NONAME
??0messageSenderChat@td_api@td@@QAE@$$QAV012@@Z @131 NONAME
??0messageSenderChat@td_api@td@@QAE@XZ @132 NONAME
??0messageSenderChat@td_api@td@@QAE@_J@Z @133 NONAME
??0proxyTypeHttp@td_api@td@@QAE@$$QAV012@@Z @134 NONAME
??0proxyTypeHttp@td_api@td@@QAE@ABV?$basic_string@DU?$char_traits@D@std@@V?$allocator@D@2@@std@@0_N@Z @135 NONAME
??0proxyTypeHttp@td_api@td@@QAE@XZ @136 NONAME
??0proxyTypeSocks5@td_api@td@@QAE@$$QAV012@@Z @137 NONAME
??0proxyTypeSocks5@td_api@td@@QAE@ABV?$basic_string@DU?$char_traits@D@std@@V?$allocator@D@2@@std@@0@Z @138 NONAME
??0proxyTypeSocks5@td_api@td@@QAE@XZ @139 NONAME
??0reactionTypeEmoji@td_api@td@@QAE@$$QAV012@@Z @140 NONAME
??0reactionTypeEmoji@td_api@td@@QAE@ABV?$basic_string@DU?$char_traits@D@std@@V?$allocator@D@2@@std@@@Z @141 NONAME
??0reactionTypeEmoji@td_api@td@@QAE@XZ @142 NONAME
??0removeContacts@td_api@td@@QAE@$$QAV012@@Z @143 NONAME
??0removeContacts@td_api@td@@QAE@$$QAV?$vector@_JV?$allocator@_J@std@@@std@@@Z @144 NONAME
??0removeContacts@td_api@td@@QAE@XZ @145 NONAME
??0searchChatsOnServer@td_api@td@@QAE@$$QAV012@@Z @146 NONAME
??0searchChatsOnServer@td_api@td@@QAE@ABV?$basic_string@DU?$char_traits@D@std@@V?$allocator@D@2@@std@@H@Z @147 NONAME
??0searchChatsOnServer@td_api@td@@QAE@XZ @148 NONAME
??0searchPublicChats@td_api@td@@QAE@$$QAV012@@Z @149 NONAME
??0searchPublicChats@td_api@td@@QAE@ABV?$basic_string@DU?$char_traits@D@std@@V?$allocator@D@2@@std@@@Z @150 NONAME
??0searchPublicChats@td_api@td@@QAE@XZ @151 NONAME
??0sendChatAction@td_api@td@@QAE@$$QAV012@@Z @152 NONAME
??0sendChatAction@td_api@td@@QAE@XZ @153 NONAME
??0sendChatAction@td_api@td@@QAE@_J0ABV?$basic_string@DU?$char_traits@D@std@@V?$allocator@D@2@@std@@$$QAV?$unique_ptr@VChatAction@td_api@td@@@tl@2@@Z @154 NONAME
??0sendMessage@td_api@td@@QAE@$$QAV012@@Z @155 NONAME
??0sendMessage@td_api@td@@QAE@XZ @156 NONAME
??0sendMessage@td_api@td@@QAE@_J0$$QAV?$unique_ptr@VInputMessageReplyTo@td_api@td@@@tl@2@$$QAV?$unique_ptr@VmessageSendOptions@td_api@td@@@42@$$QAV?$unique_ptr@VReplyMarkup@td_api@td@@@42@$$QAV?$unique_ptr@VInputMessageContent@td_api@td@@@42@@Z @157 NONAME
??0sendMessageAlbum@td_api@td@@QAE@$$QAV012@@Z @158 NONAME
??0sendMessageAlbum@td_api@td@@QAE@XZ @159 NONAME
??0sendMessageAlbum@td_api@td@@QAE@_J0$$QAV?$unique_ptr@VInputMessageReplyTo@td_api@td@@@tl@2@$$QAV?$unique_ptr@VmessageSendOptions@td_api@td@@@42@$$QAV?$vector@V?$unique_ptr@VInputMessageContent@td_api@td@@@tl@td@@V?$allocator@V?$unique_ptr@VInputMessageContent@td_api@td@@@tl@td@@@std@@@std@@@Z @160 NONAME
??0setAuthenticationEmailAddress@td_api@td@@QAE@$$QAV012@@Z @161 NONAME
??0setAuthenticationEmailAddress@td_api@td@@QAE@ABV?$basic_string@DU?$char_traits@D@std@@V?$allocator@D@2@@std@@@Z @162 NONAME
??0setAuthenticationEmailAddress@td_api@td@@QAE@XZ @163 NONAME
??0setAuthenticationPhoneNumber@td_api@td@@QAE@$$QAV012@@Z @164 NONAME
??0setAuthenticationPhoneNumber@td_api@td@@QAE@ABV?$basic_string@DU?$char_traits@D@std@@V?$allocator@D@2@@std@@$$QAV?$unique_ptr@VphoneNumberAuthenticationSettings@td_api@td@@@tl@2@@Z @165 NONAME
??0setAuthenticationPhoneNumber@td_api@td@@QAE@XZ @166 NONAME
??0setChatNotificationSettings@td_api@td@@QAE@$$QAV012@@Z @167 NONAME
??0setChatNotificationSettings@td_api@td@@QAE@XZ @168 NONAME
??0setChatNotificationSettings@td_api@td@@QAE@_J$$QAV?$unique_ptr@VchatNotificationSettings@td_api@td@@@tl@2@@Z @169 NONAME
??0setProfilePhoto@td_api@td@@QAE@$$QAV012@@Z @170 NONAME
??0setProfilePhoto@td_api@td@@QAE@$$QAV?$unique_ptr@VInputChatPhoto@td_api@td@@@tl@2@_N@Z @171 NONAME
??0setProfilePhoto@td_api@td@@QAE@XZ @172 NONAME
??0setTdlibParameters@td_api@td@@QAE@$$QAV012@@Z @173 NONAME
??0setTdlibParameters@td_api@td@@QAE@XZ @174 NONAME
??0setTdlibParameters@td_api@td@@QAE@_NABV?$basic_string@DU?$char_traits@D@std@@V?$allocator@D@2@@std@@110000H11111@Z @175 NONAME
??0terminateSession@td_api@td@@QAE@$$QAV012@@Z @176 NONAME
??0terminateSession@td_api@td@@QAE@XZ @177 NONAME
??0terminateSession@td_api@td@@QAE@_J@Z @178 NONAME
??0textEntity@td_api@td@@QAE@$$QAV012@@Z @179 NONAME
??0textEntity@td_api@td@@QAE@HH$$QAV?$unique_ptr@VTextEntityType@td_api@td@@@tl@2@@Z @180 NONAME
??0textEntity@td_api@td@@QAE@XZ @181 NONAME
??0textEntityTypeBlockQuote@td_api@td@@QAE@$$QAV012@@Z @182 NONAME
??0textEntityTypeBlockQuote@td_api@td@@QAE@XZ @183 NONAME
??0textEntityTypeBold@td_api@td@@QAE@$$QAV012@@Z @184 NONAME
??0textEntityTypeBold@td_api@td@@QAE@XZ @185 NONAME
??0textEntityTypeCode@td_api@td@@QAE@$$QAV012@@Z @186 NONAME
??0textEntityTypeCode@td_api@td@@QAE@XZ @187 NONAME
??0textEntityTypeItalic@td_api@td@@QAE@$$QAV012@@Z @188 NONAME
??0textEntityTypeItalic@td_api@td@@QAE@XZ @189 NONAME
??0textEntityTypeStrikethrough@td_api@td@@QAE@$$QAV012@@Z @190 NONAME
??0textEntityTypeStrikethrough@td_api@td@@QAE@XZ @191 NONAME
??0textEntityTypeUnderline@td_api@td@@QAE@$$QAV012@@Z @192 NONAME
??0textEntityTypeUnderline@td_api@td@@QAE@XZ @193 NONAME
??0textEntityTypeUrl@td_api@td@@QAE@$$QAV012@@Z @194 NONAME
??0textEntityTypeUrl@td_api@td@@QAE@XZ @195 NONAME
??0viewMessages@td_api@td@@QAE@$$QAV012@@Z @196 NONAME
??0viewMessages@td_api@td@@QAE@XZ @197 NONAME
??0viewMessages@td_api@td@@QAE@_J$$QAV?$vector@_JV?$allocator@_J@std@@@std@@$$QAV?$unique_ptr@VMessageSource@td_api@td@@@tl@2@_N@Z @198 NONAME
??1ClientManager@td@@QAE@XZ @199 NONAME
??1addContact@td_api@td@@UAE@XZ @200 NONAME
??1addMessageReaction@td_api@td@@UAE@XZ @201 NONAME
??1addProxy@td_api@td@@UAE@XZ @202 NONAME
??1chatActionTyping@td_api@td@@UAE@XZ @203 NONAME
??1chatNotificationSettings@td_api@td@@UAE@XZ @204 NONAME
??1checkAuthenticationCode@td_api@td@@UAE@XZ @205 NONAME
??1checkAuthenticationEmailCode@td_api@td@@UAE@XZ @206 NONAME
??1checkAuthenticationPassword@td_api@td@@UAE@XZ @207 NONAME
??1close@td_api@td@@UAE@XZ @208 NONAME
??1contact@td_api@td@@UAE@XZ @209 NONAME
??1createPrivateChat@td_api@td@@UAE@XZ @210 NONAME
??1deleteChat@td_api@td@@UAE@XZ @211 NONAME
??1deleteChatHistory@td_api@td@@UAE@XZ @212 NONAME
??1deleteMessages@td_api@td@@UAE@XZ @213 NONAME
??1downloadFile@td_api@td@@UAE@XZ @214 NONAME
??1editMessageText@td_api@td@@UAE@XZ @215 NONAME
??1emailAddressAuthenticationCode@td_api@td@@UAE@XZ @216 NONAME
??1formattedText@td_api@td@@UAE@XZ @217 NONAME
??1forwardMessages@td_api@td@@UAE@XZ @218 NONAME
??1getActiveSessions@td_api@td@@UAE@XZ @219 NONAME
??1getBasicGroupFullInfo@td_api@td@@UAE@XZ @220 NONAME
??1getChat@td_api@td@@UAE@XZ @221 NONAME
??1getChatHistory@td_api@td@@UAE@XZ @222 NONAME
??1getChats@td_api@td@@UAE@XZ @223 NONAME
??1getForumTopics@td_api@td@@UAE@XZ @224 NONAME
??1getMessageThreadHistory@td_api@td@@UAE@XZ @225 NONAME
??1getOption@td_api@td@@UAE@XZ @226 NONAME
??1getRemoteFile@td_api@td@@UAE@XZ @227 NONAME
??1getSupergroupFullInfo@td_api@td@@UAE@XZ @228 NONAME
??1getSupergroupMembers@td_api@td@@UAE@XZ @229 NONAME
??1getUserFullInfo@td_api@td@@UAE@XZ @230 NONAME
??1importContacts@td_api@td@@UAE@XZ @231 NONAME
??1inputChatPhotoStatic@td_api@td@@UAE@XZ @232 NONAME
??1inputFileLocal@td_api@td@@UAE@XZ @233 NONAME
??1inputMessageAudio@td_api@td@@UAE@XZ @234 NONAME
??1inputMessageDocument@td_api@td@@UAE@XZ @235 NONAME
??1inputMessagePhoto@td_api@td@@UAE@XZ @236 NONAME
??1inputMessageReplyToMessage@td_api@td@@UAE@XZ @237 NONAME
??1inputMessageText@td_api@td@@UAE@XZ @238 NONAME
??1inputMessageVideo@td_api@td@@UAE@XZ @239 NONAME
??1joinChat@td_api@td@@UAE@XZ @240 NONAME
??1leaveChat@td_api@td@@UAE@XZ @241 NONAME
??1logOut@td_api@td@@UAE@XZ @242 NONAME
??1message@td_api@td@@UAE@XZ @243 NONAME
??1messageSenderChat@td_api@td@@UAE@XZ @244 NONAME
??1proxyTypeHttp@td_api@td@@UAE@XZ @245 NONAME
??1proxyTypeSocks5@td_api@td@@UAE@XZ @246 NONAME
??1reactionTypeEmoji@td_api@td@@UAE@XZ @247 NONAME
??1removeContacts@td_api@td@@UAE@XZ @248 NONAME
??1searchChatsOnServer@td_api@td@@UAE@XZ @249 NONAME
??1searchPublicChats@td_api@td@@UAE@XZ @250 NONAME
??1sendChatAction@td_api@td@@UAE@XZ @251 NONAME
??1sendMessage@td_api@td@@UAE@XZ @252 NONAME
??1sendMessageAlbum@td_api@td@@UAE@XZ @253 NONAME
??1setAuthenticationEmailAddress@td_api@td@@UAE@XZ @254 NONAME
??1setAuthenticationPhoneNumber@td_api@td@@UAE@XZ @255 NONAME
??1setChatNotificationSettings@td_api@td@@UAE@XZ @256 NONAME
??1setProfilePhoto@td_api@td@@UAE@XZ @257 NONAME
??1setTdlibParameters@td_api@td@@UAE@XZ @258 NONAME
??1terminateSession@td_api@td@@UAE@XZ @259 NONAME
??1textEntity@td_api@td@@UAE@XZ @260 NONAME
??1textEntityTypeBlockQuote@td_api@td@@UAE@XZ @261 NONAME
??1textEntityTypeBold@td_api@td@@UAE@XZ @262 NONAME
??1textEntityTypeCode@td_api@td@@UAE@XZ @263 NONAME
??1textEntityTypeItalic@td_api@td@@UAE@XZ @264 NONAME
??1textEntityTypeStrikethrough@td_api@td@@UAE@XZ @265 NONAME
??1textEntityTypeUnderline@td_api@td@@UAE@XZ @266 NONAME
??1textEntityTypeUrl@td_api@td@@UAE@XZ @267 NONAME
??1viewMessages@td_api@td@@UAE@XZ @268 NONAME
??4ClientManager@td@@QAEAAV01@$$QAV01@@Z @269 NONAME
??4addContact@td_api@td@@QAEAAV012@$$QAV012@@Z @270 NONAME
??4addMessageReaction@td_api@td@@QAEAAV012@$$QAV012@@Z @271 NONAME
??4addProxy@td_api@td@@QAEAAV012@$$QAV012@@Z @272 NONAME
??4chatActionTyping@td_api@td@@QAEAAV012@$$QAV012@@Z @273 NONAME
??4chatNotificationSettings@td_api@td@@QAEAAV012@$$QAV012@@Z @274 NONAME
??4checkAuthenticationCode@td_api@td@@QAEAAV012@$$QAV012@@Z @275 NONAME
??4checkAuthenticationEmailCode@td_api@td@@QAEAAV012@$$QAV012@@Z @276 NONAME
??4checkAuthenticationPassword@td_api@td@@QAEAAV012@$$QAV012@@Z @277 NONAME
??4close@td_api@td@@QAEAAV012@$$QAV012@@Z @278 NONAME
??4contact@td_api@td@@QAEAAV012@$$QAV012@@Z @279 NONAME
??4createPrivateChat@td_api@td@@QAEAAV012@$$QAV012@@Z @280 NONAME
??4deleteChat@td_api@td@@QAEAAV012@$$QAV012@@Z @281 NONAME
??4deleteChatHistory@td_api@td@@QAEAAV012@$$QAV012@@Z @282 NONAME
??4deleteMessages@td_api@td@@QAEAAV012@$$QAV012@@Z @283 NONAME
??4downloadFile@td_api@td@@QAEAAV012@$$QAV012@@Z @284 NONAME
??4editMessageText@td_api@td@@QAEAAV012@$$QAV012@@Z @285 NONAME
??4emailAddressAuthenticationCode@td_api@td@@QAEAAV012@$$QAV012@@Z @286 NONAME
??4formattedText@td_api@td@@QAEAAV012@$$QAV012@@Z @287 NONAME
??4forwardMessages@td_api@td@@QAEAAV012@$$QAV012@@Z @288 NONAME
??4getActiveSessions@td_api@td@@QAEAAV012@$$QAV012@@Z @289 NONAME
??4getBasicGroupFullInfo@td_api@td@@QAEAAV012@$$QAV012@@Z @290 NONAME
??4getChat@td_api@td@@QAEAAV012@$$QAV012@@Z @291 NONAME
??4getChatHistory@td_api@td@@QAEAAV012@$$QAV012@@Z @292 NONAME
??4getChats@td_api@td@@QAEAAV012@$$QAV012@@Z @293 NONAME
??4getForumTopics@td_api@td@@QAEAAV012@$$QAV012@@Z @294 NONAME
??4getMessageThreadHistory@td_api@td@@QAEAAV012@$$QAV012@@Z @295 NONAME
??4getOption@td_api@td@@QAEAAV012@$$QAV012@@Z @296 NONAME
??4getRemoteFile@td_api@td@@QAEAAV012@$$QAV012@@Z @297 NONAME
??4getSupergroupFullInfo@td_api@td@@QAEAAV012@$$QAV012@@Z @298 NONAME
??4getSupergroupMembers@td_api@td@@QAEAAV012@$$QAV012@@Z @299 NONAME
??4getUserFullInfo@td_api@td@@QAEAAV012@$$QAV012@@Z @300 NONAME
??4importContacts@td_api@td@@QAEAAV012@$$QAV012@@Z @301 NONAME
??4inputChatPhotoStatic@td_api@td@@QAEAAV012@$$QAV012@@Z @302 NONAME
??4inputFileLocal@td_api@td@@QAEAAV012@$$QAV012@@Z @303 NONAME
??4inputMessageAudio@td_api@td@@QAEAAV012@$$QAV012@@Z @304 NONAME
??4inputMessageDocument@td_api@td@@QAEAAV012@$$QAV012@@Z @305 NONAME
??4inputMessagePhoto@td_api@td@@QAEAAV012@$$QAV012@@Z @306 NONAME
??4inputMessageReplyToMessage@td_api@td@@QAEAAV012@$$QAV012@@Z @307 NONAME
??4inputMessageText@td_api@td@@QAEAAV012@$$QAV012@@Z @308 NONAME
??4inputMessageVideo@td_api@td@@QAEAAV012@$$QAV012@@Z @309 NONAME
??4joinChat@td_api@td@@QAEAAV012@$$QAV012@@Z @310 NONAME
??4leaveChat@td_api@td@@QAEAAV012@$$QAV012@@Z @311 NONAME
??4logOut@td_api@td@@QAEAAV012@$$QAV012@@Z @312 NONAME
??4message@td_api@td@@QAEAAV012@$$QAV012@@Z @313 NONAME
??4messageSenderChat@td_api@td@@QAEAAV012@$$QAV012@@Z @314 NONAME
??4proxyTypeHttp@td_api@td@@QAEAAV012@$$QAV012@@Z @315 NONAME
??4proxyTypeSocks5@td_api@td@@QAEAAV012@$$QAV012@@Z @316 NONAME
??4reactionTypeEmoji@td_api@td@@QAEAAV012@$$QAV012@@Z @317 NONAME
??4removeContacts@td_api@td@@QAEAAV012@$$QAV012@@Z @318 NONAME
??4searchChatsOnServer@td_api@td@@QAEAAV012@$$QAV012@@Z @319 NONAME
??4searchPublicChats@td_api@td@@QAEAAV012@$$QAV012@@Z @320 NONAME
??4sendChatAction@td_api@td@@QAEAAV012@$$QAV012@@Z @321 NONAME
??4sendMessage@td_api@td@@QAEAAV012@$$QAV012@@Z @322 NONAME
??4sendMessageAlbum@td_api@td@@QAEAAV012@$$QAV012@@Z @323 NONAME
??4setAuthenticationEmailAddress@td_api@td@@QAEAAV012@$$QAV012@@Z @324 NONAME
??4setAuthenticationPhoneNumber@td_api@td@@QAEAAV012@$$QAV012@@Z @325 NONAME
??4setChatNotificationSettings@td_api@td@@QAEAAV012@$$QAV012@@Z @326 NONAME
??4setProfilePhoto@td_api@td@@QAEAAV012@$$QAV012@@Z @327 NONAME
??4setTdlibParameters@td_api@td@@QAEAAV012@$$QAV012@@Z @328 NONAME
??4terminateSession@td_api@td@@QAEAAV012@$$QAV012@@Z @329 NONAME
??4textEntity@td_api@td@@QAEAAV012@$$QAV012@@Z @330 NONAME
??4textEntityTypeBlockQuote@td_api@td@@QAEAAV012@$$QAV012@@Z @331 NONAME
??4textEntityTypeBold@td_api@td@@QAEAAV012@$$QAV012@@Z @332 NONAME
??4textEntityTypeCode@td_api@td@@QAEAAV012@$$QAV012@@Z @333 NONAME
??4textEntityTypeItalic@td_api@td@@QAEAAV012@$$QAV012@@Z @334 NONAME
??4textEntityTypeStrikethrough@td_api@td@@QAEAAV012@$$QAV012@@Z @335 NONAME
??4textEntityTypeUnderline@td_api@td@@QAEAAV012@$$QAV012@@Z @336 NONAME
??4textEntityTypeUrl@td_api@td@@QAEAAV012@$$QAV012@@Z @337 NONAME
??4viewMessages@td_api@td@@QAEAAV012@$$QAV012@@Z @338 NONAME
??_7addContact@td_api@td@@6B@ @339 NONAME
??_7addMessageReaction@td_api@td@@6B@ @340 NONAME
??_7addProxy@td_api@td@@6B@ @341 NONAME
??_7chatActionTyping@td_api@td@@6B@ @342 NONAME
??_7chatNotificationSettings@td_api@td@@6B@ @343 NONAME
??_7checkAuthenticationCode@td_api@td@@6B@ @344 NONAME
??_7checkAuthenticationEmailCode@td_api@td@@6B@ @345 NONAME
??_7checkAuthenticationPassword@td_api@td@@6B@ @346 NONAME
??_7close@td_api@td@@6B@ @347 NONAME
??_7contact@td_api@td@@6B@ @348 NONAME
??_7createPrivateChat@td_api@td@@6B@ @349 NONAME
??_7deleteChat@td_api@td@@6B@ @350 NONAME
??_7deleteChatHistory@td_api@td@@6B@ @351 NONAME
??_7deleteMessages@td_api@td@@6B@ @352 NONAME
??_7downloadFile@td_api@td@@6B@ @353 NONAME
??_7editMessageText@td_api@td@@6B@ @354 NONAME
??_7emailAddressAuthenticationCode@td_api@td@@6B@ @355 NONAME
??_7formattedText@td_api@td@@6B@ @356 NONAME
??_7forwardMessages@td_api@td@@6B@ @357 NONAME
??_7getActiveSessions@td_api@td@@6B@ @358 NONAME
??_7getBasicGroupFullInfo@td_api@td@@6B@ @359 NONAME
??_7getChat@td_api@td@@6B@ @360 NONAME
??_7getChatHistory@td_api@td@@6B@ @361 NONAME
??_7getChats@td_api@td@@6B@ @362 NONAME
??_7getForumTopics@td_api@td@@6B@ @363 NONAME
??_7getMessageThreadHistory@td_api@td@@6B@ @364 NONAME
??_7getOption@td_api@td@@6B@ @365 NONAME
??_7getRemoteFile@td_api@td@@6B@ @366 NONAME
??_7getSupergroupFullInfo@td_api@td@@6B@ @367 NONAME
??_7getSupergroupMembers@td_api@td@@6B@ @368 NONAME
??_7getUserFullInfo@td_api@td@@6B@ @369 NONAME
??_7importContacts@td_api@td@@6B@ @370 NONAME
??_7inputChatPhotoStatic@td_api@td@@6B@ @371 NONAME
??_7inputFileLocal@td_api@td@@6B@ @372 NONAME
??_7inputMessageAudio@td_api@td@@6B@ @373 NONAME
??_7inputMessageDocument@td_api@td@@6B@ @374 NONAME
??_7inputMessagePhoto@td_api@td@@6B@ @375 NONAME
??_7inputMessageReplyToMessage@td_api@td@@6B@ @376 NONAME
??_7inputMessageText@td_api@td@@6B@ @377 NONAME
??_7inputMessageVideo@td_api@td@@6B@ @378 NONAME
??_7joinChat@td_api@td@@6B@ @379 NONAME
??_7leaveChat@td_api@td@@6B@ @380 NONAME
??_7logOut@td_api@td@@6B@ @381 NONAME
??_7message@td_api@td@@6B@ @382 NONAME
??_7messageSenderChat@td_api@td@@6B@ @383 NONAME
??_7proxyTypeHttp@td_api@td@@6B@ @384 NONAME
??_7proxyTypeSocks5@td_api@td@@6B@ @385 NONAME
??_7reactionTypeEmoji@td_api@td@@6B@ @386 NONAME
??_7removeContacts@td_api@td@@6B@ @387 NONAME
??_7searchChatsOnServer@td_api@td@@6B@ @388 NONAME
??_7searchPublicChats@td_api@td@@6B@ @389 NONAME
??_7sendChatAction@td_api@td@@6B@ @390 NONAME
??_7sendMessage@td_api@td@@6B@ @391 NONAME
??_7sendMessageAlbum@td_api@td@@6B@ @392 NONAME
??_7setAuthenticationEmailAddress@td_api@td@@6B@ @393 NONAME
??_7setAuthenticationPhoneNumber@td_api@td@@6B@ @394 NONAME
??_7setChatNotificationSettings@td_api@td@@6B@ @395 NONAME
??_7setProfilePhoto@td_api@td@@6B@ @396 NONAME
??_7setTdlibParameters@td_api@td@@6B@ @397 NONAME
??_7terminateSession@td_api@td@@6B@ @398 NONAME
??_7textEntity@td_api@td@@6B@ @399 NONAME
??_7textEntityTypeBlockQuote@td_api@td@@6B@ @400 NONAME
??_7textEntityTypeBold@td_api@td@@6B@ @401 NONAME
??_7textEntityTypeCode@td_api@td@@6B@ @402 NONAME
??_7textEntityTypeItalic@td_api@td@@6B@ @403 NONAME
??_7textEntityTypeStrikethrough@td_api@td@@6B@ @404 NONAME
??_7textEntityTypeUnderline@td_api@td@@6B@ @405 NONAME
??_7textEntityTypeUrl@td_api@td@@6B@ @406 NONAME
??_7viewMessages@td_api@td@@6B@ @407 NONAME
?ID@addContact@td_api@td@@2HB @408 NONAME
?ID@addMessageReaction@td_api@td@@2HB @409 NONAME
?ID@addProxy@td_api@td@@2HB @410 NONAME
?ID@chatActionTyping@td_api@td@@2HB @411 NONAME
?ID@chatNotificationSettings@td_api@td@@2HB @412 NONAME
?ID@checkAuthenticationCode@td_api@td@@2HB @413 NONAME
?ID@checkAuthenticationEmailCode@td_api@td@@2HB @414 NONAME
?ID@checkAuthenticationPassword@td_api@td@@2HB @415 NONAME
?ID@close@td_api@td@@2HB @416 NONAME
?ID@contact@td_api@td@@2HB @417 NONAME
?ID@createPrivateChat@td_api@td@@2HB @418 NONAME
?ID@deleteChat@td_api@td@@2HB @419 NONAME
?ID@deleteChatHistory@td_api@td@@2HB @420 NONAME
?ID@deleteMessages@td_api@td@@2HB @421 NONAME
?ID@downloadFile@td_api@td@@2HB @422 NONAME
?ID@editMessageText@td_api@td@@2HB @423 NONAME
?ID@emailAddressAuthenticationCode@td_api@td@@2HB @424 NONAME
?ID@formattedText@td_api@td@@2HB @425 NONAME
?ID@forwardMessages@td_api@td@@2HB @426 NONAME
?ID@getActiveSessions@td_api@td@@2HB @427 NONAME
?ID@getBasicGroupFullInfo@td_api@td@@2HB @428 NONAME
?ID@getChat@td_api@td@@2HB @429 NONAME
?ID@getChatHistory@td_api@td@@2HB @430 NONAME
?ID@getChats@td_api@td@@2HB @431 NONAME
?ID@getForumTopics@td_api@td@@2HB @432 NONAME
?ID@getMessageThreadHistory@td_api@td@@2HB @433 NONAME
?ID@getOption@td_api@td@@2HB @434 NONAME
?ID@getRemoteFile@td_api@td@@2HB @435 NONAME
?ID@getSupergroupFullInfo@td_api@td@@2HB @436 NONAME
?ID@getSupergroupMembers@td_api@td@@2HB @437 NONAME
?ID@getUserFullInfo@td_api@td@@2HB @438 NONAME
?ID@importContacts@td_api@td@@2HB @439 NONAME
?ID@inputChatPhotoStatic@td_api@td@@2HB @440 NONAME
?ID@inputFileLocal@td_api@td@@2HB @441 NONAME
?ID@inputMessageAudio@td_api@td@@2HB @442 NONAME
?ID@inputMessageDocument@td_api@td@@2HB @443 NONAME
?ID@inputMessagePhoto@td_api@td@@2HB @444 NONAME
?ID@inputMessageReplyToMessage@td_api@td@@2HB @445 NONAME
?ID@inputMessageText@td_api@td@@2HB @446 NONAME
?ID@inputMessageVideo@td_api@td@@2HB @447 NONAME
?ID@joinChat@td_api@td@@2HB @448 NONAME
?ID@leaveChat@td_api@td@@2HB @449 NONAME
?ID@logOut@td_api@td@@2HB @450 NONAME
?ID@message@td_api@td@@2HB @451 NONAME
?ID@messageSenderChat@td_api@td@@2HB @452 NONAME
?ID@proxyTypeHttp@td_api@td@@2HB @453 NONAME
?ID@proxyTypeSocks5@td_api@td@@2HB @454 NONAME
?ID@reactionTypeEmoji@td_api@td@@2HB @455 NONAME
?ID@removeContacts@td_api@td@@2HB @456 NONAME
?ID@searchChatsOnServer@td_api@td@@2HB @457 NONAME
?ID@searchPublicChats@td_api@td@@2HB @458 NONAME
?ID@sendChatAction@td_api@td@@2HB @459 NONAME
?ID@sendMessage@td_api@td@@2HB @460 NONAME
?ID@sendMessageAlbum@td_api@td@@2HB @461 NONAME
?ID@setAuthenticationEmailAddress@td_api@td@@2HB @462 NONAME
?ID@setAuthenticationPhoneNumber@td_api@td@@2HB @463 NONAME
?ID@setChatNotificationSettings@td_api@td@@2HB @464 NONAME
?ID@setProfilePhoto@td_api@td@@2HB @465 NONAME
?ID@setTdlibParameters@td_api@td@@2HB @466 NONAME
?ID@terminateSession@td_api@td@@2HB @467 NONAME
?ID@textEntity@td_api@td@@2HB @468 NONAME
?ID@textEntityTypeBlockQuote@td_api@td@@2HB @469 NONAME
?ID@textEntityTypeBold@td_api@td@@2HB @470 NONAME
?ID@textEntityTypeCode@td_api@td@@2HB @471 NONAME
?ID@textEntityTypeItalic@td_api@td@@2HB @472 NONAME
?ID@textEntityTypeStrikethrough@td_api@td@@2HB @473 NONAME
?ID@textEntityTypeUnderline@td_api@td@@2HB @474 NONAME
?ID@textEntityTypeUrl@td_api@td@@2HB @475 NONAME
?ID@viewMessages@td_api@td@@2HB @476 NONAME
?boo@@YAXXZ @477 NONAME
?create_client_id@ClientManager@td@@QAEHXZ @478 NONAME
?execute@ClientManager@td@@SA?AV?$unique_ptr@VObject@td_api@td@@@tl@2@$$QAV?$unique_ptr@VFunction@td_api@td@@@42@@Z @479 NONAME
?get_id@addContact@td_api@td@@EBEHXZ @480 NONAME
?get_id@addMessageReaction@td_api@td@@EBEHXZ @481 NONAME
?get_id@addProxy@td_api@td@@EBEHXZ @482 NONAME
?get_id@chatActionTyping@td_api@td@@EBEHXZ @483 NONAME
?get_id@chatNotificationSettings@td_api@td@@EBEHXZ @484 NONAME
?get_id@checkAuthenticationCode@td_api@td@@EBEHXZ @485 NONAME
?get_id@checkAuthenticationEmailCode@td_api@td@@EBEHXZ @486 NONAME
?get_id@checkAuthenticationPassword@td_api@td@@EBEHXZ @487 NONAME
?get_id@close@td_api@td@@EBEHXZ @488 NONAME
?get_id@contact@td_api@td@@EBEHXZ @489 NONAME
?get_id@createPrivateChat@td_api@td@@EBEHXZ @490 NONAME
?get_id@deleteChat@td_api@td@@EBEHXZ @491 NONAME
?get_id@deleteChatHistory@td_api@td@@EBEHXZ @492 NONAME
?get_id@deleteMessages@td_api@td@@EBEHXZ @493 NONAME
?get_id@downloadFile@td_api@td@@EBEHXZ @494 NONAME
?get_id@editMessageText@td_api@td@@EBEHXZ @495 NONAME
?get_id@emailAddressAuthenticationCode@td_api@td@@EBEHXZ @496 NONAME
?get_id@formattedText@td_api@td@@EBEHXZ @497 NONAME
?get_id@forwardMessages@td_api@td@@EBEHXZ @498 NONAME
?get_id@getActiveSessions@td_api@td@@EBEHXZ @499 NONAME
?get_id@getBasicGroupFullInfo@td_api@td@@EBEHXZ @500 NONAME
?get_id@getChat@td_api@td@@EBEHXZ @501 NONAME
?get_id@getChatHistory@td_api@td@@EBEHXZ @502 NONAME
?get_id@getChats@td_api@td@@EBEHXZ @503 NONAME
?get_id@getForumTopics@td_api@td@@EBEHXZ @504 NONAME
?get_id@getMessageThreadHistory@td_api@td@@EBEHXZ @505 NONAME
?get_id@getOption@td_api@td@@EBEHXZ @506 NONAME
?get_id@getRemoteFile@td_api@td@@EBEHXZ @507 NONAME
?get_id@getSupergroupFullInfo@td_api@td@@EBEHXZ @508 NONAME
?get_id@getSupergroupMembers@td_api@td@@EBEHXZ @509 NONAME
?get_id@getUserFullInfo@td_api@td@@EBEHXZ @510 NONAME
?get_id@importContacts@td_api@td@@EBEHXZ @511 NONAME
?get_id@inputChatPhotoStatic@td_api@td@@EBEHXZ @512 NONAME
?get_id@inputFileLocal@td_api@td@@EBEHXZ @513 NONAME
?get_id@inputMessageAudio@td_api@td@@EBEHXZ @514 NONAME
?get_id@inputMessageDocument@td_api@td@@EBEHXZ @515 NONAME
?get_id@inputMessagePhoto@td_api@td@@EBEHXZ @516 NONAME
?get_id@inputMessageReplyToMessage@td_api@td@@EBEHXZ @517 NONAME
?get_id@inputMessageText@td_api@td@@EBEHXZ @518 NONAME
?get_id@inputMessageVideo@td_api@td@@EBEHXZ @519 NONAME
?get_id@joinChat@td_api@td@@EBEHXZ @520 NONAME
?get_id@leaveChat@td_api@td@@EBEHXZ @521 NONAME
?get_id@logOut@td_api@td@@EBEHXZ @522 NONAME
?get_id@message@td_api@td@@EBEHXZ @523 NONAME
?get_id@messageSenderChat@td_api@td@@EBEHXZ @524 NONAME
?get_id@proxyTypeHttp@td_api@td@@EBEHXZ @525 NONAME
?get_id@proxyTypeSocks5@td_api@td@@EBEHXZ @526 NONAME
?get_id@reactionTypeEmoji@td_api@td@@EBEHXZ @527 NONAME
?get_id@removeContacts@td_api@td@@EBEHXZ @528 NONAME
?get_id@searchChatsOnServer@td_api@td@@EBEHXZ @529 NONAME
?get_id@searchPublicChats@td_api@td@@EBEHXZ @530 NONAME
?get_id@sendChatAction@td_api@td@@EBEHXZ @531 NONAME
?get_id@sendMessage@td_api@td@@EBEHXZ @532 NONAME
?get_id@sendMessageAlbum@td_api@td@@EBEHXZ @533 NONAME
?get_id@setAuthenticationEmailAddress@td_api@td@@EBEHXZ @534 NONAME
?get_id@setAuthenticationPhoneNumber@td_api@td@@EBEHXZ @535 NONAME
?get_id@setChatNotificationSettings@td_api@td@@EBEHXZ @536 NONAME
?get_id@setProfilePhoto@td_api@td@@EBEHXZ @537 NONAME
?get_id@setTdlibParameters@td_api@td@@EBEHXZ @538 NONAME
?get_id@terminateSession@td_api@td@@EBEHXZ @539 NONAME
?get_id@textEntity@td_api@td@@EBEHXZ @540 NONAME
?get_id@textEntityTypeBlockQuote@td_api@td@@EBEHXZ @541 NONAME
?get_id@textEntityTypeBold@td_api@td@@EBEHXZ @542 NONAME
?get_id@textEntityTypeCode@td_api@td@@EBEHXZ @543 NONAME
?get_id@textEntityTypeItalic@td_api@td@@EBEHXZ @544 NONAME
?get_id@textEntityTypeStrikethrough@td_api@td@@EBEHXZ @545 NONAME
?get_id@textEntityTypeUnderline@td_api@td@@EBEHXZ @546 NONAME
?get_id@textEntityTypeUrl@td_api@td@@EBEHXZ @547 NONAME
?get_id@viewMessages@td_api@td@@EBEHXZ @548 NONAME
?get_manager_singleton@ClientManager@td@@SAPAV12@XZ @549 NONAME
?receive@ClientManager@td@@QAE?AUResponse@12@N@Z @550 NONAME
?send@ClientManager@td@@QAEXH_K$$QAV?$unique_ptr@VFunction@td_api@td@@@tl@2@@Z @551 NONAME
?set_log_message_callback@ClientManager@td@@SAXHP6AXHPBD@Z@Z @552 NONAME
?store@addContact@td_api@td@@UBEXAAVTlStorerToString@3@PBD@Z @553 NONAME
?store@addMessageReaction@td_api@td@@UBEXAAVTlStorerToString@3@PBD@Z @554 NONAME
?store@addProxy@td_api@td@@UBEXAAVTlStorerToString@3@PBD@Z @555 NONAME
?store@chatActionTyping@td_api@td@@UBEXAAVTlStorerToString@3@PBD@Z @556 NONAME
?store@chatNotificationSettings@td_api@td@@UBEXAAVTlStorerToString@3@PBD@Z @557 NONAME
?store@checkAuthenticationCode@td_api@td@@UBEXAAVTlStorerToString@3@PBD@Z @558 NONAME
?store@checkAuthenticationEmailCode@td_api@td@@UBEXAAVTlStorerToString@3@PBD@Z @559 NONAME
?store@checkAuthenticationPassword@td_api@td@@UBEXAAVTlStorerToString@3@PBD@Z @560 NONAME
?store@close@td_api@td@@UBEXAAVTlStorerToString@3@PBD@Z @561 NONAME
?store@contact@td_api@td@@UBEXAAVTlStorerToString@3@PBD@Z @562 NONAME
?store@createPrivateChat@td_api@td@@UBEXAAVTlStorerToString@3@PBD@Z @563 NONAME
?store@deleteChat@td_api@td@@UBEXAAVTlStorerToString@3@PBD@Z @564 NONAME
?store@deleteChatHistory@td_api@td@@UBEXAAVTlStorerToString@3@PBD@Z @565 NONAME
?store@deleteMessages@td_api@td@@UBEXAAVTlStorerToString@3@PBD@Z @566 NONAME
?store@downloadFile@td_api@td@@UBEXAAVTlStorerToString@3@PBD@Z @567 NONAME
?store@editMessageText@td_api@td@@UBEXAAVTlStorerToString@3@PBD@Z @568 NONAME
?store@emailAddressAuthenticationCode@td_api@td@@UBEXAAVTlStorerToString@3@PBD@Z @569 NONAME
?store@formattedText@td_api@td@@UBEXAAVTlStorerToString@3@PBD@Z @570 NONAME
?store@forwardMessages@td_api@td@@UBEXAAVTlStorerToString@3@PBD@Z @571 NONAME
?store@getActiveSessions@td_api@td@@UBEXAAVTlStorerToString@3@PBD@Z @572 NONAME
?store@getBasicGroupFullInfo@td_api@td@@UBEXAAVTlStorerToString@3@PBD@Z @573 NONAME
?store@getChat@td_api@td@@UBEXAAVTlStorerToString@3@PBD@Z @574 NONAME
?store@getChatHistory@td_api@td@@UBEXAAVTlStorerToString@3@PBD@Z @575 NONAME
?store@getChats@td_api@td@@UBEXAAVTlStorerToString@3@PBD@Z @576 NONAME
?store@getForumTopics@td_api@td@@UBEXAAVTlStorerToString@3@PBD@Z @577 NONAME
?store@getMessageThreadHistory@td_api@td@@UBEXAAVTlStorerToString@3@PBD@Z @578 NONAME
?store@getOption@td_api@td@@UBEXAAVTlStorerToString@3@PBD@Z @579 NONAME
?store@getRemoteFile@td_api@td@@UBEXAAVTlStorerToString@3@PBD@Z @580 NONAME
?store@getSupergroupFullInfo@td_api@td@@UBEXAAVTlStorerToString@3@PBD@Z @581 NONAME
?store@getSupergroupMembers@td_api@td@@UBEXAAVTlStorerToString@3@PBD@Z @582 NONAME
?store@getUserFullInfo@td_api@td@@UBEXAAVTlStorerToString@3@PBD@Z @583 NONAME
?store@importContacts@td_api@td@@UBEXAAVTlStorerToString@3@PBD@Z @584 NONAME
?store@inputChatPhotoStatic@td_api@td@@UBEXAAVTlStorerToString@3@PBD@Z @585 NONAME
?store@inputFileLocal@td_api@td@@UBEXAAVTlStorerToString@3@PBD@Z @586 NONAME
?store@inputMessageAudio@td_api@td@@UBEXAAVTlStorerToString@3@PBD@Z @587 NONAME
?store@inputMessageDocument@td_api@td@@UBEXAAVTlStorerToString@3@PBD@Z @588 NONAME
?store@inputMessagePhoto@td_api@td@@UBEXAAVTlStorerToString@3@PBD@Z @589 NONAME
?store@inputMessageReplyToMessage@td_api@td@@UBEXAAVTlStorerToString@3@PBD@Z @590 NONAME
?store@inputMessageText@td_api@td@@UBEXAAVTlStorerToString@3@PBD@Z @591 NONAME
?store@inputMessageVideo@td_api@td@@UBEXAAVTlStorerToString@3@PBD@Z @592 NONAME
?store@joinChat@td_api@td@@UBEXAAVTlStorerToString@3@PBD@Z @593 NONAME
?store@leaveChat@td_api@td@@UBEXAAVTlStorerToString@3@PBD@Z @594 NONAME
?store@logOut@td_api@td@@UBEXAAVTlStorerToString@3@PBD@Z @595 NONAME
?store@message@td_api@td@@UBEXAAVTlStorerToString@3@PBD@Z @596 NONAME
?store@messageSenderChat@td_api@td@@UBEXAAVTlStorerToString@3@PBD@Z @597 NONAME
?store@proxyTypeHttp@td_api@td@@UBEXAAVTlStorerToString@3@PBD@Z @598 NONAME
?store@proxyTypeSocks5@td_api@td@@UBEXAAVTlStorerToString@3@PBD@Z @599 NONAME
?store@reactionTypeEmoji@td_api@td@@UBEXAAVTlStorerToString@3@PBD@Z @600 NONAME
?store@removeContacts@td_api@td@@UBEXAAVTlStorerToString@3@PBD@Z @601 NONAME
?store@searchChatsOnServer@td_api@td@@UBEXAAVTlStorerToString@3@PBD@Z @602 NONAME
?store@searchPublicChats@td_api@td@@UBEXAAVTlStorerToString@3@PBD@Z @603 NONAME
?store@sendChatAction@td_api@td@@UBEXAAVTlStorerToString@3@PBD@Z @604 NONAME
?store@sendMessage@td_api@td@@UBEXAAVTlStorerToString@3@PBD@Z @605 NONAME
?store@sendMessageAlbum@td_api@td@@UBEXAAVTlStorerToString@3@PBD@Z @606 NONAME
?store@setAuthenticationEmailAddress@td_api@td@@UBEXAAVTlStorerToString@3@PBD@Z @607 NONAME
?store@setAuthenticationPhoneNumber@td_api@td@@UBEXAAVTlStorerToString@3@PBD@Z @608 NONAME
?store@setChatNotificationSettings@td_api@td@@UBEXAAVTlStorerToString@3@PBD@Z @609 NONAME
?store@setProfilePhoto@td_api@td@@UBEXAAVTlStorerToString@3@PBD@Z @610 NONAME
?store@setTdlibParameters@td_api@td@@UBEXAAVTlStorerToString@3@PBD@Z @611 NONAME
?store@terminateSession@td_api@td@@UBEXAAVTlStorerToString@3@PBD@Z @612 NONAME
?store@textEntity@td_api@td@@UBEXAAVTlStorerToString@3@PBD@Z @613 NONAME
?store@textEntityTypeBlockQuote@td_api@td@@UBEXAAVTlStorerToString@3@PBD@Z @614 NONAME
?store@textEntityTypeBold@td_api@td@@UBEXAAVTlStorerToString@3@PBD@Z @615 NONAME
?store@textEntityTypeCode@td_api@td@@UBEXAAVTlStorerToString@3@PBD@Z @616 NONAME
?store@textEntityTypeItalic@td_api@td@@UBEXAAVTlStorerToString@3@PBD@Z @617 NONAME
?store@textEntityTypeStrikethrough@td_api@td@@UBEXAAVTlStorerToString@3@PBD@Z @618 NONAME
?store@textEntityTypeUnderline@td_api@td@@UBEXAAVTlStorerToString@3@PBD@Z @619 NONAME
?store@textEntityTypeUrl@td_api@td@@UBEXAAVTlStorerToString@3@PBD@Z @620 NONAME
?store@viewMessages@td_api@td@@UBEXAAVTlStorerToString@3@PBD@Z @621 NONAME
?to_string@td_api@td@@YA?AV?$basic_string@DU?$char_traits@D@std@@V?$allocator@D@2@@std@@ABVTlObject@2@@Z @622 NONAME
