LIBRARY libjson.mir

EXPORTS
??0JSONNode@@AEAA@AEBV?$basic_string@DU?$char_traits@D@std@@V?$allocator@D@2@@std@@@Z @1 NONAME
??0JSONNode@@AEAA@PEAVinternalJSONNode@@@Z @2 NONAME
??0JSONNode@@AEAA@_NAEAV0@@Z @3 NONAME
??0JSONNode@@QEAA@AEBV0@@Z @4 NONAME
??0JSONNode@@QEAA@AEBV?$basic_string@DU?$char_traits@D@std@@V?$allocator@D@2@@std@@0@Z @5 NONAME
??0JSONNode@@QEAA@AEBV?$basic_string@DU?$char_traits@D@std@@V?$allocator@D@2@@std@@D@Z @6 NONAME
??0JSONNode@@QEAA@AEBV?$basic_string@DU?$char_traits@D@std@@V?$allocator@D@2@@std@@E@Z @7 NONAME
??0JSONNode@@QEAA@AEBV?$basic_string@DU?$char_traits@D@std@@V?$allocator@D@2@@std@@F@Z @8 NONAME
??0JSONNode@@QEAA@AEBV?$basic_string@DU?$char_traits@D@std@@V?$allocator@D@2@@std@@G@Z @9 NONAME
??0JSONNode@@QEAA@AEBV?$basic_string@DU?$char_traits@D@std@@V?$allocator@D@2@@std@@H@Z @10 NONAME
??0JSONNode@@QEAA@AEBV?$basic_string@DU?$char_traits@D@std@@V?$allocator@D@2@@std@@I@Z @11 NONAME
??0JSONNode@@QEAA@AEBV?$basic_string@DU?$char_traits@D@std@@V?$allocator@D@2@@std@@J@Z @12 NONAME
??0JSONNode@@QEAA@AEBV?$basic_string@DU?$char_traits@D@std@@V?$allocator@D@2@@std@@K@Z @13 NONAME
??0JSONNode@@QEAA@AEBV?$basic_string@DU?$char_traits@D@std@@V?$allocator@D@2@@std@@M@Z @14 NONAME
??0JSONNode@@QEAA@AEBV?$basic_string@DU?$char_traits@D@std@@V?$allocator@D@2@@std@@N@Z @15 NONAME
??0JSONNode@@QEAA@AEBV?$basic_string@DU?$char_traits@D@std@@V?$allocator@D@2@@std@@PEBD@Z @16 NONAME
??0JSONNode@@QEAA@AEBV?$basic_string@DU?$char_traits@D@std@@V?$allocator@D@2@@std@@_N@Z @17 NONAME
??0JSONNode@@QEAA@D@Z @18 NONAME
??1JSONNode@@QEAA@XZ @19 NONAME
??4JSONNode@@QEAAAEAV0@AEBV0@@Z @20 NONAME
??4JSONNode@@QEAAAEAV0@AEBV?$basic_string@DU?$char_traits@D@std@@V?$allocator@D@2@@std@@@Z @21 NONAME
??4JSONNode@@QEAAAEAV0@D@Z @22 NONAME
??4JSONNode@@QEAAAEAV0@E@Z @23 NONAME
??4JSONNode@@QEAAAEAV0@F@Z @24 NONAME
??4JSONNode@@QEAAAEAV0@G@Z @25 NONAME
??4JSONNode@@QEAAAEAV0@H@Z @26 NONAME
??4JSONNode@@QEAAAEAV0@I@Z @27 NONAME
??4JSONNode@@QEAAAEAV0@J@Z @28 NONAME
??4JSONNode@@QEAAAEAV0@K@Z @29 NONAME
??4JSONNode@@QEAAAEAV0@M@Z @30 NONAME
??4JSONNode@@QEAAAEAV0@N@Z @31 NONAME
??4JSONNode@@QEAAAEAV0@PEBD@Z @32 NONAME
??4JSONNode@@QEAAAEAV0@_N@Z @33 NONAME
??4JSONWorker@@QEAAAEAV0@AEBV0@@Z @34 NONAME
??8JSONNode@@QEBA_NAEBV0@@Z @35 NONAME
??8JSONNode@@QEBA_NAEBV?$basic_string@DU?$char_traits@D@std@@V?$allocator@D@2@@std@@@Z @36 NONAME
??8JSONNode@@QEBA_ND@Z @37 NONAME
??8JSONNode@@QEBA_NE@Z @38 NONAME
??8JSONNode@@QEBA_NF@Z @39 NONAME
??8JSONNode@@QEBA_NG@Z @40 NONAME
??8JSONNode@@QEBA_NH@Z @41 NONAME
??8JSONNode@@QEBA_NI@Z @42 NONAME
??8JSONNode@@QEBA_NJ@Z @43 NONAME
??8JSONNode@@QEBA_NK@Z @44 NONAME
??8JSONNode@@QEBA_NM@Z @45 NONAME
??8JSONNode@@QEBA_NN@Z @46 NONAME
??8JSONNode@@QEBA_NPEBD@Z @47 NONAME
??8JSONNode@@QEBA_N_N@Z @48 NONAME
??9JSONNode@@QEBA_NAEBV0@@Z @49 NONAME
??9JSONNode@@QEBA_NAEBV?$basic_string@DU?$char_traits@D@std@@V?$allocator@D@2@@std@@@Z @50 NONAME
??9JSONNode@@QEBA_ND@Z @51 NONAME
??9JSONNode@@QEBA_NE@Z @52 NONAME
??9JSONNode@@QEBA_NF@Z @53 NONAME
??9JSONNode@@QEBA_NG@Z @54 NONAME
??9JSONNode@@QEBA_NH@Z @55 NONAME
??9JSONNode@@QEBA_NI@Z @56 NONAME
??9JSONNode@@QEBA_NJ@Z @57 NONAME
??9JSONNode@@QEBA_NK@Z @58 NONAME
??9JSONNode@@QEBA_NM@Z @59 NONAME
??9JSONNode@@QEBA_NN@Z @60 NONAME
??9JSONNode@@QEBA_NPEBD@Z @61 NONAME
??9JSONNode@@QEBA_N_N@Z @62 NONAME
??AJSONNode@@QEAAAEAV0@PEBD@Z @63 NONAME
??AJSONNode@@QEAAAEAV0@_K@Z @64 NONAME
??AJSONNode@@QEBAAEBV0@PEBD@Z @65 NONAME
??AJSONNode@@QEBAAEBV0@_K@Z @66 NONAME
??BJSONNode@@QEBA_NXZ @67 NONAME
??_FJSONNode@@QEAAXXZ @68 NONAME
?DoArray@JSONWorker@@SAXPEBVinternalJSONNode@@AEBV?$basic_string@DU?$char_traits@D@std@@V?$allocator@D@2@@std@@@Z @69 NONAME
?DoNode@JSONWorker@@SAXPEBVinternalJSONNode@@AEBV?$basic_string@DU?$char_traits@D@std@@V?$allocator@D@2@@std@@@Z @70 NONAME
?FindNextRelevant@JSONWorker@@CA_KDAEBV?$basic_string@DU?$char_traits@D@std@@V?$allocator@D@2@@std@@_K@Z @71 NONAME
?FixString@JSONWorker@@SA?AV?$basic_string@DU?$char_traits@D@std@@V?$allocator@D@2@@std@@AEBV23@AEA_N@Z @72 NONAME
?Hex@JSONWorker@@CADAEAPEBD@Z @73 NONAME
?NewNode@JSONWorker@@CAXPEBVinternalJSONNode@@AEBV?$basic_string@DU?$char_traits@D@std@@V?$allocator@D@2@@std@@1_N@Z @74 NONAME
?RemoveWhiteSpace@JSONWorker@@SAPEADAEBV?$basic_string@DU?$char_traits@D@std@@V?$allocator@D@2@@std@@AEAD@Z @75 NONAME
?RemoveWhiteSpaceAndComments@JSONWorker@@SA?AV?$basic_string@DU?$char_traits@D@std@@V?$allocator@D@2@@std@@AEBV23@@Z @76 NONAME
?SpecialChar@JSONWorker@@CAXAEAPEBDAEAV?$basic_string@DU?$char_traits@D@std@@V?$allocator@D@2@@std@@@Z @77 NONAME
?UTF8@JSONWorker@@CAEAEAPEBD@Z @78 NONAME
?UTF8_2@JSONWorker@@CAPEADAEAPEBD@Z @79 NONAME
?UnfixString@JSONWorker@@SA?AV?$basic_string@DU?$char_traits@D@std@@V?$allocator@D@2@@std@@AEBV23@_N@Z @80 NONAME
?as_array@JSONNode@@QEBA?AV1@XZ @81 NONAME
?as_bool@JSONNode@@QEBA_NXZ @82 NONAME
?as_float@JSONNode@@QEBANXZ @83 NONAME
?as_int@JSONNode@@QEBAJXZ @84 NONAME
?as_mstring@JSONNode@@QEBA?AV?$CMStringT@_WV?$ChTraitsCRT@_W@@@@XZ @85 NONAME
?as_node@JSONNode@@QEBA?AV1@XZ @86 NONAME
?as_string@JSONNode@@QEBA?AV?$basic_string@DU?$char_traits@D@std@@V?$allocator@D@2@@std@@XZ @87 NONAME
?at@JSONNode@@QEAAAEAV1@PEBD@Z @88 NONAME
?at@JSONNode@@QEAAAEAV1@_K@Z @89 NONAME
?at@JSONNode@@QEBAAEBV1@PEBD@Z @90 NONAME
?at@JSONNode@@QEBAAEBV1@_K@Z @91 NONAME
?begin@JSONNode@@QEAA?AUiterator@1@XZ @92 NONAME
?begin@JSONNode@@QEBA?AUconst_iterator@1@XZ @93 NONAME
?cast@JSONNode@@QEAAXD@Z @94 NONAME
?clear@JSONNode@@QEAAXXZ @95 NONAME
?decRef@JSONNode@@AEAAXXZ @96 NONAME
?deleteJSONNode@JSONNode@@SAXPEAV1@@Z @97 NONAME
?duplicate@JSONNode@@QEBA?AV1@XZ @98 NONAME
?empty@JSONNode@@QEBA_NXZ @99 NONAME
?end@JSONNode@@QEAA?AUiterator@1@XZ @100 NONAME
?end@JSONNode@@QEBA?AUconst_iterator@1@XZ @101 NONAME
?erase@JSONNode@@QEAA?AUiterator@1@U21@@Z @102 NONAME
?erase@JSONNode@@QEAA?AUiterator@1@U21@AEBU21@@Z @103 NONAME
?erase@JSONNode@@QEAA?AUreverse_iterator@1@U21@@Z @104 NONAME
?erase@JSONNode@@QEAA?AUreverse_iterator@1@U21@AEBU21@@Z @105 NONAME
?find@JSONNode@@QEAA?AUiterator@1@AEBV?$basic_string@DU?$char_traits@D@std@@V?$allocator@D@2@@std@@@Z @106 NONAME
?find@JSONNode@@QEBA?AUconst_iterator@1@AEBV?$basic_string@DU?$char_traits@D@std@@V?$allocator@D@2@@std@@@Z @107 NONAME
?insert@JSONNode@@QEAA?AUiterator@1@U21@AEBU21@1@Z @108 NONAME
?insert@JSONNode@@QEAA?AUiterator@1@U21@AEBUconst_iterator@1@1@Z @109 NONAME
?insert@JSONNode@@QEAA?AUiterator@1@U21@AEBUreverse_const_iterator@1@1@Z @110 NONAME
?insert@JSONNode@@QEAA?AUiterator@1@U21@AEBUreverse_iterator@1@1@Z @111 NONAME
?insert@JSONNode@@QEAA?AUiterator@1@U21@AEBV1@@Z @112 NONAME
?insert@JSONNode@@QEAA?AUreverse_iterator@1@U21@AEBU21@1@Z @113 NONAME
?insert@JSONNode@@QEAA?AUreverse_iterator@1@U21@AEBUconst_iterator@1@1@Z @114 NONAME
?insert@JSONNode@@QEAA?AUreverse_iterator@1@U21@AEBUiterator@1@1@Z @115 NONAME
?insert@JSONNode@@QEAA?AUreverse_iterator@1@U21@AEBUreverse_const_iterator@1@1@Z @116 NONAME
?insert@JSONNode@@QEAA?AUreverse_iterator@1@U21@AEBV1@@Z @117 NONAME
?insertFFF@JSONNode@@AEAA?AUiterator@1@U21@QEAPEAV1@1@Z @118 NONAME
?insertFRR@JSONNode@@AEAA?AUiterator@1@U21@QEAPEAV1@1@Z @119 NONAME
?insertRFF@JSONNode@@AEAA?AUreverse_iterator@1@U21@QEAPEAV1@1@Z @120 NONAME
?insertRRR@JSONNode@@AEAA?AUreverse_iterator@1@U21@QEAPEAV1@1@Z @121 NONAME
?isnull@JSONNode@@QEBA_NXZ @122 NONAME
?makeUniqueInternal@JSONNode@@AEAAXXZ @123 NONAME
?merge@JSONNode@@AEAAXPEAV1@@Z @124 NONAME
?merge@JSONNode@@QEAAXAEAV1@@Z @125 NONAME
?merge@JSONNode@@QEAAXIZZ @126 NONAME
?name@JSONNode@@QEBAPEBDXZ @127 NONAME
?newJSONNode@JSONNode@@CAPEAV1@AEBV1@@Z @128 NONAME
?newJSONNode@JSONNode@@CAPEAV1@PEAVinternalJSONNode@@@Z @129 NONAME
?newJSONNode_Shallow@JSONNode@@SAPEAV1@AEBV1@@Z @130 NONAME
?nullify@JSONNode@@QEAAXXZ @131 NONAME
?parse@JSONNode@@SA?AV1@PEBD@Z @132 NONAME
?parse@JSONWorker@@SA?AVJSONNode@@AEBV?$basic_string@DU?$char_traits@D@std@@V?$allocator@D@2@@std@@@Z @133 NONAME
?pop_back@JSONNode@@QEAA?AV1@AEBV?$basic_string@DU?$char_traits@D@std@@V?$allocator@D@2@@std@@@Z @134 NONAME
?pop_back@JSONNode@@QEAA?AV1@_K@Z @135 NONAME
?preparse@JSONNode@@QEAAXXZ @136 NONAME
?push_back@JSONNode@@QEAAXAEBV1@@Z @137 NONAME
?rbegin@JSONNode@@QEAA?AUreverse_iterator@1@XZ @138 NONAME
?rbegin@JSONNode@@QEBA?AUreverse_const_iterator@1@XZ @139 NONAME
?rend@JSONNode@@QEAA?AUreverse_iterator@1@XZ @140 NONAME
?rend@JSONNode@@QEBA?AUreverse_const_iterator@1@XZ @141 NONAME
?reserve@JSONNode@@QEAAX_K@Z @142 NONAME
?set_name@JSONNode@@QEAAXAEBV?$basic_string@DU?$char_traits@D@std@@V?$allocator@D@2@@std@@@Z @143 NONAME
?size@JSONNode@@QEBA_KXZ @144 NONAME
?swap@JSONNode@@QEAAXAEAV1@@Z @145 NONAME
?toUTF8@JSONWorker@@CA?AV?$basic_string@DU?$char_traits@D@std@@V?$allocator@D@2@@std@@E@Z @146 NONAME
?type@JSONNode@@QEBAEXZ @147 NONAME
?write@JSONNode@@QEAA?AV?$basic_string@DU?$char_traits@D@std@@V?$allocator@D@2@@std@@XZ @148 NONAME
?write_formatted@JSONNode@@QEAA?AV?$basic_string@DU?$char_traits@D@std@@V?$allocator@D@2@@std@@XZ @149 NONAME
json_as_array @150
json_as_bool @151
json_as_float @152
json_as_int @153
json_as_node @154
json_as_string @155
json_at @156
json_cast @157
json_clear @158
json_copy @159
json_delete @160
json_duplicate @161
json_empty @162
json_equal @163
json_free @164
json_get @165
json_merge @166
json_name @167
json_new @168
json_new_a @169
json_new_b @170
json_new_f @171
json_new_i @172
json_nullify @173
json_parse @174
json_pop_back @175
json_pop_back_at @176
json_preparse @177
json_push_back @178
json_reserve @179
json_set_a @180
json_set_b @181
json_set_f @182
json_set_i @183
json_set_n @184
json_set_name @185
json_size @186
json_strip_white_space @187
json_swap @188
json_type @189
json_write @190
json_write_formatted @191
??4JSONWorker@@QEAAAEAV0@$$QEAV0@@Z @192 NONAME
