LIBRARY mir_app.mir

EXPORTS
CallProtoService            @2
Skin_LoadProtoIcon          @4
Skin_LoadIcon               @5
Button_FreeIcon_IcoLib      @6
Button_SetIcon_IcoLib       @7
Skin_GetIconHandle          @8
IcoLib_AddIcon              @9
IcoLib_GetIcon             @10
IcoLib_GetIconByHandle     @11
IcoLib_GetIconHandle       @12
IcoLib_IsManaged           @13
IcoLib_ReleaseIcon         @14
Window_FreeIcon_IcoLib     @15
Window_SetSkinIcon_IcoLib      @16
Window_SetProtoIcon_IcoLib @17
ProtoServiceExists         @18
mir_main                   @19
IcoLib_RemoveIcon          @20
IcoLib_RemoveIconByHandle  @21
IcoLib_Release             @22
IcoLib_AddRef              @23
Skin_GetIconName           @24
??0CProtoIntDlgBase@@QEAA@AEBV0@@Z @25 NONAME
??0CProtoIntDlgBase@@QEAA@PEAUPROTO_INTERFACE@@H_N@Z @26 NONAME
??0PROTO_INTERFACE@@QEAA@AEBU0@@Z @27 NONAME
??0PROTO_INTERFACE@@QEAA@XZ @28 NONAME
??1CProtoIntDlgBase@@UEAA@XZ @29 NONAME
??4CProtoIntDlgBase@@QEAAAEAV0@AEBV0@@Z @30 NONAME
??4PROTO_INTERFACE@@QEAAAEAU0@AEBU0@@Z @31 NONAME
??_7CProtoIntDlgBase@@6B@ @32 NONAME
??_7PROTO_INTERFACE@@6B@ @33 NONAME
?AddToList@PROTO_INTERFACE@@UEAAIHPEAUPROTOSEARCHRESULT@@@Z @34 NONAME
?AddToListByEvent@PROTO_INTERFACE@@UEAAIHHI@Z @35 NONAME
?AuthDeny@PROTO_INTERFACE@@UEAAHIPEB_W@Z @36 NONAME
?AuthRecv@PROTO_INTERFACE@@UEAAHIPEAUPROTORECVEVENT@@@Z @37 NONAME
?AuthRequest@PROTO_INTERFACE@@UEAAHIPEB_W@Z @38 NONAME
?Authorize@PROTO_INTERFACE@@UEAAHI@Z @39 NONAME
?CreateExtendedSearchUI@PROTO_INTERFACE@@UEAAPEAUHWND__@@PEAU2@@Z @40 NONAME
?CreateLink@CProtoIntDlgBase@@QEAAXAEAVCCtrlData@@PEADEK@Z @41 NONAME
?CreateLink@CProtoIntDlgBase@@QEAAXAEAVCCtrlData@@PEBDPEA_W@Z @42 NONAME
?DlgProc@CProtoIntDlgBase@@MEAA_JI_K_J@Z @43 NONAME
?FileAllow@PROTO_INTERFACE@@UEAAPEAXIPEAXPEB_W@Z @44 NONAME
?FileCancel@PROTO_INTERFACE@@UEAAHIPEAX@Z @45 NONAME
?FileDeny@PROTO_INTERFACE@@UEAAHIPEAXPEB_W@Z @46 NONAME
?FileResume@PROTO_INTERFACE@@UEAAHPEAXPEAHPEAPEB_W@Z @47 NONAME
?GetAwayMsg@PROTO_INTERFACE@@UEAAPEAXI@Z @48 NONAME
?GetCaps@PROTO_INTERFACE@@UEAA_KHI@Z @49 NONAME
?GetInfo@PROTO_INTERFACE@@UEAAHIH@Z @50 NONAME
?GetProtoInterface@CProtoIntDlgBase@@QEAAPEAUPROTO_INTERFACE@@XZ @51 NONAME
?OnEvent@PROTO_INTERFACE@@UEAAHW4PROTOEVENTTYPE@@_K_J@Z @52 NONAME
?OnProtoActivate@CProtoIntDlgBase@@MEAAX_K_J@Z @53 NONAME
?OnProtoCheckOnline@CProtoIntDlgBase@@MEAAX_K_J@Z @54 NONAME
?OnProtoRefresh@CProtoIntDlgBase@@MEAAX_K_J@Z @55 NONAME
?ProtoBroadcastAck@PROTO_INTERFACE@@QEAA_JIHHPEAX_J@Z @56 NONAME
?RecvAwayMsg@PROTO_INTERFACE@@UEAAHIHPEAUPROTORECVEVENT@@@Z @57 NONAME
?RecvContacts@PROTO_INTERFACE@@UEAAHIPEAUPROTORECVEVENT@@@Z @58 NONAME
?RecvFile@PROTO_INTERFACE@@UEAAHIPEAUPROTORECVFILET@@@Z @59 NONAME
?RecvMsg@PROTO_INTERFACE@@UEAAHIPEAUPROTORECVEVENT@@@Z @60 NONAME
?RecvUrl@PROTO_INTERFACE@@UEAAHIPEAUPROTORECVEVENT@@@Z @61 NONAME
?SearchAdvanced@PROTO_INTERFACE@@UEAAPEAUHWND__@@PEAU2@@Z @62 NONAME
?SearchBasic@PROTO_INTERFACE@@UEAAPEAXPEB_W@Z @63 NONAME
?SearchByEmail@PROTO_INTERFACE@@UEAAPEAXPEB_W@Z @64 NONAME
?SearchByName@PROTO_INTERFACE@@UEAAPEAXPEB_W00@Z @65 NONAME
?SendContacts@PROTO_INTERFACE@@UEAAHIHHPEAI@Z @66 NONAME
?SendFile@PROTO_INTERFACE@@UEAAPEAXIPEB_WPEAPEA_W@Z @67 NONAME
?SendMsg@PROTO_INTERFACE@@UEAAHIHPEBD@Z @68 NONAME
?SendUrl@PROTO_INTERFACE@@UEAAHIHPEBD@Z @69 NONAME
?SetApparentMode@PROTO_INTERFACE@@UEAAHIH@Z @70 NONAME
?SetAwayMsg@PROTO_INTERFACE@@UEAAHHPEB_W@Z @71 NONAME
?SetStatus@PROTO_INTERFACE@@UEAAHH@Z @72 NONAME
?SetStatusText@CProtoIntDlgBase@@QEAAXPEB_W@Z @73 NONAME
?UpdateProtoTitle@CProtoIntDlgBase@@AEAAXPEB_W@Z @74 NONAME
?UpdateStatusBar@CProtoIntDlgBase@@AEAAXXZ @75 NONAME
?UserIsTyping@PROTO_INTERFACE@@UEAAHIH@Z @76 NONAME
?WindowSubscribe@PROTO_INTERFACE@@QEAAXPEAUHWND__@@@Z @77 NONAME
?WindowUnsubscribe@PROTO_INTERFACE@@QEAAXPEAUHWND__@@@Z @78 NONAME
?debugLogA@PROTO_INTERFACE@@QEAAXPEBDZZ @79 NONAME
?debugLogW@PROTO_INTERFACE@@QEAAXPEB_WZZ @80 NONAME
?delSetting@PROTO_INTERFACE@@QEAA_JIPEBD@Z @81 NONAME
?delSetting@PROTO_INTERFACE@@QEAA_JPEBD@Z @82 NONAME
?getBool@PROTO_INTERFACE@@QEAA_NIPEBD_N@Z @83 NONAME
?getBool@PROTO_INTERFACE@@QEAA_NPEBD_N@Z @84 NONAME
?getByte@PROTO_INTERFACE@@QEAAHIPEBDE@Z @85 NONAME
?getByte@PROTO_INTERFACE@@QEAAHPEBDE@Z @86 NONAME
?getDword@PROTO_INTERFACE@@QEAAKIPEBDK@Z @87 NONAME
?getDword@PROTO_INTERFACE@@QEAAKPEBDK@Z @88 NONAME
?getString@PROTO_INTERFACE@@QEAA_JIPEBDPEAUDBVARIANT@@@Z @89 NONAME
?getString@PROTO_INTERFACE@@QEAA_JPEBDPEAUDBVARIANT@@@Z @90 NONAME
?getStringA@PROTO_INTERFACE@@QEAAPEADIPEBD@Z @91 NONAME
?getStringA@PROTO_INTERFACE@@QEAAPEADPEBD@Z @92 NONAME
?getWString@PROTO_INTERFACE@@QEAA_JIPEBDPEAUDBVARIANT@@@Z @93 NONAME
?getWString@PROTO_INTERFACE@@QEAA_JPEBDPEAUDBVARIANT@@@Z @94 NONAME
?getWStringA@PROTO_INTERFACE@@QEAAPEA_WIPEBD@Z @95 NONAME
?getWStringA@PROTO_INTERFACE@@QEAAPEA_WPEBD@Z @96 NONAME
?getWord@PROTO_INTERFACE@@QEAAHIPEBDG@Z @97 NONAME
?getWord@PROTO_INTERFACE@@QEAAHPEBDG@Z @98 NONAME
?isChatRoom@PROTO_INTERFACE@@QEAA_NI@Z @99 NONAME
?setByte@PROTO_INTERFACE@@QEAAXIPEBDE@Z @100 NONAME
?setByte@PROTO_INTERFACE@@QEAAXPEBDE@Z @101 NONAME
?setDword@PROTO_INTERFACE@@QEAAXIPEBDK@Z @102 NONAME
?setDword@PROTO_INTERFACE@@QEAAXPEBDK@Z @103 NONAME
?setString@PROTO_INTERFACE@@QEAAXIPEBD0@Z @104 NONAME
?setString@PROTO_INTERFACE@@QEAAXPEBD0@Z @105 NONAME
?setWString@PROTO_INTERFACE@@QEAAXIPEBDPEB_W@Z @106 NONAME
?setWString@PROTO_INTERFACE@@QEAAXPEBDPEB_W@Z @107 NONAME
?setWord@PROTO_INTERFACE@@QEAAXIPEBDG@Z @108 NONAME
?setWord@PROTO_INTERFACE@@QEAAXPEBDG@Z @109 NONAME
GetPluginLangByInstance @110
ProtoBroadcastAck @111
ProtoConstructor @112
ProtoCreateHookableEvent @113
ProtoCreateService @114
ProtoCreateServiceParam @115
ProtoDestructor @116
ProtoForkThread @117
ProtoForkThreadEx @118
ProtoGetAvatarExtension @119
ProtoGetAvatarFileFormat @120
ProtoGetAvatarFormat @121
ProtoGetBufferFormat @122
ProtoHookEvent @123
ProtoLogA @124
ProtoLogW @125
ProtoWindowAdd @126
ProtoWindowRemove @127
Proto_IsProtocolLoaded @128
GetPluginLangId @129
Proto_GetAccount @130
Proto_EnumProtocols @131
Proto_EnumAccounts @132
Proto_IsAccountEnabled @133
Proto_IsAccountLocked @134
Proto_GetBaseAccountName @135
GetContactProto @136
Proto_AddToContact @137
Proto_ChainRecv @138
Proto_ChainSend @139
Proto_IsProtoOnContact @140
Proto_RegisterModule @141
Proto_RemoveFromContact @142
xmlAddAttr @143 
xmlAddAttrInt @144 
xmlAddChild @145 
xmlAddChild2 @146 
xmlAddChildEx @147 
xmlAddChildEx2 @148 
xmlAddClear @149 
xmlAddText @150 
xmlCopyNode @151 
xmlCreateNode @152 
xmlDeepCopy @153 
xmlDeleteAttrByIndex @154 
xmlDeleteAttrByName @155 
xmlDeleteClear @156 
xmlDeleteNodeContent @157 
xmlDeleteText @158 
xmlDestroyNode @159 
xmlFree @160 
xmlGetAttr @161 
xmlGetAttrCount @162 
xmlGetAttrName @163 
xmlGetAttrValue @164 
xmlGetChild @165 
xmlGetChildByAttrValue @166 
xmlGetChildByPath @167 
xmlGetChildCount @168 
xmlGetClear @169 
xmlGetClearCount @170 
xmlGetElement @171 
xmlGetElementCount @172 
xmlGetFirstChild @173 
xmlGetName @174 
xmlGetNextChild @175 
xmlGetNextNode @176 
xmlGetNthChild @177 
xmlGetParent @178 
xmlGetText @179 
xmlGetTextByIndex @180 
xmlGetTextCount @181 
xmlIsDeclaration @182 
xmlParseFile @183 
xmlParseString @184 
xmlPositionOfChildByIndex @185 
xmlPositionOfChildByName @186 
xmlPositionOfChildByNode @187 
xmlPositionOfClear @188 
xmlPositionOfText @189 
xmlSetAttrByIndex @190 
xmlSetAttrByName @191 
xmlSetClear @192 
xmlSetText @193 
xmlSetTextByIndex @194 
xmlToFile @195 
xmlToString @196 
xmlToStringWithFormatting @197 
KillModuleMenus @198
Utils_ReplaceVars @199
Utils_ReplaceVarsW @200
Menu_ShowItem @201
Menu_ModifyItem @202
Menu_ConfigureItem @203
Menu_GetProtocolRoot @204
Menu_ConfigureObject @205
Menu_Build @206
Menu_ProcessCommand @207
Menu_ProcessCommandById @208
Menu_AddItem @209
Menu_RemoveItem @210
Menu_AddObject @211
Menu_RemoveObject @212
Menu_GetItemData @213
Menu_GetDefaultItem @214
Menu_GetItemInfo @215
Menu_ProcessHotKey @216
Menu_DrawItem @217
Menu_MeasureItem @218
Menu_EnableItem @219
Menu_SetChecked @220
Menu_CreateRoot @221
Menu_AddContactMenuItem @222 
Menu_AddMainMenuItem @223
Menu_AddProtoMenuItem @224
Menu_AddStatusMenuItem @225
Menu_BuildContactMenu @226
Menu_GetMainMenu @228
Menu_GetStatusMenu @229
Menu_BuildSubGroupMenu @230
Menu_AddGroupMenuItem @231
Menu_AddSubGroupMenuItem @232
Menu_BuildGroupMenu @233
Menu_AddTrayMenuItem @234
Menu_BuildTrayMenu @235
Menu_DestroyNestedMenu @236
ExtraIcon_SetIcon @237
ExtraIcon_SetIconByName @238
ExtraIcon_Clear @239
ExtraIcon_RegisterCallback @240
ExtraIcon_RegisterIcolib @241
KillModuleIcons @242
KillModuleColours @243 
KillModuleEffects @244 
KillModuleExtraIcons @245
KillModuleFonts @246
KillModuleHotkeys @247
KillModuleSounds @248
IsPluginLoaded @249
Clist_GroupBuildMenu @250
Clist_GroupCreate @251
Clist_GroupDelete @252
Clist_GroupExists @253
Clist_GroupMoveBefore @254
Clist_GroupSetExpanded @255
Clist_GroupSetFlags @256
Clist_GroupGetName @257
Clist_GroupRename @258
Clist_EndRebuild @259
Clist_GroupAdded @260
Contact_GetInfo @261
Clist_ContactToHItem @262
Clist_ContactToItemHandle @263
Window_SetSkinIcon_IcoLib @264
Window_SetIcon_IcoLib @265
Clist_Broadcast @266
Clist_BroadcastAsync @267
Clist_MenuProcessCommand @268
Clist_IsDocked @269
Clist_MenuProcessHotkey @270
Clist_ContactChangeGroup @271
Clist_ContactCompare @272
Clist_ContactDoubleClicked @273
Clist_GetImageList @274
Clist_GetInterface @275
Clist_TrayNotifyA @276
Clist_TrayNotifyW @277
Srmm_AddIcon @278
Srmm_GetNthIcon @279 
Srmm_ModifyIcon @280 
Srmm_RemoveIcon @281
ExtraIcon_AddIcon @282
DbEvent_GetIcon @283
DbEvent_GetString @284
DbEvent_GetTextA @285
DbEvent_GetTextW @286
DbEvent_GetType @287
DbEvent_RegisterType @288
Profile_GetNameA @290
Profile_GetNameW @291
Profile_GetPathA @292
Profile_GetPathW @293
Profile_SetDefault @294
DestroyDbInstance @295
FindDatabasePlugin @296
InitDbInstance @297
RegisterDatabasePlugin @298
Chat_GetInterface @299
Chat_Event @300 
Chat_GetInfo @301 
Chat_NewSession @302 
Chat_Register @303 
Chat_GetUserInfo @304
Chat_SetUserInfo @305
Chat_ChangeUserId @306
Chat_ChangeSessionName @307
Chat_SetStatusbarText @308
Chat_SendUserMessage @309
Chat_SetStatusEx @310
Chat_Terminate @311
Chat_AddGroup @312
Chat_Control @313
Clist_FindItem @314
Colour_Get @315
Colour_GetW @316
Colour_Register @317
Colour_RegisterW @318
Effect_Get @319
Effect_GetW @320
Effect_Register @321
Effect_RegisterW @322
Font_Get @323
Font_GetW @324
Font_Register @325
Font_RegisterW @326
Options_AddPage @327
Options_Open @328
Options_OpenPage @329
Srmm_ModifyButton @331
Srmm_AddButton @332
Srmm_GetButtonState @333
Srmm_RemoveButton @334
Srmm_ResetToolbar @335
Srmm_SetButtonState @336
Srmm_UpdateToolbarIcons @337
Srmm_RedrawToolbarIcons @338
Srmm_GetNthButton @339
Srmm_GetButtonCount @340
Srmm_ClickToolbarIcon @341
Miranda_WaitOnHandle @342
Miranda_IsTerminated @343
Miranda_OkToExit @344
Miranda_GetVersion @345
Miranda_GetFileVersion @346
Miranda_GetVersionText @347
Netlib_CloseHandle @349
Netlib_Recv @350
Netlib_Send @351
Netlib_RegisterUser @352
Netlib_Log @353
Netlib_LogW @354
Netlib_Logf @355
Netlib_LogfW @356
Netlib_GetConnNlu @357
Netlib_RecvHttpHeaders @358
Netlib_HttpTransaction @359
Netlib_SendHttpRequest @360
Netlib_GetUserSettings @361
Netlib_SetUserSettings @362
Netlib_OpenConnection @363
Netlib_BindPort @364
Netlib_Shutdown @365
Netlib_CreatePacketReceiver @366
Netlib_GetMorePackets @367
Netlib_FreeHttpRequest @368
Netlib_AddressToString @369
Netlib_StringToAddress @370
Netlib_Select @371
Netlib_SelectEx @372
Netlib_SendHttpRequest @373
Netlib_SetStickyHeaders @374
Netlib_SetPollingTimeout @375
Netlib_GetSocket @376
Netlib_StartSsl @377
Netlib_GetConnectionInfo @378
Netlib_GetMyIp @379
Netlib_SetHttpProxyInfo @380
Netlib_DestroySecurityProvider @381
Netlib_InitSecurityProvider @382
Netlib_NtlmCreateResponse @383
??0DB_AUTH_BLOB@@QEAA@IPEBD0000@Z @384 NONAME
??0DB_AUTH_BLOB@@QEAA@PEAE@Z @385 NONAME
??1DB_AUTH_BLOB@@QEAA@XZ @386 NONAME
??4DB_AUTH_BLOB@@QEAAAEAV0@AEBV0@@Z @387 NONAME
??BDB_AUTH_BLOB@@QEAAPEADXZ @388 NONAME
??BDB_AUTH_BLOB@@QEAAPEAEXZ @389 NONAME
?get_contact@DB_AUTH_BLOB@@QEBAIXZ @390 NONAME
?get_email@DB_AUTH_BLOB@@QEBAPEBDXZ @391 NONAME
?get_firstName@DB_AUTH_BLOB@@QEBAPEBDXZ @392 NONAME
?get_lastName@DB_AUTH_BLOB@@QEBAPEBDXZ @393 NONAME
?get_nick@DB_AUTH_BLOB@@QEBAPEBDXZ @394 NONAME
?get_reason@DB_AUTH_BLOB@@QEBAPEBDXZ @395 NONAME
?get_uin@DB_AUTH_BLOB@@QEBAKXZ @396 NONAME
?makeBlob@DB_AUTH_BLOB@@AEAAPEAEXZ @397 NONAME
?size@DB_AUTH_BLOB@@QEBAKXZ @398 NONAME
Chat_UnescapeTags @399 NONAME
ProtoGetAvatarFormatByMimeType @400
ProtoGetAvatarMimeType @401
?set_uin@DB_AUTH_BLOB@@QEAAXK@Z @402 NONAME
??0CSrmmBaseDialog@@IEAA@PEAUHINSTANCE__@@HPEAUSESSION_INFO@@@Z @403 NONAME
??0CSrmmBaseDialog@@AEAA@AEBV0@@Z @404 NONAME
??1CSrmmBaseDialog@@UEAA@XZ @405 NONAME
??4CSrmmBaseDialog@@AEAAAEAV0@AEBV0@@Z @406 NONAME
??_7CSrmmBaseDialog@@6B@ @407 NONAME
?DlgProc@CSrmmBaseDialog@@MEAA_JI_K_J@Z @408 NONAME
??2CSrmmBaseDialog@@SAPEAX_K@Z @409 NONAME
??3CSrmmBaseDialog@@SAXPEAX@Z @410 NONAME
?isChat@CSrmmBaseDialog@@QEBA_NXZ @411 NONAME
Srmm_LogStreamCallback @412
?RunUserMenu@CSrmmBaseDialog@@IEAAXPEAUHWND__@@PEAUUSERINFO@@AEBUtagPOINT@@@Z @414 NONAME
?ClearLog@CSrmmBaseDialog@@QEAAXXZ @415 NONAME
?CloseTab@CSrmmBaseDialog@@UEAAXXZ @416 NONAME
?UpdateStatusBar@CSrmmBaseDialog@@UEAAXXZ @417 NONAME
Chat_UpdateOptions @418 NONAME
?RedrawLog@CSrmmBaseDialog@@UEAAXXZ @419 NONAME
?UpdateOptions@CSrmmBaseDialog@@UEAAXXZ @420 NONAME
?ShowColorChooser@CSrmmBaseDialog@@QEAAXH@Z @421 NONAME
?ShowFilterMenu@CSrmmBaseDialog@@UEAAXXZ @422 NONAME
?OnInitDialog@CSrmmBaseDialog@@MEAAXXZ @423 NONAME
?StreamInEvents@CSrmmBaseDialog@@UEAAXPEAULOGINFO@@_N@Z @424 NONAME
?AddLog@CSrmmBaseDialog@@UEAAXXZ @425 NONAME
?RedrawLog2@CSrmmBaseDialog@@QEAAXXZ @426 NONAME
?ScrollToBottom@CSrmmBaseDialog@@UEAAXXZ @427 NONAME
?UpdateNickList@CSrmmBaseDialog@@UEAAXXZ @428 NONAME
?onClick_BIU@CSrmmBaseDialog@@IEAAXPEAVCCtrlButton@@@Z @430 NONAME
?onClick_BkColor@CSrmmBaseDialog@@IEAAXPEAVCCtrlButton@@@Z @431 NONAME
?onClick_Color@CSrmmBaseDialog@@IEAAXPEAVCCtrlButton@@@Z @432 NONAME
?RefreshButtonStatus@CSrmmBaseDialog@@IEAAXXZ @433 NONAME
?ProcessHotkeys@CSrmmBaseDialog@@IEAA_NH_N00@Z @434 NONAME
?onClick_History@CSrmmBaseDialog@@IEAAXPEAVCCtrlButton@@@Z @435 NONAME
?onClick_ChanMgr@CSrmmBaseDialog@@IEAAXPEAVCCtrlButton@@@Z @436 NONAME
?WndProc_Log@CSrmmBaseDialog@@UEAA_JI_K_J@Z @437 NONAME
?WndProc_Message@CSrmmBaseDialog@@UEAA_JI_K_J@Z @438 NONAME
?WndProc_Nicklist@CSrmmBaseDialog@@UEAA_JI_K_J@Z @439 NONAME
?onDblClick_List@CSrmmBaseDialog@@IEAAXPEAVCCtrlListBox@@@Z @440 NONAME
?OnDestroy@CSrmmBaseDialog@@MEAAXXZ @441 NONAME
Chat_AddMenuItems @442 NONAME
Chat_DestroyGCMenu @443 NONAME
Chat_CreateGCMenu @444 NONAME
Chat_DoEventHook @445 NONAME
stubLogProc @446 NONAME
stubMessageProc @447 NONAME
stubNicklistProc @448 NONAME
Chat_GetTextPixelSize @449 NONAME
?NotifyEvent@CSrmmBaseDialog@@IEAAHH@Z @450 NONAME
Srmm_GetWindowData @451
Srmm_FindWindow @452
Srmm_Broadcast @453
Hotkey_Register @454
Hotkey_Subclass @455
Hotkey_Unregister @456
Hotkey_Unsubclass @457
Hotkey_Check @458
?SetStatusText@CSrmmBaseDialog@@UEAAXPEB_WPEAUHICON__@@@Z @459 NONAME
Srmm_SetStatusText @460
Skin_AddSound @461
Skin_PlaySound @462
Skin_PlaySoundFile @463
Clist_SetStatusMode @464
