EXPORTS

CallContactService          @1
CallProtoService            @2
RecalculateTime             @3
Skin_LoadProtoIcon          @4
Skin_LoadIcon               @5
Button_FreeIcon_IcoLib      @6
Button_SetIcon_IcoLib       @7
Skin_GetIconHandle          @8
IcoLib_AddIcon              @9
IcoLib_GetIcon             @10
IcoLib_GetIconByHandle     @11
IcoLib_GetIconHandle       @12
IcoLib_IsManaged           @13
IcoLib_ReleaseIcon         @14
Window_FreeIcon_IcoLib     @15
Window_SetIcon_IcoLib      @16
Window_SetProtoIcon_IcoLib @17
ProtoServiceExists         @18
mir_main                   @19
IcoLib_RemoveIcon          @20
IcoLib_RemoveIconByHandle  @21
IcoLib_Release             @22
IcoLib_AddRef              @23
Skin_GetIconName           @24
??0CProtoIntDlgBase@@QAE@ABV0@@Z @25 NONAME
??0CProtoIntDlgBase@@QAE@PAUPROTO_INTERFACE@@H_N@Z @26 NONAME
??0PROTO_INTERFACE@@QAE@ABU0@@Z @27 NONAME
??0PROTO_INTERFACE@@QAE@XZ @28 NONAME
??1CProtoIntDlgBase@@UAE@XZ @29 NONAME
??4CProtoIntDlgBase@@QAEAAV0@ABV0@@Z @30 NONAME
??4PROTO_INTERFACE@@QAEAAU0@ABU0@@Z @31 NONAME
??_7CProtoIntDlgBase@@6B@ @32 NONAME
??_7PROTO_INTERFACE@@6B@ @33 NONAME
?AddToList@PROTO_INTERFACE@@UAAIHPAUPROTOSEARCHRESULT@@@Z @34 NONAME
?AddToListByEvent@PROTO_INTERFACE@@UAAIHHI@Z @35 NONAME
?AuthDeny@PROTO_INTERFACE@@UAAHIPB_W@Z @36 NONAME
?AuthRecv@PROTO_INTERFACE@@UAAHIPAUPROTORECVEVENT@@@Z @37 NONAME
?AuthRequest@PROTO_INTERFACE@@UAAHIPB_W@Z @38 NONAME
?Authorize@PROTO_INTERFACE@@UAAHI@Z @39 NONAME
?CreateExtendedSearchUI@PROTO_INTERFACE@@UAAPAUHWND__@@PAU2@@Z @40 NONAME
?CreateLink@CProtoIntDlgBase@@QAEXAAVCCtrlData@@PADEK@Z @41 NONAME
?CreateLink@CProtoIntDlgBase@@QAEXAAVCCtrlData@@PBDPA_W@Z @42 NONAME
?DlgProc@CProtoIntDlgBase@@MAEHIIJ@Z @43 NONAME
?FileAllow@PROTO_INTERFACE@@UAAPAXIPAXPB_W@Z @44 NONAME
?FileCancel@PROTO_INTERFACE@@UAAHIPAX@Z @45 NONAME
?FileDeny@PROTO_INTERFACE@@UAAHIPAXPB_W@Z @46 NONAME
?FileResume@PROTO_INTERFACE@@UAAHPAXPAHPAPB_W@Z @47 NONAME
?GetAwayMsg@PROTO_INTERFACE@@UAAPAXI@Z @48 NONAME
?GetCaps@PROTO_INTERFACE@@UAAKHI@Z @49 NONAME
?GetInfo@PROTO_INTERFACE@@UAAHIH@Z @50 NONAME
?GetProtoInterface@CProtoIntDlgBase@@QAEPAUPROTO_INTERFACE@@XZ @51 NONAME
?OnEvent@PROTO_INTERFACE@@UAAHW4PROTOEVENTTYPE@@IJ@Z @52 NONAME
?OnProtoActivate@CProtoIntDlgBase@@MAEXIJ@Z @53 NONAME
?OnProtoCheckOnline@CProtoIntDlgBase@@MAEXIJ@Z @54 NONAME
?OnProtoRefresh@CProtoIntDlgBase@@MAEXIJ@Z @55 NONAME
?ProtoBroadcastAck@PROTO_INTERFACE@@QAEHIHHPAXJ@Z @56 NONAME
?RecvAwayMsg@PROTO_INTERFACE@@UAAHIHPAUPROTORECVEVENT@@@Z @57 NONAME
?RecvContacts@PROTO_INTERFACE@@UAAHIPAUPROTORECVEVENT@@@Z @58 NONAME
?RecvFile@PROTO_INTERFACE@@UAAHIPAUPROTORECVFILET@@@Z @59 NONAME
?RecvMsg@PROTO_INTERFACE@@UAAHIPAUPROTORECVEVENT@@@Z @60 NONAME
?RecvUrl@PROTO_INTERFACE@@UAAHIPAUPROTORECVEVENT@@@Z @61 NONAME
?SearchAdvanced@PROTO_INTERFACE@@UAAPAUHWND__@@PAU2@@Z @62 NONAME
?SearchBasic@PROTO_INTERFACE@@UAAPAXPB_W@Z @63 NONAME
?SearchByEmail@PROTO_INTERFACE@@UAAPAXPB_W@Z @64 NONAME
?SearchByName@PROTO_INTERFACE@@UAAPAXPB_W00@Z @65 NONAME
?SendContacts@PROTO_INTERFACE@@UAAHIHHPAI@Z @66 NONAME
?SendFile@PROTO_INTERFACE@@UAAPAXIPB_WPAPA_W@Z @67 NONAME
?SendMsg@PROTO_INTERFACE@@UAAHIHPBD@Z @68 NONAME
?SendUrl@PROTO_INTERFACE@@UAAHIHPBD@Z @69 NONAME
?SetApparentMode@PROTO_INTERFACE@@UAAHIH@Z @70 NONAME
?SetAwayMsg@PROTO_INTERFACE@@UAAHHPB_W@Z @71 NONAME
?SetStatus@PROTO_INTERFACE@@UAAHH@Z @72 NONAME
?SetStatusText@CProtoIntDlgBase@@QAEXPB_W@Z @73 NONAME
?UpdateProtoTitle@CProtoIntDlgBase@@AAEXPB_W@Z @74 NONAME
?UpdateStatusBar@CProtoIntDlgBase@@AAEXXZ @75 NONAME
?UserIsTyping@PROTO_INTERFACE@@UAAHIH@Z @76 NONAME
?WindowSubscribe@PROTO_INTERFACE@@QAEXPAUHWND__@@@Z @77 NONAME
?WindowUnsubscribe@PROTO_INTERFACE@@QAEXPAUHWND__@@@Z @78 NONAME
?debugLogA@PROTO_INTERFACE@@QAAXPBDZZ @79 NONAME
?debugLogW@PROTO_INTERFACE@@QAAXPB_WZZ @80 NONAME
?delSetting@PROTO_INTERFACE@@QAEHIPBD@Z @81 NONAME
?delSetting@PROTO_INTERFACE@@QAEHPBD@Z @82 NONAME
?getBool@PROTO_INTERFACE@@QAE_NIPBD_N@Z @83 NONAME
?getBool@PROTO_INTERFACE@@QAE_NPBD_N@Z @84 NONAME
?getByte@PROTO_INTERFACE@@QAEHIPBDE@Z @85 NONAME
?getByte@PROTO_INTERFACE@@QAEHPBDE@Z @86 NONAME
?getDword@PROTO_INTERFACE@@QAEKIPBDK@Z @87 NONAME
?getDword@PROTO_INTERFACE@@QAEKPBDK@Z @88 NONAME
?getString@PROTO_INTERFACE@@QAEHIPBDPAUDBVARIANT@@@Z @89 NONAME
?getString@PROTO_INTERFACE@@QAEHPBDPAUDBVARIANT@@@Z @90 NONAME
?getStringA@PROTO_INTERFACE@@QAEPADIPBD@Z @91 NONAME
?getStringA@PROTO_INTERFACE@@QAEPADPBD@Z @92 NONAME
?getWString@PROTO_INTERFACE@@QAEHIPBDPAUDBVARIANT@@@Z @93 NONAME
?getWString@PROTO_INTERFACE@@QAEHPBDPAUDBVARIANT@@@Z @94 NONAME
?getWStringA@PROTO_INTERFACE@@QAEPA_WIPBD@Z @95 NONAME
?getWStringA@PROTO_INTERFACE@@QAEPA_WPBD@Z @96 NONAME
?getWord@PROTO_INTERFACE@@QAEHIPBDG@Z @97 NONAME
?getWord@PROTO_INTERFACE@@QAEHPBDG@Z @98 NONAME
?isChatRoom@PROTO_INTERFACE@@QAE_NI@Z @99 NONAME
?setByte@PROTO_INTERFACE@@QAEXIPBDE@Z @100 NONAME
?setByte@PROTO_INTERFACE@@QAEXPBDE@Z @101 NONAME
?setDword@PROTO_INTERFACE@@QAEXIPBDK@Z @102 NONAME
?setDword@PROTO_INTERFACE@@QAEXPBDK@Z @103 NONAME
?setString@PROTO_INTERFACE@@QAEXIPBD0@Z @104 NONAME
?setString@PROTO_INTERFACE@@QAEXPBD0@Z @105 NONAME
?setWString@PROTO_INTERFACE@@QAEXIPBDPB_W@Z @106 NONAME
?setWString@PROTO_INTERFACE@@QAEXPBDPB_W@Z @107 NONAME
?setWord@PROTO_INTERFACE@@QAEXIPBDG@Z @108 NONAME
?setWord@PROTO_INTERFACE@@QAEXPBDG@Z @109 NONAME
GetPluginLangByInstance @110
ProtoBroadcastAck @111
ProtoConstructor @112
ProtoCreateHookableEvent @113
ProtoCreateService @114
ProtoCreateServiceParam @115
ProtoDestructor @116
ProtoForkThread @117
ProtoForkThreadEx @118
ProtoGetAvatarExtension @119
ProtoGetAvatarFileFormat @120
ProtoGetAvatarFormat @121
ProtoGetBufferFormat @122
ProtoHookEvent @123
ProtoLogA @124
ProtoLogW @125
ProtoWindowAdd @126
ProtoWindowRemove @127
Proto_IsProtocolLoaded @128
