LIBRARY mir_core

EXPORTS
CallContactService              @1
CallProtoService                @2
Langpack_LookupUuid             @3
Langpack_MarkPluginLoaded       @4
CallFunctionAsync               @5
CallPluginEventHook             @7
CallService                     @8
CallServiceSync                 @9
CreateDirectoryTree            @10
CreateDirectoryTreeW           @11
CreateHookableEvent            @12
CreatePathToFile               @13
CreatePathToFileW              @14
CreateServiceFunction          @15
CreateServiceFunctionObj       @16
CreateServiceFunctionObjParam  @17
CreateServiceFunctionParam     @18
DestroyHookableEvent           @19
DestroyServiceFunction         @20
GetExceptionFilter             @21
GetInstByAddress               @22
HookEvent                      @23
HookEventMessage               @24
HookEventObj                   @25
HookEventObjParam              @26
HookEventParam                 @27
KillModuleEventHooks           @28
KillModuleServices             @29
KillObjectEventHooks           @30
KillObjectServices             @31
KillObjectThreads              @32
Langpack_SortDuplicates        @33
Langpack_GetDefaultCodePage    @34
Langpack_GetDefaultLocale      @35
Langpack_PcharToTchar          @36
List_Copy                      @37
List_Create                    @38
List_Destroy                   @39
List_Find                      @40
List_GetIndex                  @41
List_IndexOf                   @42
List_Insert                    @43
List_InsertPtr                 @44
List_ObjCopy                   @45
List_Remove                    @46
List_RemovePtr                 @47
LoadLangPack                   @48
LoadLangPackModule             @49
NotifyEventHooks               @50
PathToAbsolute                 @51
PathToAbsoluteW                @52
PathToRelative                 @53
PathToRelativeW                @54
RegisterModule                 @55
ReloadLangpack                 @56
ServiceExists                  @57
SetExceptionFilter             @58
SetHookDefaultForHookableEvent @59
Thread_Pop                     @60
Thread_Push                    @61
Thread_Wait                    @62
TranslateA_LP                  @63
TranslateDialog_LP             @64
TranslateMenu_LP               @65
TranslateW_LP                  @66
Ucs2toUtf8Len                  @67
UnhookEvent                    @68
UnregisterModule               @69
Utf8Decode                     @70
Utf8DecodeCP                   @71
Utf8DecodeW                    @72
Utf8Encode                     @73
Utf8EncodeCP                   @74
Utf8EncodeW                    @75
forkthread                     @76
forkthreadex                   @77
ltrim                          @78
ltrimp                         @79
mir_a2u                        @80
mir_a2u_cp                     @81
mir_alloc                      @82
mir_calloc                     @83
mir_free                       @84
mir_hash                       @85
mir_md5_append                 @86
mir_md5_finish                 @87
mir_md5_hash                   @88
mir_md5_init                   @89
mir_realloc                    @90
mir_sha1_append                @91
mir_sha1_finish                @92
mir_sha1_hash                  @93
mir_sha1_init                  @94
mir_strdup                     @95
mir_strndup                    @96
mir_u2a                        @97
mir_u2a_cp                     @98
mir_vsnprintf                  @99
mir_vsnwprintf                @100
mir_wstrdup                   @101
rtrim                         @102
wildcmp                       @103
rtrimw                        @104
mir_snprintf                  @105
mir_snwprintf                 @106
db_unset                      @107
db_free                       @108
db_get                        @109
db_get_b                      @110
db_get_dw                     @111
db_get_s                      @112
db_get_sa                     @113
db_get_w                      @114
db_get_wsa                    @115
db_set_b                      @116
db_set_blob                   @117
db_set_dw                     @118
db_set_s                      @119
db_set_utf                    @120
db_set_w                      @121
db_set_ws                     @122
UnloadCoreModule              @123
Thread_SetName                @124
replaceStr                    @125
replaceStrW                   @126
db_setCurrent                 @127
CmdLine_GetOption             @128
CmdLine_Parse                 @129
Utf8CheckString               @130
GetSubscribersCount           @131
NotifyFastHook                @132
db_find_first                 @133
db_find_next                  @134
Icon_Register                 @135
Icon_RegisterT                @136
mir_subclassWindow            @137
mir_callNextSubclass          @138
KillModuleSubclassing         @139
mir_wstrndup                  @140
mir_unsubclassWindow          @141
mir_urlEncode                 @142
db_event_add                  @143
db_event_count                @144
db_event_delete               @145
db_event_first                @146
db_event_firstUnread          @147
db_event_get                  @148
db_event_getBlobSize          @149
db_event_getContact           @150
db_event_last                 @151
db_event_markRead             @152
db_event_next                 @153
db_event_prev                 @154
ltrimw                        @155
ltrimpw                       @156
wildcmpw                      @157
wildcmpi                      @158
wildcmpiw                     @159
mir_base64_encode             @160
mir_base64_decode             @161
ProtoServiceExists            @162
ProtoBroadcastAck             @163
ProtoCallService              @164
db_set_resident               @165
db_set                        @166
ProtoConstructor              @167
ProtoDestructor               @168
ProtoCreateService            @169
ProtoCreateServiceParam       @170
ProtoHookEvent                @171
ProtoCreateHookableEvent      @172
ProtoForkThread               @173
ProtoForkThreadEx             @174
json_as_array                 @175
json_as_bool                  @176
json_as_float                 @177
json_as_int                   @178
json_as_node                  @179
json_as_string                @180
json_as_pstring               @181
json_at                       @182
json_cast                     @183
json_clear                    @184
json_copy                     @185
json_delete                   @186
json_duplicate                @187
json_empty                    @188
json_equal                    @189
json_free                     @190
json_get                      @191
json_merge                    @192
json_name                     @193
json_new                      @194
json_new_a                    @195
json_new_b                    @196
json_new_f                    @197
json_new_i                    @198
json_nullify                  @199
json_parse                    @200
json_pop_back                 @201
json_pop_back_at              @202
json_preparse                 @203
json_push_back                @204
json_reserve                  @205
json_set_a                    @206
json_set_b                    @207
json_set_f                    @208
json_set_i                    @209
json_set_n                    @210
json_set_name                 @211
json_size                     @212
json_strip_white_space        @213
json_swap                     @214
json_type                     @215
json_write                    @216
json_write_formatted          @217
mir_subclassWindowFull        @218
ProtoGetAvatarFormat          @219
ProtoGetAvatarExtension       @220
ProtoGetBufferFormat          @221
ProtoGetAvatarFileFormat      @222
mir_createLog                 @223
mir_writeLogA                 @224
mir_writeLogW                 @225
mir_writeLogVA                @226
mir_writeLogVW                @227
bin2hex                       @228
bin2hexW                      @229
mir_hmac_sha1                 @230
mir_base64_encodebuf          @231
mirstr_allocate               @232
mirstr_free                   @233
mirstr_realloc                @234
mirstr_getNil                 @235
mirstr_lock                   @236
mirstr_release                @237
mirstr_unlock                 @238
IsWinVerVistaPlus             @239
IsWinVer7Plus                 @240
IsFullScreen                  @241
IsWorkstationLocked           @242
IsScreenSaverRunning          @243
ProtoLogA                     @244
ProtoLogW                     @245
db_get_static                 @246
db_get_wstatic                @247
db_get_static_utf             @248
db_mc_isMeta                  @249
db_mc_isSub                   @250
db_mc_getMeta                 @251
db_get_contact                @252
db_mc_getDefault              @253
db_mc_getDefaultNum           @254
db_mc_getSubCount             @255
db_mc_getSub                  @256
db_mc_setDefault              @257
db_mc_setDefaultNum           @258
mir_closeLog                  @259
db_mc_enable                  @260
db_mc_isEnabled               @261
LoadLangPackDescr             @262
PathIsAbsolute                @263
PathIsAbsoluteW               @264
db_mc_notifyDefChange         @265
db_mc_tryMeta                 @266
mir_strlen                    @267
mir_wstrlen                   @268
mir_strcpy                    @269
mir_wstrcpy                   @270
mir_strncpy                   @271
mir_wstrncpy                  @272
mir_strcat                    @273
mir_wstrcat                   @274
mir_strncat                   @275
mir_wstrncat                  @276
mir_strcmp                    @277
mir_strcmpi                   @278
mir_wstrcmp                   @279
mir_wstrcmpi                  @280
??$?HDV?$ChTraitsCRT@D@@@@YA?AV?$CMStringT@DV?$ChTraitsCRT@D@@@@AEBV0@0@Z @281 NONAME
??$?HDV?$ChTraitsCRT@D@@@@YA?AV?$CMStringT@DV?$ChTraitsCRT@D@@@@AEBV0@D@Z @282 NONAME
??$?HDV?$ChTraitsCRT@D@@@@YA?AV?$CMStringT@DV?$ChTraitsCRT@D@@@@AEBV0@PEBD@Z @283 NONAME
??$?HDV?$ChTraitsCRT@D@@@@YA?AV?$CMStringT@DV?$ChTraitsCRT@D@@@@AEBV0@_W@Z @284 NONAME
??$?HDV?$ChTraitsCRT@D@@@@YA?AV?$CMStringT@DV?$ChTraitsCRT@D@@@@DAEBV0@@Z @285 NONAME
??$?HDV?$ChTraitsCRT@D@@@@YA?AV?$CMStringT@DV?$ChTraitsCRT@D@@@@PEBDAEBV0@@Z @286 NONAME
??$?HDV?$ChTraitsCRT@D@@@@YA?AV?$CMStringT@DV?$ChTraitsCRT@D@@@@_WAEBV0@@Z @287 NONAME
??$?H_WV?$ChTraitsCRT@_W@@@@YA?AV?$CMStringT@_WV?$ChTraitsCRT@_W@@@@AEBV0@0@Z @288 NONAME
??$?H_WV?$ChTraitsCRT@_W@@@@YA?AV?$CMStringT@_WV?$ChTraitsCRT@_W@@@@AEBV0@D@Z @289 NONAME
??$?H_WV?$ChTraitsCRT@_W@@@@YA?AV?$CMStringT@_WV?$ChTraitsCRT@_W@@@@AEBV0@PEB_W@Z @290 NONAME
??$?H_WV?$ChTraitsCRT@_W@@@@YA?AV?$CMStringT@_WV?$ChTraitsCRT@_W@@@@AEBV0@_W@Z @291 NONAME
??$?H_WV?$ChTraitsCRT@_W@@@@YA?AV?$CMStringT@_WV?$ChTraitsCRT@_W@@@@DAEBV0@@Z @292 NONAME
??$?H_WV?$ChTraitsCRT@_W@@@@YA?AV?$CMStringT@_WV?$ChTraitsCRT@_W@@@@PEB_WAEBV0@@Z @293 NONAME
??$?H_WV?$ChTraitsCRT@_W@@@@YA?AV?$CMStringT@_WV?$ChTraitsCRT@_W@@@@_WAEBV0@@Z @294 NONAME
??0?$CMSimpleStringT@D@@QEAA@AEBV0@@Z @295 NONAME
??0?$CMSimpleStringT@D@@QEAA@PEBD@Z @296 NONAME
??0?$CMSimpleStringT@D@@QEAA@PEBDH@Z @297 NONAME
??0?$CMSimpleStringT@D@@QEAA@XZ @298 NONAME
??0?$CMSimpleStringT@_W@@QEAA@AEBV0@@Z @299 NONAME
??0?$CMSimpleStringT@_W@@QEAA@PEB_W@Z @300 NONAME
??0?$CMSimpleStringT@_W@@QEAA@PEB_WH@Z @301 NONAME
??0?$CMSimpleStringT@_W@@QEAA@XZ @302 NONAME
??0?$CMStringT@DV?$ChTraitsCRT@D@@@@QEAA@AEBV0@@Z @303 NONAME
??0?$CMStringT@DV?$ChTraitsCRT@D@@@@QEAA@DH@Z @304 NONAME
??0?$CMStringT@DV?$ChTraitsCRT@D@@@@QEAA@PEBD@Z @305 NONAME
??0?$CMStringT@DV?$ChTraitsCRT@D@@@@QEAA@PEBDH@Z @306 NONAME
??0?$CMStringT@DV?$ChTraitsCRT@D@@@@QEAA@PEBE@Z @307 NONAME
??0?$CMStringT@DV?$ChTraitsCRT@D@@@@QEAA@PEB_W@Z @308 NONAME
??0?$CMStringT@DV?$ChTraitsCRT@D@@@@QEAA@PEB_WH@Z @309 NONAME
??0?$CMStringT@DV?$ChTraitsCRT@D@@@@QEAA@W4CMStringDataFormat@@PEBDZZ @310 NONAME
??0?$CMStringT@DV?$ChTraitsCRT@D@@@@QEAA@XZ @311 NONAME
??0?$CMStringT@DV?$ChTraitsCRT@D@@@@QEAA@_WH@Z @312 NONAME
??0?$CMStringT@_WV?$ChTraitsCRT@_W@@@@QEAA@AEBV0@@Z @313 NONAME
??0?$CMStringT@_WV?$ChTraitsCRT@_W@@@@QEAA@DH@Z @314 NONAME
??0?$CMStringT@_WV?$ChTraitsCRT@_W@@@@QEAA@PEBD@Z @315 NONAME
??0?$CMStringT@_WV?$ChTraitsCRT@_W@@@@QEAA@PEBDH@Z @316 NONAME
??0?$CMStringT@_WV?$ChTraitsCRT@_W@@@@QEAA@PEBE@Z @317 NONAME
??0?$CMStringT@_WV?$ChTraitsCRT@_W@@@@QEAA@PEB_W@Z @318 NONAME
??0?$CMStringT@_WV?$ChTraitsCRT@_W@@@@QEAA@PEB_WH@Z @319 NONAME
??0?$CMStringT@_WV?$ChTraitsCRT@_W@@@@QEAA@W4CMStringDataFormat@@PEB_WZZ @320 NONAME
??0?$CMStringT@_WV?$ChTraitsCRT@_W@@@@QEAA@XZ @321 NONAME
??0?$CMStringT@_WV?$ChTraitsCRT@_W@@@@QEAA@_WH@Z @322 NONAME
??1?$CMSimpleStringT@D@@QEAA@XZ @323 NONAME
??1?$CMSimpleStringT@_W@@QEAA@XZ @324 NONAME
??1?$CMStringT@DV?$ChTraitsCRT@D@@@@QEAA@XZ @325 NONAME
??1?$CMStringT@_WV?$ChTraitsCRT@_W@@@@QEAA@XZ @326 NONAME
??4?$CMSimpleStringT@D@@QEAAAEAV0@AEBV0@@Z @327 NONAME
??4?$CMSimpleStringT@D@@QEAAAEAV0@PEBD@Z @328 NONAME
??4?$CMSimpleStringT@_W@@QEAAAEAV0@AEBV0@@Z @329 NONAME
??4?$CMSimpleStringT@_W@@QEAAAEAV0@PEB_W@Z @330 NONAME
??4?$CMStringT@DV?$ChTraitsCRT@D@@@@QEAAAEAV0@AEBV0@@Z @331 NONAME
??4?$CMStringT@DV?$ChTraitsCRT@D@@@@QEAAAEAV0@D@Z @332 NONAME
??4?$CMStringT@DV?$ChTraitsCRT@D@@@@QEAAAEAV0@PEBD@Z @333 NONAME
??4?$CMStringT@DV?$ChTraitsCRT@D@@@@QEAAAEAV0@PEBE@Z @334 NONAME
??4?$CMStringT@DV?$ChTraitsCRT@D@@@@QEAAAEAV0@PEB_W@Z @335 NONAME
??4?$CMStringT@DV?$ChTraitsCRT@D@@@@QEAAAEAV0@_W@Z @336 NONAME
??4?$CMStringT@_WV?$ChTraitsCRT@_W@@@@QEAAAEAV0@AEBV0@@Z @337 NONAME
??4?$CMStringT@_WV?$ChTraitsCRT@_W@@@@QEAAAEAV0@D@Z @338 NONAME
??4?$CMStringT@_WV?$ChTraitsCRT@_W@@@@QEAAAEAV0@PEBD@Z @339 NONAME
??4?$CMStringT@_WV?$ChTraitsCRT@_W@@@@QEAAAEAV0@PEBE@Z @340 NONAME
??4?$CMStringT@_WV?$ChTraitsCRT@_W@@@@QEAAAEAV0@PEB_W@Z @341 NONAME
??4?$CMStringT@_WV?$ChTraitsCRT@_W@@@@QEAAAEAV0@_W@Z @342 NONAME
??A?$CMSimpleStringT@D@@QEBADH@Z @343 NONAME
??A?$CMSimpleStringT@_W@@QEBA_WH@Z @344 NONAME
??B?$CMSimpleStringT@D@@QEAAAEAV0@XZ @345 NONAME
??B?$CMSimpleStringT@D@@QEBAPEBDXZ @346 NONAME
??B?$CMSimpleStringT@_W@@QEAAAEAV0@XZ @347 NONAME
??B?$CMSimpleStringT@_W@@QEBAPEB_WXZ @348 NONAME
??Y?$CMSimpleStringT@D@@QEAAAEAV0@AEBV0@@Z @349 NONAME
??Y?$CMSimpleStringT@D@@QEAAAEAV0@D@Z @350 NONAME
??Y?$CMSimpleStringT@D@@QEAAAEAV0@E@Z @351 NONAME
??Y?$CMSimpleStringT@D@@QEAAAEAV0@PEBD@Z @352 NONAME
??Y?$CMSimpleStringT@D@@QEAAAEAV0@_W@Z @353 NONAME
??Y?$CMSimpleStringT@_W@@QEAAAEAV0@AEBV0@@Z @354 NONAME
??Y?$CMSimpleStringT@_W@@QEAAAEAV0@D@Z @355 NONAME
??Y?$CMSimpleStringT@_W@@QEAAAEAV0@E@Z @356 NONAME
??Y?$CMSimpleStringT@_W@@QEAAAEAV0@PEB_W@Z @357 NONAME
??Y?$CMSimpleStringT@_W@@QEAAAEAV0@_W@Z @358 NONAME
??Y?$CMStringT@DV?$ChTraitsCRT@D@@@@QEAAAEAV0@AEBV0@@Z @359 NONAME
??Y?$CMStringT@DV?$ChTraitsCRT@D@@@@QEAAAEAV0@AEBV?$CMSimpleStringT@D@@@Z @360 NONAME
??Y?$CMStringT@DV?$ChTraitsCRT@D@@@@QEAAAEAV0@D@Z @361 NONAME
??Y?$CMStringT@DV?$ChTraitsCRT@D@@@@QEAAAEAV0@E@Z @362 NONAME
??Y?$CMStringT@DV?$ChTraitsCRT@D@@@@QEAAAEAV0@PEBD@Z @363 NONAME
??Y?$CMStringT@DV?$ChTraitsCRT@D@@@@QEAAAEAV0@PEB_W@Z @364 NONAME
??Y?$CMStringT@DV?$ChTraitsCRT@D@@@@QEAAAEAV0@_W@Z @365 NONAME
??Y?$CMStringT@_WV?$ChTraitsCRT@_W@@@@QEAAAEAV0@AEBV0@@Z @366 NONAME
??Y?$CMStringT@_WV?$ChTraitsCRT@_W@@@@QEAAAEAV0@AEBV?$CMSimpleStringT@_W@@@Z @367 NONAME
??Y?$CMStringT@_WV?$ChTraitsCRT@_W@@@@QEAAAEAV0@D@Z @368 NONAME
??Y?$CMStringT@_WV?$ChTraitsCRT@_W@@@@QEAAAEAV0@E@Z @369 NONAME
??Y?$CMStringT@_WV?$ChTraitsCRT@_W@@@@QEAAAEAV0@PEBD@Z @370 NONAME
??Y?$CMStringT@_WV?$ChTraitsCRT@_W@@@@QEAAAEAV0@PEB_W@Z @371 NONAME
??Y?$CMStringT@_WV?$ChTraitsCRT@_W@@@@QEAAAEAV0@_W@Z @372 NONAME
?AllocSysString@?$CMStringT@DV?$ChTraitsCRT@D@@@@QEBAPEA_WXZ @373 NONAME
?AllocSysString@?$CMStringT@_WV?$ChTraitsCRT@_W@@@@QEBAPEA_WXZ @374 NONAME
?Append@?$CMSimpleStringT@D@@QEAAXAEBV1@@Z @375 NONAME
?Append@?$CMSimpleStringT@D@@QEAAXPEBD@Z @376 NONAME
?Append@?$CMSimpleStringT@D@@QEAAXPEBDH@Z @377 NONAME
?Append@?$CMSimpleStringT@_W@@QEAAXAEBV1@@Z @378 NONAME
?Append@?$CMSimpleStringT@_W@@QEAAXPEB_W@Z @379 NONAME
?Append@?$CMSimpleStringT@_W@@QEAAXPEB_WH@Z @380 NONAME
?AppendChar@?$CMSimpleStringT@D@@QEAAXD@Z @381 NONAME
?AppendChar@?$CMSimpleStringT@_W@@QEAAX_W@Z @382 NONAME
?AppendFormat@?$CMStringT@DV?$ChTraitsCRT@D@@@@QEAAPEBDPEBDZZ @383 NONAME
?AppendFormat@?$CMStringT@_WV?$ChTraitsCRT@_W@@@@QEAAPEB_WPEB_WZZ @384 NONAME
?AppendFormatV@?$CMStringT@DV?$ChTraitsCRT@D@@@@QEAAXPEBDPEAD@Z @385 NONAME
?AppendFormatV@?$CMStringT@_WV?$ChTraitsCRT@_W@@@@QEAAXPEB_WPEAD@Z @386 NONAME
?Attach@?$CMSimpleStringT@D@@AEAAXPEAUCMStringData@@@Z @387 NONAME
?Attach@?$CMSimpleStringT@_W@@AEAAXPEAUCMStringData@@@Z @388 NONAME
?CharToOemA@?$CMStringT@DV?$ChTraitsCRT@D@@@@QEAAXXZ @389 NONAME
?CharToOemA@?$CMStringT@_WV?$ChTraitsCRT@_W@@@@QEAAXXZ @390 NONAME
?CloneData@?$CMSimpleStringT@D@@CAPEAUCMStringData@@PEAU2@@Z @391 NONAME
?CloneData@?$CMSimpleStringT@_W@@CAPEAUCMStringData@@PEAU2@@Z @392 NONAME
?Collate@?$CMStringT@DV?$ChTraitsCRT@D@@@@QEBAHPEBD@Z @393 NONAME
?Collate@?$CMStringT@_WV?$ChTraitsCRT@_W@@@@QEBAHPEB_W@Z @394 NONAME
?CollateNoCase@?$CMStringT@DV?$ChTraitsCRT@D@@@@QEBAHPEBD@Z @395 NONAME
?CollateNoCase@?$CMStringT@_WV?$ChTraitsCRT@_W@@@@QEBAHPEB_W@Z @396 NONAME
?Compare@?$CMStringT@DV?$ChTraitsCRT@D@@@@QEBAHPEBD@Z @397 NONAME
?Compare@?$CMStringT@_WV?$ChTraitsCRT@_W@@@@QEBAHPEB_W@Z @398 NONAME
?CompareNoCase@?$CMStringT@DV?$ChTraitsCRT@D@@@@QEBAHPEBD@Z @399 NONAME
?CompareNoCase@?$CMStringT@_WV?$ChTraitsCRT@_W@@@@QEBAHPEB_W@Z @400 NONAME
?Concatenate@?$CMSimpleStringT@D@@SAXAEAV1@PEBDH1H@Z @401 NONAME
?Concatenate@?$CMSimpleStringT@_W@@SAXAEAV1@PEB_WH1H@Z @402 NONAME
?CopyChars@?$CMSimpleStringT@D@@SAXPEADPEBDH@Z @403 NONAME
?CopyChars@?$CMSimpleStringT@D@@SAXPEAD_KPEBDH@Z @404 NONAME
?CopyChars@?$CMSimpleStringT@_W@@SAXPEA_WPEB_WH@Z @405 NONAME
?CopyChars@?$CMSimpleStringT@_W@@SAXPEA_W_KPEB_WH@Z @406 NONAME
?CopyCharsOverlapped@?$CMSimpleStringT@D@@SAXPEADPEBDH@Z @407 NONAME
?CopyCharsOverlapped@?$CMSimpleStringT@D@@SAXPEAD_KPEBDH@Z @408 NONAME
?CopyCharsOverlapped@?$CMSimpleStringT@_W@@SAXPEA_WPEB_WH@Z @409 NONAME
?CopyCharsOverlapped@?$CMSimpleStringT@_W@@SAXPEA_W_KPEB_WH@Z @410 NONAME
?Delete@?$CMStringT@DV?$ChTraitsCRT@D@@@@QEAAHHH@Z @411 NONAME
?Delete@?$CMStringT@_WV?$ChTraitsCRT@_W@@@@QEAAHHH@Z @412 NONAME
?Empty@?$CMSimpleStringT@D@@QEAAXXZ @413 NONAME
?Empty@?$CMSimpleStringT@_W@@QEAAXXZ @414 NONAME
?Find@?$CMStringT@DV?$ChTraitsCRT@D@@@@QEBAHDH@Z @415 NONAME
?Find@?$CMStringT@DV?$ChTraitsCRT@D@@@@QEBAHPEBDH@Z @416 NONAME
?Find@?$CMStringT@_WV?$ChTraitsCRT@_W@@@@QEBAHPEB_WH@Z @417 NONAME
?Find@?$CMStringT@_WV?$ChTraitsCRT@_W@@@@QEBAH_WH@Z @418 NONAME
?FindOneOf@?$CMStringT@DV?$ChTraitsCRT@D@@@@QEBAHPEBD@Z @419 NONAME
?FindOneOf@?$CMStringT@_WV?$ChTraitsCRT@_W@@@@QEBAHPEB_W@Z @420 NONAME
?Fork@?$CMSimpleStringT@D@@AEAAXH@Z @421 NONAME
?Fork@?$CMSimpleStringT@_W@@AEAAXH@Z @422 NONAME
?Format@?$CMStringT@DV?$ChTraitsCRT@D@@@@QEAAPEBDPEBDZZ @423 NONAME
?Format@?$CMStringT@_WV?$ChTraitsCRT@_W@@@@QEAAPEB_WPEB_WZZ @424 NONAME
?FormatV@?$CMStringT@DV?$ChTraitsCRT@D@@@@QEAAPEBDPEBDPEAD@Z @425 NONAME
?FormatV@?$CMStringT@_WV?$ChTraitsCRT@_W@@@@QEAAPEB_WPEB_WPEAD@Z @426 NONAME
?FreeExtra@?$CMSimpleStringT@D@@QEAAXXZ @427 NONAME
?FreeExtra@?$CMSimpleStringT@_W@@QEAAXXZ @428 NONAME
?GetAllocLength@?$CMSimpleStringT@D@@QEBAHXZ @429 NONAME
?GetAllocLength@?$CMSimpleStringT@_W@@QEBAHXZ @430 NONAME
?GetAt@?$CMSimpleStringT@D@@QEBADH@Z @431 NONAME
?GetAt@?$CMSimpleStringT@_W@@QEBA_WH@Z @432 NONAME
?GetBuffer@?$CMSimpleStringT@D@@QEAAPEADH@Z @433 NONAME
?GetBuffer@?$CMSimpleStringT@D@@QEAAPEADXZ @434 NONAME
?GetBuffer@?$CMSimpleStringT@_W@@QEAAPEA_WH@Z @435 NONAME
?GetBuffer@?$CMSimpleStringT@_W@@QEAAPEA_WXZ @436 NONAME
?GetBufferSetLength@?$CMSimpleStringT@D@@QEAAPEADH@Z @437 NONAME
?GetBufferSetLength@?$CMSimpleStringT@_W@@QEAAPEA_WH@Z @438 NONAME
?GetData@?$CMSimpleStringT@D@@AEBAPEAUCMStringData@@XZ @439 NONAME
?GetData@?$CMSimpleStringT@_W@@AEBAPEAUCMStringData@@XZ @440 NONAME
?GetEnvironmentVariableW@?$CMStringT@DV?$ChTraitsCRT@D@@@@QEAAHPEBD@Z @441 NONAME
?GetEnvironmentVariableW@?$CMStringT@_WV?$ChTraitsCRT@_W@@@@QEAAHPEB_W@Z @442 NONAME
?GetLength@?$CMSimpleStringT@D@@QEBAHXZ @443 NONAME
?GetLength@?$CMSimpleStringT@_W@@QEBAHXZ @444 NONAME
?GetString@?$CMSimpleStringT@D@@QEBAPEBDXZ @445 NONAME
?GetString@?$CMSimpleStringT@_W@@QEBAPEB_WXZ @446 NONAME
?GetTail@?$CMSimpleStringT@D@@QEBAPEBDXZ @447 NONAME
?GetTail@?$CMSimpleStringT@_W@@QEBAPEB_WXZ @448 NONAME
?Insert@?$CMStringT@DV?$ChTraitsCRT@D@@@@QEAAHHD@Z @449 NONAME
?Insert@?$CMStringT@DV?$ChTraitsCRT@D@@@@QEAAHHPEBD@Z @450 NONAME
?Insert@?$CMStringT@_WV?$ChTraitsCRT@_W@@@@QEAAHHPEB_W@Z @451 NONAME
?Insert@?$CMStringT@_WV?$ChTraitsCRT@_W@@@@QEAAHH_W@Z @452 NONAME
?IsEmpty@?$CMSimpleStringT@D@@QEBA_NXZ @453 NONAME
?IsEmpty@?$CMSimpleStringT@_W@@QEBA_NXZ @454 NONAME
?Left@?$CMStringT@DV?$ChTraitsCRT@D@@@@QEBA?AV1@H@Z @455 NONAME
?Left@?$CMStringT@_WV?$ChTraitsCRT@_W@@@@QEBA?AV1@H@Z @456 NONAME
?LockBuffer@?$CMSimpleStringT@D@@QEAAPEADXZ @457 NONAME
?LockBuffer@?$CMSimpleStringT@_W@@QEAAPEA_WXZ @458 NONAME
?MakeLower@?$CMStringT@DV?$ChTraitsCRT@D@@@@QEAAAEAV1@XZ @459 NONAME
?MakeLower@?$CMStringT@_WV?$ChTraitsCRT@_W@@@@QEAAAEAV1@XZ @460 NONAME
?MakeReverse@?$CMStringT@DV?$ChTraitsCRT@D@@@@QEAAAEAV1@XZ @461 NONAME
?MakeReverse@?$CMStringT@_WV?$ChTraitsCRT@_W@@@@QEAAAEAV1@XZ @462 NONAME
?MakeUpper@?$CMStringT@DV?$ChTraitsCRT@D@@@@QEAAAEAV1@XZ @463 NONAME
?MakeUpper@?$CMStringT@_WV?$ChTraitsCRT@_W@@@@QEAAAEAV1@XZ @464 NONAME
?Mid@?$CMStringT@DV?$ChTraitsCRT@D@@@@QEBA?AV1@H@Z @465 NONAME
?Mid@?$CMStringT@DV?$ChTraitsCRT@D@@@@QEBA?AV1@HH@Z @466 NONAME
?Mid@?$CMStringT@_WV?$ChTraitsCRT@_W@@@@QEBA?AV1@H@Z @467 NONAME
?Mid@?$CMStringT@_WV?$ChTraitsCRT@_W@@@@QEBA?AV1@HH@Z @468 NONAME
?OemToCharA@?$CMStringT@DV?$ChTraitsCRT@D@@@@QEAAXXZ @469 NONAME
?OemToCharA@?$CMStringT@_WV?$ChTraitsCRT@_W@@@@QEAAXXZ @470 NONAME
?Preallocate@?$CMSimpleStringT@D@@QEAAXH@Z @471 NONAME
?Preallocate@?$CMSimpleStringT@_W@@QEAAXH@Z @472 NONAME
?PrepareWrite2@?$CMSimpleStringT@D@@AEAAXH@Z @473 NONAME
?PrepareWrite2@?$CMSimpleStringT@_W@@AEAAXH@Z @474 NONAME
?PrepareWrite@?$CMSimpleStringT@D@@AEAAPEADH@Z @475 NONAME
?PrepareWrite@?$CMSimpleStringT@_W@@AEAAPEA_WH@Z @476 NONAME
?Reallocate@?$CMSimpleStringT@D@@AEAAXH@Z @477 NONAME
?Reallocate@?$CMSimpleStringT@_W@@AEAAXH@Z @478 NONAME
?ReleaseBuffer@?$CMSimpleStringT@D@@QEAAXH@Z @479 NONAME
?ReleaseBuffer@?$CMSimpleStringT@_W@@QEAAXH@Z @480 NONAME
?ReleaseBufferSetLength@?$CMSimpleStringT@D@@QEAAXH@Z @481 NONAME
?ReleaseBufferSetLength@?$CMSimpleStringT@_W@@QEAAXH@Z @482 NONAME
?Remove@?$CMStringT@DV?$ChTraitsCRT@D@@@@QEAAHD@Z @483 NONAME
?Remove@?$CMStringT@_WV?$ChTraitsCRT@_W@@@@QEAAH_W@Z @484 NONAME
?Replace@?$CMStringT@DV?$ChTraitsCRT@D@@@@QEAAHDD@Z @485 NONAME
?Replace@?$CMStringT@DV?$ChTraitsCRT@D@@@@QEAAHPEBD0@Z @486 NONAME
?Replace@?$CMStringT@_WV?$ChTraitsCRT@_W@@@@QEAAHPEB_W0@Z @487 NONAME
?Replace@?$CMStringT@_WV?$ChTraitsCRT@_W@@@@QEAAH_W0@Z @488 NONAME
?ReverseFind@?$CMStringT@DV?$ChTraitsCRT@D@@@@QEBAHD@Z @489 NONAME
?ReverseFind@?$CMStringT@_WV?$ChTraitsCRT@_W@@@@QEBAH_W@Z @490 NONAME
?Right@?$CMStringT@DV?$ChTraitsCRT@D@@@@QEBA?AV1@H@Z @491 NONAME
?Right@?$CMStringT@_WV?$ChTraitsCRT@_W@@@@QEBA?AV1@H@Z @492 NONAME
?SetAt@?$CMSimpleStringT@D@@QEAAXHD@Z @493 NONAME
?SetAt@?$CMSimpleStringT@_W@@QEAAXH_W@Z @494 NONAME
?SetLength@?$CMSimpleStringT@D@@AEAAXH@Z @495 NONAME
?SetLength@?$CMSimpleStringT@_W@@AEAAXH@Z @496 NONAME
?SetString@?$CMSimpleStringT@D@@QEAAXPEBD@Z @497 NONAME
?SetString@?$CMSimpleStringT@D@@QEAAXPEBDH@Z @498 NONAME
?SetString@?$CMSimpleStringT@_W@@QEAAXPEB_W@Z @499 NONAME
?SetString@?$CMSimpleStringT@_W@@QEAAXPEB_WH@Z @500 NONAME
?SetSysString@?$CMStringT@DV?$ChTraitsCRT@D@@@@QEBAPEA_WPEAPEA_W@Z @501 NONAME
?SetSysString@?$CMStringT@_WV?$ChTraitsCRT@_W@@@@QEBAPEA_WPEAPEA_W@Z @502 NONAME
?SpanExcluding@?$CMStringT@DV?$ChTraitsCRT@D@@@@QEBA?AV1@PEBD@Z @503 NONAME
?SpanExcluding@?$CMStringT@_WV?$ChTraitsCRT@_W@@@@QEBA?AV1@PEB_W@Z @504 NONAME
?SpanIncluding@?$CMStringT@DV?$ChTraitsCRT@D@@@@QEBA?AV1@PEBD@Z @505 NONAME
?SpanIncluding@?$CMStringT@_WV?$ChTraitsCRT@_W@@@@QEBA?AV1@PEB_W@Z @506 NONAME
?StringLength@?$CMSimpleStringT@D@@SAHPEBD@Z @507 NONAME
?StringLength@?$CMSimpleStringT@D@@SAHPEB_W@Z @508 NONAME
?StringLength@?$CMSimpleStringT@_W@@SAHPEBD@Z @509 NONAME
?StringLength@?$CMSimpleStringT@_W@@SAHPEB_W@Z @510 NONAME
?StringLengthN@?$CMSimpleStringT@D@@SAHPEBD_K@Z @511 NONAME
?StringLengthN@?$CMSimpleStringT@D@@SAHPEB_W_K@Z @512 NONAME
?StringLengthN@?$CMSimpleStringT@_W@@SAHPEBD_K@Z @513 NONAME
?StringLengthN@?$CMSimpleStringT@_W@@SAHPEB_W_K@Z @514 NONAME
?Tokenize@?$CMStringT@DV?$ChTraitsCRT@D@@@@QEBA?AV1@PEBDAEAH@Z @515 NONAME
?Tokenize@?$CMStringT@_WV?$ChTraitsCRT@_W@@@@QEBA?AV1@PEB_WAEAH@Z @516 NONAME
?Trim@?$CMStringT@DV?$ChTraitsCRT@D@@@@QEAAAEAV1@D@Z @517 NONAME
?Trim@?$CMStringT@DV?$ChTraitsCRT@D@@@@QEAAAEAV1@PEBD@Z @518 NONAME
?Trim@?$CMStringT@DV?$ChTraitsCRT@D@@@@QEAAAEAV1@XZ @519 NONAME
?Trim@?$CMStringT@_WV?$ChTraitsCRT@_W@@@@QEAAAEAV1@PEB_W@Z @520 NONAME
?Trim@?$CMStringT@_WV?$ChTraitsCRT@_W@@@@QEAAAEAV1@XZ @521 NONAME
?Trim@?$CMStringT@_WV?$ChTraitsCRT@_W@@@@QEAAAEAV1@_W@Z @522 NONAME
?TrimLeft@?$CMStringT@DV?$ChTraitsCRT@D@@@@QEAAAEAV1@D@Z @523 NONAME
?TrimLeft@?$CMStringT@DV?$ChTraitsCRT@D@@@@QEAAAEAV1@PEBD@Z @524 NONAME
?TrimLeft@?$CMStringT@DV?$ChTraitsCRT@D@@@@QEAAAEAV1@XZ @525 NONAME
?TrimLeft@?$CMStringT@_WV?$ChTraitsCRT@_W@@@@QEAAAEAV1@PEB_W@Z @526 NONAME
?TrimLeft@?$CMStringT@_WV?$ChTraitsCRT@_W@@@@QEAAAEAV1@XZ @527 NONAME
?TrimLeft@?$CMStringT@_WV?$ChTraitsCRT@_W@@@@QEAAAEAV1@_W@Z @528 NONAME
?TrimRight@?$CMStringT@DV?$ChTraitsCRT@D@@@@QEAAAEAV1@D@Z @529 NONAME
?TrimRight@?$CMStringT@DV?$ChTraitsCRT@D@@@@QEAAAEAV1@PEBD@Z @530 NONAME
?TrimRight@?$CMStringT@DV?$ChTraitsCRT@D@@@@QEAAAEAV1@XZ @531 NONAME
?TrimRight@?$CMStringT@_WV?$ChTraitsCRT@_W@@@@QEAAAEAV1@PEB_W@Z @532 NONAME
?TrimRight@?$CMStringT@_WV?$ChTraitsCRT@_W@@@@QEAAAEAV1@XZ @533 NONAME
?TrimRight@?$CMStringT@_WV?$ChTraitsCRT@_W@@@@QEAAAEAV1@_W@Z @534 NONAME
?Truncate@?$CMSimpleStringT@D@@QEAAXH@Z @535 NONAME
?Truncate@?$CMSimpleStringT@_W@@QEAAXH@Z @536 NONAME
?UnlockBuffer@?$CMSimpleStringT@D@@QEAAXXZ @537 NONAME
?UnlockBuffer@?$CMSimpleStringT@_W@@QEAAXXZ @538 NONAME
?c_str@?$CMSimpleStringT@D@@QEBAPEBDXZ @539 NONAME
?c_str@?$CMSimpleStringT@_W@@QEBAPEB_WXZ @540 NONAME
??0PROTO_INTERFACE@@QEAA@AEBU0@@Z @541 NONAME
??0PROTO_INTERFACE@@QEAA@XZ @542 NONAME
??4PROTO_INTERFACE@@QEAAAEAU0@AEBU0@@Z @543 NONAME
??_7PROTO_INTERFACE@@6B@ @544 NONAME
?AddToList@PROTO_INTERFACE@@UEAAIHPEAUPROTOSEARCHRESULT@@@Z @545 NONAME
?AddToListByEvent@PROTO_INTERFACE@@UEAAIHHI@Z @546 NONAME
?AuthDeny@PROTO_INTERFACE@@UEAAHIPEB_W@Z @547 NONAME
?AuthRecv@PROTO_INTERFACE@@UEAAHIPEAUPROTORECVEVENT@@@Z @548 NONAME
?AuthRequest@PROTO_INTERFACE@@UEAAHIPEB_W@Z @549 NONAME
?Authorize@PROTO_INTERFACE@@UEAAHI@Z @550 NONAME
?CreateExtendedSearchUI@PROTO_INTERFACE@@UEAAPEAUHWND__@@PEAU2@@Z @551 NONAME
?FileAllow@PROTO_INTERFACE@@UEAAPEAXIPEAXPEB_W@Z @552 NONAME
?FileCancel@PROTO_INTERFACE@@UEAAHIPEAX@Z @553 NONAME
?FileDeny@PROTO_INTERFACE@@UEAAHIPEAXPEB_W@Z @554 NONAME
?FileResume@PROTO_INTERFACE@@UEAAHPEAXPEAHPEAPEB_W@Z @555 NONAME
?GetAwayMsg@PROTO_INTERFACE@@UEAAPEAXI@Z @556 NONAME
?GetCaps@PROTO_INTERFACE@@UEAA_KHI@Z @557 NONAME
?GetInfo@PROTO_INTERFACE@@UEAAHIH@Z @558 NONAME
?OnEvent@PROTO_INTERFACE@@UEAAHW4PROTOEVENTTYPE@@_K_J@Z @559 NONAME
?ProtoBroadcastAck@PROTO_INTERFACE@@QEAA_JIHHPEAX_J@Z @560 NONAME
?RecvAwayMsg@PROTO_INTERFACE@@UEAAHIHPEAUPROTORECVEVENT@@@Z @561 NONAME
?RecvContacts@PROTO_INTERFACE@@UEAAHIPEAUPROTORECVEVENT@@@Z @562 NONAME
?RecvFile@PROTO_INTERFACE@@UEAAHIPEAUPROTORECVFILET@@@Z @563 NONAME
?RecvMsg@PROTO_INTERFACE@@UEAAHIPEAUPROTORECVEVENT@@@Z @564 NONAME
?RecvUrl@PROTO_INTERFACE@@UEAAHIPEAUPROTORECVEVENT@@@Z @565 NONAME
?SearchAdvanced@PROTO_INTERFACE@@UEAAPEAUHWND__@@PEAU2@@Z @566 NONAME
?SearchBasic@PROTO_INTERFACE@@UEAAPEAXPEB_W@Z @567 NONAME
?SearchByEmail@PROTO_INTERFACE@@UEAAPEAXPEB_W@Z @568 NONAME
?SearchByName@PROTO_INTERFACE@@UEAAPEAXPEB_W00@Z @569 NONAME
?SendContacts@PROTO_INTERFACE@@UEAAHIHHPEAI@Z @570 NONAME
?SendFile@PROTO_INTERFACE@@UEAAPEAXIPEB_WPEAPEA_W@Z @571 NONAME
?SendMsg@PROTO_INTERFACE@@UEAAHIHPEBD@Z @572 NONAME
?SendUrl@PROTO_INTERFACE@@UEAAHIHPEBD@Z @573 NONAME
?SetApparentMode@PROTO_INTERFACE@@UEAAHIH@Z @574 NONAME
?SetAwayMsg@PROTO_INTERFACE@@UEAAHHPEB_W@Z @575 NONAME
?SetStatus@PROTO_INTERFACE@@UEAAHH@Z @576 NONAME
?UserIsTyping@PROTO_INTERFACE@@UEAAHIH@Z @577 NONAME
?debugLogA@PROTO_INTERFACE@@QEAAXPEBDZZ @578 NONAME
?debugLogW@PROTO_INTERFACE@@QEAAXPEB_WZZ @579 NONAME
?delSetting@PROTO_INTERFACE@@QEAA_JIPEBD@Z @580 NONAME
?delSetting@PROTO_INTERFACE@@QEAA_JPEBD@Z @581 NONAME
?getBool@PROTO_INTERFACE@@QEAA_NIPEBD_N@Z @582 NONAME
?getBool@PROTO_INTERFACE@@QEAA_NPEBD_N@Z @583 NONAME
?getByte@PROTO_INTERFACE@@QEAAHIPEBDE@Z @584 NONAME
?getByte@PROTO_INTERFACE@@QEAAHPEBDE@Z @585 NONAME
?getDword@PROTO_INTERFACE@@QEAAKIPEBDK@Z @586 NONAME
?getDword@PROTO_INTERFACE@@QEAAKPEBDK@Z @587 NONAME
?getString@PROTO_INTERFACE@@QEAA_JIPEBDPEAUDBVARIANT@@@Z @588 NONAME
?getString@PROTO_INTERFACE@@QEAA_JPEBDPEAUDBVARIANT@@@Z @589 NONAME
?getStringA@PROTO_INTERFACE@@QEAAPEADIPEBD@Z @590 NONAME
?getStringA@PROTO_INTERFACE@@QEAAPEADPEBD@Z @591 NONAME
?getWString@PROTO_INTERFACE@@QEAA_JIPEBDPEAUDBVARIANT@@@Z @592 NONAME
?getWString@PROTO_INTERFACE@@QEAA_JPEBDPEAUDBVARIANT@@@Z @593 NONAME
?getWStringA@PROTO_INTERFACE@@QEAAPEA_WIPEBD@Z @594 NONAME
?getWStringA@PROTO_INTERFACE@@QEAAPEA_WPEBD@Z @595 NONAME
?getWord@PROTO_INTERFACE@@QEAAHIPEBDG@Z @596 NONAME
?getWord@PROTO_INTERFACE@@QEAAHPEBDG@Z @597 NONAME
?isChatRoom@PROTO_INTERFACE@@QEAA_NI@Z @598 NONAME
?setByte@PROTO_INTERFACE@@QEAAXIPEBDE@Z @599 NONAME
?setByte@PROTO_INTERFACE@@QEAAXPEBDE@Z @600 NONAME
?setDword@PROTO_INTERFACE@@QEAAXIPEBDK@Z @601 NONAME
?setDword@PROTO_INTERFACE@@QEAAXPEBDK@Z @602 NONAME
?setString@PROTO_INTERFACE@@QEAAXIPEBD0@Z @603 NONAME
?setString@PROTO_INTERFACE@@QEAAXPEBD0@Z @604 NONAME
?setWString@PROTO_INTERFACE@@QEAAXIPEBDPEB_W@Z @605 NONAME
?setWString@PROTO_INTERFACE@@QEAAXPEBDPEB_W@Z @606 NONAME
?setWord@PROTO_INTERFACE@@QEAAXIPEBDG@Z @607 NONAME
?setWord@PROTO_INTERFACE@@QEAAXPEBDG@Z @608 NONAME
??0CCtrlBase@@QEAA@AEBV0@@Z @609 NONAME
??0CCtrlBase@@QEAA@PEAVCDlgBase@@H@Z @610 NONAME
??0CCtrlButton@@QEAA@AEBV0@@Z @611 NONAME
??0CCtrlButton@@QEAA@PEAVCDlgBase@@H@Z @612 NONAME
??0CCtrlCheck@@QEAA@AEBV0@@Z @613 NONAME
??0CCtrlCheck@@QEAA@PEAVCDlgBase@@H@Z @614 NONAME
??0CCtrlClc@@QEAA@AEBV0@@Z @615 NONAME
??0CCtrlClc@@QEAA@PEAVCDlgBase@@H@Z @616 NONAME
??0CCtrlCombo@@QEAA@AEBV0@@Z @617 NONAME
??0CCtrlCombo@@QEAA@PEAVCDlgBase@@H@Z @618 NONAME
??0CCtrlData@@QEAA@AEBV0@@Z @619 NONAME
??0CCtrlData@@QEAA@PEAVCDlgBase@@H@Z @620 NONAME
??0CCtrlEdit@@QEAA@AEBV0@@Z @621 NONAME
??0CCtrlEdit@@QEAA@PEAVCDlgBase@@H@Z @622 NONAME
??0CCtrlHyperlink@@QEAA@AEBV0@@Z @623 NONAME
??0CCtrlHyperlink@@QEAA@PEAVCDlgBase@@HPEBD@Z @624 NONAME
??0CCtrlListBox@@QEAA@AEBV0@@Z @625 NONAME
??0CCtrlListBox@@QEAA@PEAVCDlgBase@@H@Z @626 NONAME
??0CCtrlListView@@QEAA@AEBV0@@Z @627 NONAME
??0CCtrlListView@@QEAA@PEAVCDlgBase@@H@Z @628 NONAME
??0CCtrlMButton@@QEAA@AEBV0@@Z @629 NONAME
??0CCtrlMButton@@QEAA@PEAVCDlgBase@@HHPEBD@Z @630 NONAME
??0CCtrlMButton@@QEAA@PEAVCDlgBase@@HPEAUHICON__@@PEBD@Z @631 NONAME
??0CCtrlPages@@QEAA@AEBV0@@Z @632 NONAME
??0CCtrlPages@@QEAA@PEAVCDlgBase@@H@Z @633 NONAME
??0CCtrlTreeView@@QEAA@AEBV0@@Z @634 NONAME
??0CCtrlTreeView@@QEAA@PEAVCDlgBase@@H@Z @635 NONAME
??0CDataLink@@QEAA@AEBV0@@Z @636 NONAME
??0CDataLink@@QEAA@E_N@Z @637 NONAME
??0CDbLink@@QEAA@AEBV0@@Z @638 NONAME
??0CDbLink@@QEAA@PEBD0EK_N@Z @639 NONAME
??0CDbLink@@QEAA@PEBD0EPEA_W@Z @640 NONAME
??0CDlgBase@@QEAA@AEBV0@@Z @641 NONAME
??0CDlgBase@@QEAA@PEAUHINSTANCE__@@HPEAUHWND__@@@Z @642 NONAME
??0CProtoIntDlgBase@@QEAA@AEBV0@@Z @643 NONAME
??0CProtoIntDlgBase@@QEAA@PEAUPROTO_INTERFACE@@HPEAUHWND__@@_N@Z @644 NONAME
??1CCtrlBase@@UEAA@XZ @645 NONAME
??1CCtrlButton@@UEAA@XZ @646 NONAME
??1CCtrlCheck@@UEAA@XZ @647 NONAME
??1CCtrlClc@@UEAA@XZ @648 NONAME
??1CCtrlCombo@@UEAA@XZ @649 NONAME
??1CCtrlData@@UEAA@XZ @650 NONAME
??1CCtrlEdit@@UEAA@XZ @651 NONAME
??1CCtrlHyperlink@@UEAA@XZ @652 NONAME
??1CCtrlListBox@@UEAA@XZ @653 NONAME
??1CCtrlListView@@UEAA@XZ @654 NONAME
??1CCtrlMButton@@UEAA@XZ @655 NONAME
??1CCtrlPages@@UEAA@XZ @656 NONAME
??1CCtrlTreeView@@UEAA@XZ @657 NONAME
??1CDataLink@@UEAA@XZ @658 NONAME
??1CDbLink@@UEAA@XZ @659 NONAME
??1CDlgBase@@UEAA@XZ @660 NONAME
??1CProtoIntDlgBase@@UEAA@XZ @661 NONAME
??4CCtrlBase@@QEAAAEAV0@AEBV0@@Z @662 NONAME
??4CCtrlButton@@QEAAAEAV0@AEBV0@@Z @663 NONAME
??4CCtrlCheck@@QEAAAEAV0@AEBV0@@Z @664 NONAME
??4CCtrlClc@@QEAAAEAV0@AEBV0@@Z @665 NONAME
??4CCtrlCombo@@QEAAAEAV0@AEBV0@@Z @666 NONAME
??4CCtrlData@@QEAAAEAV0@AEBV0@@Z @667 NONAME
??4CCtrlEdit@@QEAAAEAV0@AEBV0@@Z @668 NONAME
??4CCtrlHyperlink@@QEAAAEAV0@AEBV0@@Z @669 NONAME
??4CCtrlListBox@@QEAAAEAV0@AEBV0@@Z @670 NONAME
??4CCtrlListView@@QEAAAEAV0@AEBV0@@Z @671 NONAME
??4CCtrlMButton@@QEAAAEAV0@AEBV0@@Z @672 NONAME
??4CCtrlPages@@QEAAAEAV0@AEBV0@@Z @673 NONAME
??4CCtrlTreeView@@QEAAAEAV0@AEBV0@@Z @674 NONAME
??4CDataLink@@QEAAAEAV0@AEBV0@@Z @675 NONAME
??4CDbLink@@QEAAAEAV0@AEBV0@@Z @676 NONAME
??4CDlgBase@@QEAAAEAV0@AEBV0@@Z @677 NONAME
??4CProtoIntDlgBase@@QEAAAEAV0@AEBV0@@Z @678 NONAME
??_7CCtrlBase@@6B@ @679 NONAME
??_7CCtrlButton@@6B@ @680 NONAME
??_7CCtrlCheck@@6B@ @681 NONAME
??_7CCtrlClc@@6B@ @682 NONAME
??_7CCtrlCombo@@6B@ @683 NONAME
??_7CCtrlData@@6B@ @684 NONAME
??_7CCtrlEdit@@6B@ @685 NONAME
??_7CCtrlHyperlink@@6B@ @686 NONAME
??_7CCtrlListBox@@6B@ @687 NONAME
??_7CCtrlListView@@6B@ @688 NONAME
??_7CCtrlMButton@@6B@ @689 NONAME
??_7CCtrlPages@@6B@ @690 NONAME
??_7CCtrlTreeView@@6B@ @691 NONAME
??_7CDataLink@@6B@ @692 NONAME
??_7CDbLink@@6B@ @693 NONAME
??_7CDlgBase@@6B@ @694 NONAME
??_7CProtoIntDlgBase@@6B@ @695 NONAME
?ActivatePage@CCtrlPages@@QEAAXH@Z @696 NONAME
?ActiveMessage@CDlgBase@@QEBAPEBUtagMSG@@XZ @697 NONAME
?AddColumn@CCtrlListView@@QEAAXHPEA_WH@Z @698 NONAME
?AddContact@CCtrlClc@@QEAAXI@Z @699 NONAME
?AddControl@CDlgBase@@IEAAXPEAVCCtrlBase@@@Z @700 NONAME
?AddGroup@CCtrlClc@@QEAAXPEAX@Z @701 NONAME
?AddGroup@CCtrlListView@@QEAAXHPEA_W@Z @702 NONAME
?AddInfoItem@CCtrlClc@@QEAAPEAXPEAUCLCINFOITEM@@@Z @703 NONAME
?AddItem@CCtrlListView@@QEAAHPEA_WH_JH@Z @704 NONAME
?AddPage@CCtrlPages@@QEAAXPEA_WPEAUHICON__@@U?$CCallback@X@@PEAX@Z @705 NONAME
?AddString@CCtrlCombo@@QEAAHPEB_W_J@Z @706 NONAME
?AddString@CCtrlListBox@@QEAAHPEA_W_J@Z @707 NONAME
?AddStringA@CCtrlCombo@@QEAAHPEBD_J@Z @708 NONAME
?ApproximateViewRect@CCtrlListView@@QEAAKHHH@Z @709 NONAME
?Arrange@CCtrlListView@@QEAAXI@Z @710 NONAME
?AttachDialog@CCtrlPages@@QEAAXHPEAVCDlgBase@@@Z @711 NONAME
?AutoRebuild@CCtrlClc@@QEAAXXZ @712 NONAME
?CancelEditLabel@CCtrlListView@@QEAAXXZ @713 NONAME
?Close@CDlgBase@@QEAAXXZ @714 NONAME
?Create@CDlgBase@@QEAAXXZ @715 NONAME
?CreateDbLink@CCtrlData@@QEAAXPEAVCDataLink@@@Z @716 NONAME
?CreateDbLink@CCtrlData@@QEAAXPEBD0EK_N@Z @717 NONAME
?CreateDbLink@CCtrlData@@QEAAXPEBD0PEA_W@Z @718 NONAME
?CreateDragImage@CCtrlListView@@QEAAPEAU_IMAGELIST@@HPEAUtagPOINT@@@Z @719 NONAME
?CreateDragImage@CCtrlTreeView@@QEAAPEAU_IMAGELIST@@PEAU_TREEITEM@@@Z @720 NONAME
?CreateImageList@CCtrlListView@@QEAAPEAU_IMAGELIST@@H@Z @721 NONAME
?CreateLink@CProtoIntDlgBase@@QEAAXAEAVCCtrlData@@PEADEK_N@Z @722 NONAME
?CreateLink@CProtoIntDlgBase@@QEAAXAEAVCCtrlData@@PEBDPEA_W@Z @723 NONAME
?CustomWndProc@CCtrlBase@@MEAA_JI_K_J@Z @724 NONAME
?CustomWndProc@CCtrlPages@@MEAA_JI_K_J@Z @725 NONAME
?DeleteAllItems@CCtrlListView@@QEAAXXZ @726 NONAME
?DeleteAllItems@CCtrlTreeView@@QEAAXXZ @727 NONAME
?DeleteColumn@CCtrlListView@@QEAAXH@Z @728 NONAME
?DeleteItem@CCtrlClc@@QEAAXPEAX@Z @729 NONAME
?DeleteItem@CCtrlListView@@QEAAXH@Z @730 NONAME
?DeleteItem@CCtrlTreeView@@QEAAXPEAU_TREEITEM@@@Z @731 NONAME
?DeleteString@CCtrlCombo@@QEAAXH@Z @732 NONAME
?DeleteString@CCtrlListBox@@QEAAXH@Z @733 NONAME
?Disable@CCtrlBase@@QEAAXXZ @734 NONAME
?DlgProc@CDlgBase@@MEAA_JI_K_J@Z @735 NONAME
?DlgProc@CProtoIntDlgBase@@MEAA_JI_K_J@Z @736 NONAME
?DoModal@CDlgBase@@QEAAHXZ @737 NONAME
?DynamicDlgProc@CDlgBase@@SA_JPEAUHWND__@@I_K_J@Z @738 NONAME
?EditLabel@CCtrlClc@@QEAAXPEAX@Z @739 NONAME
?EditLabel@CCtrlListView@@QEAAPEAUHWND__@@H@Z @740 NONAME
?EditLabel@CCtrlTreeView@@QEAAPEAUHWND__@@PEAU_TREEITEM@@@Z @741 NONAME
?Enable@CCtrlBase@@QEAAXH@Z @742 NONAME
?EnableGroupView@CCtrlListView@@QEAAHH@Z @743 NONAME
?Enabled@CCtrlBase@@QEBAHXZ @744 NONAME
?EndEditLabel@CCtrlClc@@QEAAX_N@Z @745 NONAME
?EndEditLabelNow@CCtrlTreeView@@QEAAXH@Z @746 NONAME
?EnsureVisible@CCtrlClc@@QEAAXPEAX_N@Z @747 NONAME
?EnsureVisible@CCtrlListView@@QEAAHHH@Z @748 NONAME
?EnsureVisible@CCtrlTreeView@@QEAAXPEAU_TREEITEM@@@Z @749 NONAME
?Expand@CCtrlClc@@QEAAXPEAXK@Z @750 NONAME
?Expand@CCtrlTreeView@@QEAAXPEAU_TREEITEM@@K@Z @751 NONAME
?FindContact@CCtrlClc@@QEAAPEAXI@Z @752 NONAME
?FindControl@CDlgBase@@AEAAPEAVCCtrlBase@@H@Z @753 NONAME
?FindGroup@CCtrlClc@@QEAAPEAXPEAX@Z @754 NONAME
?FindItem@CCtrlListView@@QEAAHHPEBUtagLVFINDINFOW@@@Z @755 NONAME
?FindNamedItem@CCtrlTreeView@@QEAAPEAU_TREEITEM@@PEAU2@PEB_W@Z @756 NONAME
?FindString@CCtrlCombo@@QEAAHPEB_WH_N@Z @757 NONAME
?FindString@CCtrlListBox@@QEAAHPEA_WH_N@Z @758 NONAME
?FindStringA@CCtrlCombo@@QEAAHPEBDH_N@Z @759 NONAME
?GetBkColor@CCtrlClc@@QEAAKXZ @760 NONAME
?GetBkColor@CCtrlListView@@QEAAKXZ @761 NONAME
?GetBkColor@CCtrlTreeView@@QEAAKXZ @762 NONAME
?GetBkImage@CCtrlListView@@QEAAXPEAUtagLVBKIMAGEW@@@Z @763 NONAME
?GetCallbackMask@CCtrlListView@@QEAAIXZ @764 NONAME
?GetCheck@CCtrlClc@@QEAA_NPEAX@Z @765 NONAME
?GetCheckState@CCtrlListView@@QEAAHI@Z @766 NONAME
?GetCheckState@CCtrlTreeView@@QEAAKPEAU_TREEITEM@@@Z @767 NONAME
?GetChild@CCtrlTreeView@@QEAAPEAU_TREEITEM@@PEAU2@@Z @768 NONAME
?GetColumn@CCtrlListView@@QEAAXHPEAUtagLVCOLUMNW@@@Z @769 NONAME
?GetColumnOrderArray@CCtrlListView@@QEAAXHPEAH@Z @770 NONAME
?GetColumnWidth@CCtrlListView@@QEAAHH@Z @771 NONAME
?GetCount@CCtrlClc@@QEAAHXZ @772 NONAME
?GetCount@CCtrlCombo@@QEAAHXZ @773 NONAME
?GetCount@CCtrlListBox@@QEAAHXZ @774 NONAME
?GetCount@CCtrlTreeView@@QEAAHXZ @775 NONAME
?GetCountPerPage@CCtrlListView@@QEAAHXZ @776 NONAME
?GetCurSel@CCtrlCombo@@QEAAHXZ @777 NONAME
?GetCurSel@CCtrlListBox@@QEAAHXZ @778 NONAME
?GetDataSigned@CCtrlData@@IEAA_NXZ @779 NONAME
?GetDataSigned@CDataLink@@QEAAEXZ @780 NONAME
?GetDataType@CCtrlData@@IEAAEXZ @781 NONAME
?GetDataType@CDataLink@@QEAAEXZ @782 NONAME
?GetDropHilight@CCtrlTreeView@@QEAAPEAU_TREEITEM@@XZ @783 NONAME
?GetDroppedState@CCtrlCombo@@QEAA_NXZ @784 NONAME
?GetEditControl@CCtrlClc@@QEAAPEAUHWND__@@XZ @785 NONAME
?GetEditControl@CCtrlListView@@QEAAPEAUHWND__@@XZ @786 NONAME
?GetEditControl@CCtrlTreeView@@QEAAPEAUHWND__@@XZ @787 NONAME
?GetExStyle@CCtrlClc@@QEAAKXZ @788 NONAME
?GetExpand@CCtrlClc@@QEAAKPEAX@Z @789 NONAME
?GetExtendedListViewStyle@CCtrlListView@@QEAAKXZ @790 NONAME
?GetExtraColumns@CCtrlClc@@QEAAHXZ @791 NONAME
?GetExtraImage@CCtrlClc@@QEAAEPEAXH@Z @792 NONAME
?GetExtraImageList@CCtrlClc@@QEAAPEAU_IMAGELIST@@XZ @793 NONAME
?GetFirstVisible@CCtrlTreeView@@QEAAPEAU_TREEITEM@@XZ @794 NONAME
?GetFont@CCtrlClc@@QEAAPEAUHFONT__@@H@Z @795 NONAME
?GetGroupMetrics@CCtrlListView@@QEAAXPEAUtagLVGROUPMETRICS@@@Z @796 NONAME
?GetHeader@CCtrlListView@@QEAAPEAUHWND__@@XZ @797 NONAME
?GetHideOfflineRoot@CCtrlClc@@QEAA_NXZ @798 NONAME
?GetHotCursor@CCtrlListView@@QEAAPEAUHICON__@@XZ @799 NONAME
?GetHotItem@CCtrlListView@@QEAAHXZ @800 NONAME
?GetHoverTime@CCtrlListView@@QEAAKXZ @801 NONAME
?GetHwnd@CCtrlBase@@QEBAPEAUHWND__@@XZ @802 NONAME
?GetHwnd@CDlgBase@@QEBAPEAUHWND__@@XZ @803 NONAME
?GetISearchString@CCtrlListView@@QEAAHPEAD@Z @804 NONAME
?GetImageList@CCtrlListView@@QEAAPEAU_IMAGELIST@@H@Z @805 NONAME
?GetImageList@CCtrlTreeView@@QEAAPEAU_IMAGELIST@@H@Z @806 NONAME
?GetIndent@CCtrlTreeView@@QEAAHXZ @807 NONAME
?GetInsertMark@CCtrlListView@@QEAAHPEAULVINSERTMARK@@@Z @808 NONAME
?GetInsertMarkColor@CCtrlListView@@QEAAKXZ @809 NONAME
?GetInsertMarkColor@CCtrlTreeView@@QEAAKXZ @810 NONAME
?GetInsertMarkRect@CCtrlListView@@QEAAHPEAUtagRECT@@@Z @811 NONAME
?GetInt@CCtrlBase@@QEAAHXZ @812 NONAME
?GetItem@CCtrlListView@@QEAAXPEAUtagLVITEMW@@@Z @813 NONAME
?GetItem@CCtrlTreeView@@QEAAXPEAU_TREEITEM@@PEAUtagTVITEMEXW@@@Z @814 NONAME
?GetItem@CCtrlTreeView@@QEAAXPEAU_TREEITEM@@PEAUtagTVITEMEXW@@PEA_WH@Z @815 NONAME
?GetItem@CCtrlTreeView@@QEAAXPEAUtagTVITEMEXW@@@Z @816 NONAME
?GetItemCount@CCtrlListView@@QEAAHXZ @817 NONAME
?GetItemData@CCtrlCombo@@QEAA_JH@Z @818 NONAME
?GetItemData@CCtrlListBox@@QEAA_JH@Z @819 NONAME
?GetItemData@CCtrlListView@@QEAA_JH@Z @820 NONAME
?GetItemHeight@CCtrlTreeView@@QEAAHXZ @821 NONAME
?GetItemPosition@CCtrlListView@@QEAAXHPEAUtagPOINT@@@Z @822 NONAME
?GetItemRect@CCtrlListView@@QEAAXHPEAUtagRECT@@H@Z @823 NONAME
?GetItemRect@CCtrlTreeView@@QEAAXPEAU_TREEITEM@@PEAUtagRECT@@H@Z @824 NONAME
?GetItemSpacing@CCtrlListView@@QEAAKH@Z @825 NONAME
?GetItemState@CCtrlListView@@QEAAIHI@Z @826 NONAME
?GetItemState@CCtrlTreeView@@QEAAKPEAU_TREEITEM@@K@Z @827 NONAME
?GetItemText@CCtrlCombo@@QEAAPEA_WH@Z @828 NONAME
?GetItemText@CCtrlCombo@@QEAAPEA_WHPEA_WH@Z @829 NONAME
?GetItemText@CCtrlListBox@@QEAAPEA_WH@Z @830 NONAME
?GetItemText@CCtrlListBox@@QEAAPEA_WHPEA_WH@Z @831 NONAME
?GetItemText@CCtrlListView@@QEAAXHHPEA_WH@Z @832 NONAME
?GetItemType@CCtrlClc@@QEAAHPEAX@Z @833 NONAME
?GetLastVisible@CCtrlTreeView@@QEAAPEAU_TREEITEM@@XZ @834 NONAME
?GetLefrMargin@CCtrlClc@@QEAAHXZ @835 NONAME
?GetLineColor@CCtrlTreeView@@QEAAKXZ @836 NONAME
?GetNextItem@CCtrlClc@@QEAAPEAXPEAXK@Z @837 NONAME
?GetNextItem@CCtrlListView@@QEAAHHI@Z @838 NONAME
?GetNextItem@CCtrlTreeView@@QEAAPEAU_TREEITEM@@PEAU2@K@Z @839 NONAME
?GetNextSibling@CCtrlTreeView@@QEAAPEAU_TREEITEM@@PEAU2@@Z @840 NONAME
?GetNextVisible@CCtrlTreeView@@QEAAPEAU_TREEITEM@@PEAU2@@Z @841 NONAME
?GetNumberOfWorkAreas@CCtrlListView@@QEAAHPEAI@Z @842 NONAME
?GetOrigin@CCtrlListView@@QEAAHPEAUtagPOINT@@@Z @843 NONAME
?GetOutlineColor@CCtrlListView@@QEAAKXZ @844 NONAME
?GetParent@CCtrlBase@@QEAAPEAVCDlgBase@@XZ @845 NONAME
?GetParent@CCtrlTreeView@@QEAAPEAU_TREEITEM@@PEAU2@@Z @846 NONAME
?GetPrevSibling@CCtrlTreeView@@QEAAPEAU_TREEITEM@@PEAU2@@Z @847 NONAME
?GetPrevVisible@CCtrlTreeView@@QEAAPEAU_TREEITEM@@PEAU2@@Z @848 NONAME
?GetProtoInterface@CProtoIntDlgBase@@QEAAPEAUPROTO_INTERFACE@@XZ @849 NONAME
?GetRoot@CCtrlTreeView@@QEAAPEAU_TREEITEM@@XZ @850 NONAME
?GetScrollTime@CCtrlTreeView@@QEAAKXZ @851 NONAME
?GetSel@CCtrlListBox@@QEAA_NH@Z @852 NONAME
?GetSelCount@CCtrlListBox@@QEAAHXZ @853 NONAME
?GetSelItems@CCtrlListBox@@QEAAPEAHPEAHH@Z @854 NONAME
?GetSelItems@CCtrlListBox@@QEAAPEAHXZ @855 NONAME
?GetSelectedColumn@CCtrlListView@@QEAAIXZ @856 NONAME
?GetSelectedCount@CCtrlListView@@QEAAIXZ @857 NONAME
?GetSelection@CCtrlClc@@QEAAPEAXXZ @858 NONAME
?GetSelection@CCtrlTreeView@@QEAAPEAU_TREEITEM@@XZ @859 NONAME
?GetSelectionMark@CCtrlListView@@QEAAHXZ @860 NONAME
?GetState@CCtrlCheck@@QEAAHXZ @861 NONAME
?GetStringWidth@CCtrlListView@@QEAAHPEBD@Z @862 NONAME
?GetSubItemRect@CCtrlListView@@QEAAHHHHPEAUtagRECT@@@Z @863 NONAME
?GetText@CCtrlBase@@QEAAPEA_WPEA_WH@Z @864 NONAME
?GetText@CCtrlBase@@QEAAPEA_WXZ @865 NONAME
?GetTextA@CCtrlBase@@QEAAPEADPEADH@Z @866 NONAME
?GetTextA@CCtrlBase@@QEAAPEADXZ @867 NONAME
?GetTextBkColor@CCtrlListView@@QEAAKXZ @868 NONAME
?GetTextColor@CCtrlListView@@QEAAKXZ @869 NONAME
?GetTextColor@CCtrlTreeView@@QEAAKXZ @870 NONAME
?GetTextColot@CCtrlClc@@QEAAKH@Z @871 NONAME
?GetTileInfo@CCtrlListView@@QEAAXPEAUtagLVTILEINFO@@@Z @872 NONAME
?GetTileViewInfo@CCtrlListView@@QEAAXPEAUtagLVTILEVIEWINFO@@@Z @873 NONAME
?GetToolTips@CCtrlListView@@QEAAPEAUHWND__@@XZ @874 NONAME
?GetToolTips@CCtrlTreeView@@QEAAPEAUHWND__@@XZ @875 NONAME
?GetTopIndex@CCtrlListView@@QEAAHXZ @876 NONAME
?GetUnicodeFormat@CCtrlListView@@QEAAHXZ @877 NONAME
?GetUnicodeFormat@CCtrlTreeView@@QEAAHXZ @878 NONAME
?GetView@CCtrlListView@@QEAAKXZ @879 NONAME
?GetViewRect@CCtrlListView@@QEAAHPEAUtagRECT@@@Z @880 NONAME
?GetVisibleCount@CCtrlTreeView@@QEAAIXZ @881 NONAME
?GetWorkAreas@CCtrlListView@@QEAAXHPEAUtagRECT@@@Z @882 NONAME
?GlobalDlgProc@CDlgBase@@CA_JPEAUHWND__@@I_K_J@Z @883 NONAME
?GlobalDlgResizer@CDlgBase@@CAHPEAUHWND__@@_JPEAUUTILRESIZECONTROL@@@Z @884 NONAME
?GlobalSubclassWndProc@CCtrlBase@@CA_JPEAUHWND__@@I_K_J@Z @885 NONAME
?HasGroup@CCtrlListView@@QEAAHH@Z @886 NONAME
?HitTest@CCtrlClc@@QEAAPEAXHHPEAK@Z @887 NONAME
?HitTest@CCtrlListView@@QEAAHPEAUtagLVHITTESTINFO@@@Z @888 NONAME
?HitTest@CCtrlTreeView@@QEAAPEAU_TREEITEM@@PEAUtagTVHITTESTINFO@@@Z @889 NONAME
?InsertColumn@CCtrlListView@@QEAAHHQEAUtagLVCOLUMNW@@@Z @890 NONAME
?InsertGroup@CCtrlListView@@QEAAHHPEAUtagLVGROUP@@@Z @891 NONAME
?InsertGroupSorted@CCtrlListView@@QEAAXPEAUtagLVINSERTGROUPSORTED@@@Z @892 NONAME
?InsertItem@CCtrlListView@@QEAAHQEAUtagLVITEMW@@@Z @893 NONAME
?InsertItem@CCtrlTreeView@@QEAAPEAU_TREEITEM@@PEAUtagTVINSERTSTRUCTW@@@Z @894 NONAME
?InsertMarkHitTest@CCtrlListView@@QEAAHPEAUtagPOINT@@PEAULVINSERTMARK@@@Z @895 NONAME
?InsertString@CCtrlCombo@@QEAAHPEA_WH_J@Z @896 NONAME
?InsertString@CCtrlListBox@@QEAAHPEA_WH_J@Z @897 NONAME
?IsChanged@CCtrlData@@QEBA_NXZ @898 NONAME
?IsGroupViewEnabled@CCtrlListView@@QEAAHXZ @899 NONAME
?IsInitialized@CDlgBase@@QEBA_NXZ @900 NONAME
?LoadSigned@CCtrlData@@IEAAHXZ @901 NONAME
?LoadSigned@CDbLink@@UEAAHXZ @902 NONAME
?LoadText@CCtrlData@@IEAAPEB_WXZ @903 NONAME
?LoadText@CDbLink@@UEAAPEA_WXZ @904 NONAME
?LoadUnsigned@CCtrlData@@IEAAKXZ @905 NONAME
?LoadUnsigned@CDbLink@@UEAAKXZ @906 NONAME
?MakeFlat@CCtrlMButton@@QEAAXXZ @907 NONAME
?MakePush@CCtrlMButton@@QEAAXXZ @908 NONAME
?MapIDToIndex@CCtrlListView@@QEAAII@Z @909 NONAME
?MapIndexToID@CCtrlListView@@QEAAII@Z @910 NONAME
?NotifyChange@CCtrlData@@IEAAXXZ @911 NONAME
?NotifyControls@CDlgBase@@AEAAXP8CCtrlBase@@EAAXXZ@Z @912 NONAME
?OnApply@CCtrlBase@@UEAAXXZ @913 NONAME
?OnApply@CCtrlCheck@@UEAAXXZ @914 NONAME
?OnApply@CCtrlCombo@@UEAAXXZ @915 NONAME
?OnApply@CCtrlEdit@@UEAAXXZ @916 NONAME
?OnApply@CDlgBase@@MEAAXXZ @917 NONAME
?OnChange@CDlgBase@@MEAAXPEAVCCtrlBase@@@Z @918 NONAME
?OnClose@CDlgBase@@MEAAXXZ @919 NONAME
?OnCommand@CCtrlBase@@UEAAHPEAUHWND__@@GG@Z @920 NONAME
?OnCommand@CCtrlButton@@UEAAHPEAUHWND__@@GG@Z @921 NONAME
?OnCommand@CCtrlCheck@@UEAAHPEAUHWND__@@GG@Z @922 NONAME
?OnCommand@CCtrlCombo@@UEAAHPEAUHWND__@@GG@Z @923 NONAME
?OnCommand@CCtrlEdit@@UEAAHPEAUHWND__@@GG@Z @924 NONAME
?OnCommand@CCtrlHyperlink@@UEAAHPEAUHWND__@@GG@Z @925 NONAME
?OnCommand@CCtrlListBox@@MEAAHPEAUHWND__@@GG@Z @926 NONAME
?OnDeleteItem@CCtrlBase@@UEAAHPEAUtagDELETEITEMSTRUCT@@@Z @927 NONAME
?OnDestroy@CCtrlBase@@UEAAXXZ @928 NONAME
?OnDestroy@CCtrlPages@@MEAAXXZ @929 NONAME
?OnDestroy@CDlgBase@@MEAAXXZ @930 NONAME
?OnDrawItem@CCtrlBase@@UEAAHPEAUtagDRAWITEMSTRUCT@@@Z @931 NONAME
?OnInit@CCtrlBase@@UEAAXXZ @932 NONAME
?OnInit@CCtrlCheck@@UEAAXXZ @933 NONAME
?OnInit@CCtrlCombo@@UEAAXXZ @934 NONAME
?OnInit@CCtrlData@@UEAAXXZ @935 NONAME
?OnInit@CCtrlEdit@@UEAAXXZ @936 NONAME
?OnInit@CCtrlMButton@@UEAAXXZ @937 NONAME
?OnInit@CCtrlPages@@MEAAXXZ @938 NONAME
?OnInitDialog@CDlgBase@@MEAAXXZ @939 NONAME
?OnMeasureItem@CCtrlBase@@UEAAHPEAUtagMEASUREITEMSTRUCT@@@Z @940 NONAME
?OnNotify@CCtrlBase@@UEAAHHPEAUtagNMHDR@@@Z @941 NONAME
?OnNotify@CCtrlClc@@MEAAHHPEAUtagNMHDR@@@Z @942 NONAME
?OnNotify@CCtrlListView@@MEAAHHPEAUtagNMHDR@@@Z @943 NONAME
?OnNotify@CCtrlPages@@MEAAHHPEAUtagNMHDR@@@Z @944 NONAME
?OnNotify@CCtrlTreeView@@MEAAHHPEAUtagNMHDR@@@Z @945 NONAME
?OnProtoActivate@CProtoIntDlgBase@@MEAAX_K_J@Z @946 NONAME
?OnProtoCheckOnline@CProtoIntDlgBase@@MEAAX_K_J@Z @947 NONAME
?OnProtoRefresh@CProtoIntDlgBase@@MEAAX_K_J@Z @948 NONAME
?OnReset@CCtrlBase@@UEAAXXZ @949 NONAME
?OnReset@CCtrlCheck@@UEAAXXZ @950 NONAME
?OnReset@CCtrlCombo@@UEAAXXZ @951 NONAME
?OnReset@CCtrlEdit@@UEAAXXZ @952 NONAME
?OnReset@CDlgBase@@MEAAXXZ @953 NONAME
?RedrawItems@CCtrlListView@@QEAAHHH@Z @954 NONAME
?RemoveAllGroups@CCtrlListView@@QEAAXXZ @955 NONAME
?RemoveGroup@CCtrlListView@@QEAAHH@Z @956 NONAME
?ResetContent@CCtrlCombo@@QEAAXXZ @957 NONAME
?ResetContent@CCtrlListBox@@QEAAXXZ @958 NONAME
?Resizer@CDlgBase@@MEAAHPEAUUTILRESIZECONTROL@@@Z @959 NONAME
?SaveInt@CCtrlData@@IEAAXK@Z @960 NONAME
?SaveInt@CDbLink@@UEAAXK@Z @961 NONAME
?SaveText@CCtrlData@@IEAAXPEA_W@Z @962 NONAME
?SaveText@CDbLink@@UEAAXPEA_W@Z @963 NONAME
?Scroll@CCtrlListView@@QEAAHHH@Z @964 NONAME
?Select@CCtrlTreeView@@QEAAXPEAU_TREEITEM@@K@Z @965 NONAME
?SelectDropTarget@CCtrlTreeView@@QEAAXPEAU_TREEITEM@@@Z @966 NONAME
?SelectItem@CCtrlClc@@QEAAXPEAX@Z @967 NONAME
?SelectItem@CCtrlTreeView@@QEAAXPEAU_TREEITEM@@@Z @968 NONAME
?SelectSetFirstVisible@CCtrlTreeView@@QEAAXPEAU_TREEITEM@@@Z @969 NONAME
?SelectString@CCtrlCombo@@QEAAHPEA_W@Z @970 NONAME
?SelectString@CCtrlListBox@@QEAAHPEA_W@Z @971 NONAME
?SendMsg@CCtrlBase@@QEAA_JI_K_J@Z @972 NONAME
?SetBkBitmap@CCtrlClc@@QEAAXKPEAUHBITMAP__@@@Z @973 NONAME
?SetBkColor@CCtrlClc@@QEAAXK@Z @974 NONAME
?SetBkColor@CCtrlListView@@QEAAHK@Z @975 NONAME
?SetBkColor@CCtrlTreeView@@QEAAKK@Z @976 NONAME
?SetBkImage@CCtrlListView@@QEAAHPEAUtagLVBKIMAGEW@@@Z @977 NONAME
?SetCallbackMask@CCtrlListView@@QEAAHI@Z @978 NONAME
?SetCheck@CCtrlClc@@QEAAXPEAX_N@Z @979 NONAME
?SetCheckState@CCtrlListView@@QEAAXIH@Z @980 NONAME
?SetCheckState@CCtrlTreeView@@QEAAXPEAU_TREEITEM@@K@Z @981 NONAME
?SetColumn@CCtrlListView@@QEAAHHPEAUtagLVCOLUMNW@@@Z @982 NONAME
?SetColumnOrderArray@CCtrlListView@@QEAAHHPEAH@Z @983 NONAME
?SetColumnWidth@CCtrlListView@@QEAAHHH@Z @984 NONAME
?SetCurSel@CCtrlCombo@@QEAAHH@Z @985 NONAME
?SetCurSel@CCtrlListBox@@QEAAHH@Z @986 NONAME
?SetExStyle@CCtrlClc@@QEAAXK@Z @987 NONAME
?SetExtendedListViewStyle@CCtrlListView@@QEAAXK@Z @988 NONAME
?SetExtendedListViewStyleEx@CCtrlListView@@QEAAXKK@Z @989 NONAME
?SetExtraColumns@CCtrlClc@@QEAAXH@Z @990 NONAME
?SetExtraImage@CCtrlClc@@QEAAXPEAXHH@Z @991 NONAME
?SetExtraImageList@CCtrlClc@@QEAAXPEAU_IMAGELIST@@@Z @992 NONAME
?SetFont@CCtrlClc@@QEAAXHPEAX_N@Z @993 NONAME
?SetGreyoutFlags@CCtrlClc@@QEAAXK@Z @994 NONAME
?SetGroupInfo@CCtrlListView@@QEAAHHPEAUtagLVGROUP@@@Z @995 NONAME
?SetGroupMetrics@CCtrlListView@@QEAAXPEAUtagLVGROUPMETRICS@@@Z @996 NONAME
?SetHideEmptyGroups@CCtrlClc@@QEAAX_N@Z @997 NONAME
?SetHideOfflineRoot@CCtrlClc@@QEAAX_N@Z @998 NONAME
?SetHotCursor@CCtrlListView@@QEAAPEAUHICON__@@PEAU2@@Z @999 NONAME
?SetHotItem@CCtrlListView@@QEAAHH@Z @1000 NONAME
?SetHoverTime@CCtrlListView@@QEAAXK@Z @1001 NONAME
?SetIconSpacing@CCtrlListView@@QEAAKHH@Z @1002 NONAME
?SetImageList@CCtrlListView@@QEAAPEAU_IMAGELIST@@PEAU2@H@Z @1003 NONAME
?SetImageList@CCtrlTreeView@@QEAAXPEAU_IMAGELIST@@H@Z @1004 NONAME
?SetIndent@CCtrlClc@@QEAAXH@Z @1005 NONAME
?SetIndent@CCtrlTreeView@@QEAAXH@Z @1006 NONAME
?SetInfoTip@CCtrlListView@@QEAAHPEAUtagLVSETINFOTIP@@@Z @1007 NONAME
?SetInsertMark@CCtrlListView@@QEAAHPEAULVINSERTMARK@@@Z @1008 NONAME
?SetInsertMark@CCtrlTreeView@@QEAAXPEAU_TREEITEM@@H@Z @1009 NONAME
?SetInsertMarkColor@CCtrlListView@@QEAAKK@Z @1010 NONAME
?SetInsertMarkColor@CCtrlTreeView@@QEAAKK@Z @1011 NONAME
?SetInt@CCtrlBase@@QEAAXH@Z @1012 NONAME
?SetItem@CCtrlListView@@QEAAHQEAUtagLVITEMW@@@Z @1013 NONAME
?SetItem@CCtrlListView@@QEAAXHHPEA_WH@Z @1014 NONAME
?SetItem@CCtrlTreeView@@QEAAXPEAUtagTVITEMEXW@@@Z @1015 NONAME
?SetItemCount@CCtrlListView@@QEAAXH@Z @1016 NONAME
?SetItemCountEx@CCtrlListView@@QEAAXHK@Z @1017 NONAME
?SetItemData@CCtrlCombo@@QEAAXH_J@Z @1018 NONAME
?SetItemData@CCtrlListBox@@QEAAXH_J@Z @1019 NONAME
?SetItemHeight@CCtrlTreeView@@QEAAXF@Z @1020 NONAME
?SetItemPosition32@CCtrlListView@@QEAAXHHH@Z @1021 NONAME
?SetItemPosition@CCtrlListView@@QEAAHHHH@Z @1022 NONAME
?SetItemState@CCtrlListView@@QEAAXHII@Z @1023 NONAME
?SetItemState@CCtrlTreeView@@QEAAXPEAU_TREEITEM@@KK@Z @1024 NONAME
?SetItemText@CCtrlClc@@QEAAXPEAXPEAD@Z @1025 NONAME
?SetItemText@CCtrlListView@@QEAAXHHPEA_W@Z @1026 NONAME
?SetLeftMargin@CCtrlClc@@QEAAXH@Z @1027 NONAME
?SetLineColor@CCtrlTreeView@@QEAAKK@Z @1028 NONAME
?SetOfflineModes@CCtrlClc@@QEAAXK@Z @1029 NONAME
?SetOutlineColor@CCtrlListView@@QEAAKK@Z @1030 NONAME
?SetScrollTime@CCtrlTreeView@@QEAAXI@Z @1031 NONAME
?SetSel@CCtrlListBox@@QEAAXH_N@Z @1032 NONAME
?SetSelectedColumn@CCtrlListView@@QEAAXH@Z @1033 NONAME
?SetSelectionMark@CCtrlListView@@QEAAHH@Z @1034 NONAME
?SetState@CCtrlCheck@@QEAAXH@Z @1035 NONAME
?SetStatusText@CProtoIntDlgBase@@QEAAXPEB_W@Z @1036 NONAME
?SetText@CCtrlBase@@QEAAXPEB_W@Z @1037 NONAME
?SetTextA@CCtrlBase@@QEAAXPEBD@Z @1038 NONAME
?SetTextBkColor@CCtrlListView@@QEAAHK@Z @1039 NONAME
?SetTextColor@CCtrlClc@@QEAAXHK@Z @1040 NONAME
?SetTextColor@CCtrlListView@@QEAAHK@Z @1041 NONAME
?SetTextColor@CCtrlTreeView@@QEAAKK@Z @1042 NONAME
?SetTileInfo@CCtrlListView@@QEAAHPEAUtagLVTILEINFO@@@Z @1043 NONAME
?SetTileViewInfo@CCtrlListView@@QEAAHPEAUtagLVTILEVIEWINFO@@@Z @1044 NONAME
?SetToolTips@CCtrlListView@@QEAAPEAUHWND__@@PEAU2@@Z @1045 NONAME
?SetToolTips@CCtrlTreeView@@QEAAPEAUHWND__@@PEAU2@@Z @1046 NONAME
?SetUnicodeFormat@CCtrlListView@@QEAAHH@Z @1047 NONAME
?SetUnicodeFormat@CCtrlTreeView@@QEAAHH@Z @1048 NONAME
?SetUseGroups@CCtrlClc@@QEAAX_N@Z @1049 NONAME
?SetView@CCtrlListView@@QEAAHK@Z @1050 NONAME
?SetWorkAreas@CCtrlListView@@QEAAXHPEAUtagRECT@@@Z @1051 NONAME
?Show@CDlgBase@@QEAAXH@Z @1052 NONAME
?ShowDropdown@CCtrlCombo@@QEAAX_N@Z @1053 NONAME
?ShowPage@CCtrlPages@@AEAAXPEAVCDlgBase@@@Z @1054 NONAME
?SortChildren@CCtrlTreeView@@QEAAXPEAU_TREEITEM@@H@Z @1055 NONAME
?SortChildrenCB@CCtrlTreeView@@QEAAXPEAUtagTVSORTCB@@H@Z @1056 NONAME
?SortGroups@CCtrlListView@@QEAAHP6AHHHPEAX@Z0@Z @1057 NONAME
?SortItems@CCtrlListView@@QEAAHP6AH_J00@Z0@Z @1058 NONAME
?SortItemsEx@CCtrlListView@@QEAAHP6AH_J00@Z0@Z @1059 NONAME
?SubItemHitTest@CCtrlListView@@QEAAHPEAUtagLVHITTESTINFO@@@Z @1060 NONAME
?Subclass@CCtrlBase@@IEAAXXZ @1061 NONAME
?ThemeDialogBackground@CDlgBase@@IEAAXH@Z @1062 NONAME
?TranslateItem@CCtrlTreeView@@QEAAXPEAU_TREEITEM@@@Z @1063 NONAME
?TranslateTree@CCtrlTreeView@@QEAAXXZ @1064 NONAME
?Unsubclass@CCtrlBase@@IEAAXXZ @1065 NONAME
?Update@CCtrlListView@@QEAAHH@Z @1066 NONAME
?UpdateProtoTitle@CProtoIntDlgBase@@AEAAXPEB_W@Z @1067 NONAME
?UpdateStatusBar@CProtoIntDlgBase@@AEAAXXZ @1068 NONAME
?WindowSubscribe@PROTO_INTERFACE@@QEAAXPEAUHWND__@@@Z @1069 NONAME
?WindowUnsubscribe@PROTO_INTERFACE@@QEAAXPEAUHWND__@@@Z @1070 NONAME
?cmp@CCtrlBase@@SAHPEBV1@0@Z @1071 NONAME
?GetCtrlId@CCtrlBase@@QEBAHXZ @1072 NONAME
ProtoWindowAdd @1073
ProtoWindowRemove @1074
Proto_IsProtocolLoaded @1075
Proto_RegisterModule @1076
?Detouch@?$CMStringT@DV?$ChTraitsCRT@D@@@@QEBAPEADXZ @1077 NONAME
?Detouch@?$CMStringT@_WV?$ChTraitsCRT@_W@@@@QEBAPEA_WXZ @1078 NONAME
